 protobuf

 Timestamp is 56722c68 (Thu Dec 17 11:30:48 2015)

 Preferred load address is 10000000

 Start         Length     Name                   Class
 0001:00000000 0000025fH .text                   CODE
 0001:00000260 000000c8H .text$di                CODE
 0001:00000330 0006c8c7H .text$mn                CODE
 0001:0006cc00 00005c29H .text$x                 CODE
 0001:00072830 0000004cH .text$yd                CODE
 0002:00000000 00000130H .idata$5                DATA
 0002:00000130 00000004H .00cfg                  DATA
 0002:00000134 00000004H .CRT$XCA                DATA
 0002:00000138 0000000cH .CRT$XCC                DATA
 0002:00000144 00000008H .CRT$XCL                DATA
 0002:0000014c 00000018H .CRT$XCU                DATA
 0002:00000164 00000004H .CRT$XCZ                DATA
 0002:00000168 00000004H .CRT$XIA                DATA
 0002:0000016c 00000018H .CRT$XIC                DATA
 0002:00000184 00000004H .CRT$XIZ                DATA
 0002:00000188 00000004H .CRT$XLA                DATA
 0002:0000018c 00000004H .CRT$XLZ                DATA
 0002:00000190 00000004H .CRT$XPA                DATA
 0002:00000194 00000008H .CRT$XPX                DATA
 0002:0000019c 00000004H .CRT$XPXA               DATA
 0002:000001a0 00000004H .CRT$XPZ                DATA
 0002:000001a4 00000004H .CRT$XTA                DATA
 0002:000001a8 00000004H .CRT$XTZ                DATA
 0002:000001ac 00000000H .gfids$x                DATA
 0002:000001b0 0000f034H .rdata                  DATA
 0002:0000f1e4 00000018H .rdata$T                DATA
 0002:0000f1fc 0000129cH .rdata$r                DATA
 0002:000104a0 000004f0H .rdata$sxdata           DATA
 0002:00010990 00000010H .rdata$zETW0            DATA
 0002:000109a0 00000077H .rdata$zETW1            DATA
 0002:00010a17 0000002cH .rdata$zETW2            DATA
 0002:00010a43 00000001H .rdata$zETW9            DATA
 0002:00010a44 000004d8H .rdata$zzzdbg           DATA
 0002:00010f1c 00000004H .rtc$IAA                DATA
 0002:00010f20 00000004H .rtc$IZZ                DATA
 0002:00010f24 00000004H .rtc$TAA                DATA
 0002:00010f28 00000004H .rtc$TZZ                DATA
 0002:00010f30 0000644cH .xdata$x                DATA
 0002:0001737c 00000020H .didat$2                DATA
 0002:0001739c 00000020H .didat$3                DATA
 0002:000173bc 00000184H .didat$4                DATA
 0002:00017540 000018ccH .didat$6                DATA
 0002:00018e0c 00000184H .didat$7                DATA
 0002:00018f90 000044bcH .edata                  DATA
 0002:0001d44c 00000028H .idata$2                DATA
 0002:0001d474 00000014H .idata$3                DATA
 0002:0001d488 00000130H .idata$4                DATA
 0002:0001d5b8 0000057aH .idata$6                DATA
 0003:00000000 00000ab8H .data                   DATA
 0003:00000ab8 00000c0dH .data$r                 DATA
 0003:000016c8 00000184H .didat$5                DATA
 0003:00001850 00000e6cH .bss                    DATA
 0004:00000000 00000001H .tls                    DATA
 0004:00000004 00000004H .tls$                   DATA
 0004:00000008 00000001H .tls$ZZZ                DATA
 0005:00000000 00000058H .rsrc$01                DATA
 0005:00000060 00000180H .rsrc$02                DATA

  Address         Publics by Value              Rva+Base       Lib:Object

 0000:00000000       __except_list              00000000     <absolute>
 0000:00000000       ___guard_fids_count        00000000     <absolute>
 0000:00000000       ___guard_fids_table        00000000     <absolute>
 0000:0000002c       __tls_array                0000002c     <absolute>
 0000:00000100       ___guard_flags             00000100     <absolute>
 0000:0000013c       ___safe_se_handler_count   0000013c     <absolute>
 0000:00000000       ___ImageBase               10000000     <linker-defined>
 0001:00000000       ?TraceLoggingRegister@__vcrt_trace_logging_provider@@YAJPBU_TlgProvider_t@1@PBU_GUID@@P6GX1KE_K2PAU_EVENT_FILTER_DESCRIPTOR@@PAX@Z4@Z 10001000 f i libvcruntime:telemetry.obj
 0001:0000005d       ?TraceLoggingSetInformation@__vcrt_trace_logging_provider@@YAJPBU_TlgProvider_t@1@W4_EVENT_INFO_CLASS@@PAXK@Z 1000105d f i libvcruntime:telemetry.obj
 0001:00000088       ?TraceLoggingUnregister@__vcrt_trace_logging_provider@@YAXPBU_TlgProvider_t@1@@Z 10001088 f i libvcruntime:telemetry.obj
 0001:000000a7       ?_TlgCreateSz@__vcrt_trace_logging_provider@@YAXPAU_EVENT_DATA_DESCRIPTOR@@PBD@Z 100010a7 f i libvcruntime:telemetry.obj
 0001:000000df       ?_TlgCreateWsz@__vcrt_trace_logging_provider@@YAXPAU_EVENT_DATA_DESCRIPTOR@@PB_W@Z 100010df f i libvcruntime:telemetry.obj
 0001:00000123       ?_TlgEnableCallback@__vcrt_trace_logging_provider@@YGXPBU_GUID@@KE_K1PAU_EVENT_FILTER_DESCRIPTOR@@PAX@Z 10001123 f i libvcruntime:telemetry.obj
 0001:0000019b       ?_TlgKeywordOn@__vcrt_trace_logging_provider@@YAEPBU_TlgProvider_t@1@_K@Z 1000119b f i libvcruntime:telemetry.obj
 0001:000001d7       ?_TlgWrite@__vcrt_trace_logging_provider@@YAJPBU_TlgProvider_t@1@PBXPBU_GUID@@2IPAU_EVENT_DATA_DESCRIPTOR@@@Z 100011d7 f i libvcruntime:telemetry.obj
 0001:00000330       ??DValue@String@v8@@QBEPBGXZ 10001330 f i init.obj
 0001:00000330       ?object_type@HeapObjectStatistics@v8@@QAEPBDXZ 10001330 f i init.obj
 0001:00000330       ?space_name@HeapSpaceStatistics@v8@@QAEPBDXZ 10001330 f i init.obj
 0001:00000330       ?Data@Contents@SharedArrayBuffer@v8@@QBEPAXXZ 10001330 f i init.obj
 0001:00000330       ?GetIsolate@HandleScope@v8@@QBEPAVIsolate@2@XZ 10001330 f i init.obj
 0001:00000330       ?Data@Contents@ArrayBuffer@v8@@QBEPAXXZ 10001330 f i init.obj
 0001:00000330       ?impl@StreamedSource@ScriptCompiler@v8@@QBEPAU1internal@3@XZ 10001330 f i init.obj
 0001:00000330       ?total_heap_size@HeapStatistics@v8@@QAEIXZ 10001330 f i init.obj
 0001:00000330       ??DValue@String@v8@@QAEPAGXZ 10001330 f i init.obj
 0001:00000330       ?max_semi_space_size@ResourceConstraints@v8@@QBEHXZ 10001330 f i init.obj
 0001:00000330       ??DUtf8Value@String@v8@@QAEPADXZ 10001330 f i init.obj
 0001:00000330       ??DUtf8Value@String@v8@@QBEPBDXZ 10001330 f i init.obj
 0001:00000340       ??0HandleScope@v8@@IAE@XZ  10001340 f i init.obj
 0001:00000350       ??1EscapableHandleScope@v8@@QAE@XZ 10001350 f i init.obj
 0001:00000360       ??4StackFrame@v8@@QAEAAV01@$$QAV01@@Z 10001360 f i init.obj
 0001:00000360       ??4Value@v8@@QAEAAV01@$$QAV01@@Z 10001360 f i init.obj
 0001:00000360       ??4TypeSwitch@v8@@QAEAAV01@$$QAV01@@Z 10001360 f i init.obj
 0001:00000360       ??4Number@v8@@QAEAAV01@ABV01@@Z 10001360 f i init.obj
 0001:00000360       ??4String@v8@@QAEAAV01@ABV01@@Z 10001360 f i init.obj
 0001:00000360       ??4ExternalResourceVisitor@v8@@QAEAAV01@ABV01@@Z 10001360 f i init.obj
 0001:00000360       ??4Integer@v8@@QAEAAV01@ABV01@@Z 10001360 f i init.obj
 0001:00000360       ??4ArrayBuffer@v8@@QAEAAV01@$$QAV01@@Z 10001360 f i init.obj
 0001:00000360       ??4Int32Array@v8@@QAEAAV01@$$QAV01@@Z 10001360 f i init.obj
 0001:00000360       ??4Float64Array@v8@@QAEAAV01@$$QAV01@@Z 10001360 f i init.obj
 0001:00000360       ??4Uint32@v8@@QAEAAV01@ABV01@@Z 10001360 f i init.obj
 0001:00000360       ??4String@v8@@QAEAAV01@$$QAV01@@Z 10001360 f i init.obj
 0001:00000360       ??4Context@v8@@QAEAAV01@$$QAV01@@Z 10001360 f i init.obj
 0001:00000360       ??4SharedArrayBuffer@v8@@QAEAAV01@ABV01@@Z 10001360 f i init.obj
 0001:00000360       ??4UnboundScript@v8@@QAEAAV01@$$QAV01@@Z 10001360 f i init.obj
 0001:00000360       ??4NumberObject@v8@@QAEAAV01@ABV01@@Z 10001360 f i init.obj
 0001:00000360       ??4ScriptCompiler@v8@@QAEAAV01@ABV01@@Z 10001360 f i init.obj
 0001:00000360       ??4Resolver@Promise@v8@@QAEAAV012@$$QAV012@@Z 10001360 f i init.obj
 0001:00000360       ??4Function@v8@@QAEAAV01@ABV01@@Z 10001360 f i init.obj
 0001:00000360       ??4Map@v8@@QAEAAV01@$$QAV01@@Z 10001360 f i init.obj
 0001:00000360       ??4Value@v8@@QAEAAV01@ABV01@@Z 10001360 f i init.obj
 0001:00000360       ??4TypedArray@v8@@QAEAAV01@$$QAV01@@Z 10001360 f i init.obj
 0001:00000360       ??4ScriptCompiler@v8@@QAEAAV01@$$QAV01@@Z 10001360 f i init.obj
 0001:00000360       ??4Script@v8@@QAEAAV01@$$QAV01@@Z 10001360 f i init.obj
 0001:00000360       ??4ObjectTemplate@v8@@QAEAAV01@ABV01@@Z 10001360 f i init.obj
 0001:00000360       ??4Uint16Array@v8@@QAEAAV01@$$QAV01@@Z 10001360 f i init.obj
 0001:00000360       ??4Uint32@v8@@QAEAAV01@$$QAV01@@Z 10001360 f i init.obj
 0001:00000360       ??4StringObject@v8@@QAEAAV01@$$QAV01@@Z 10001360 f i init.obj
 0001:00000360       ??4Uint8Array@v8@@QAEAAV01@ABV01@@Z 10001360 f i init.obj
 0001:00000360       ??4Signature@v8@@QAEAAV01@$$QAV01@@Z 10001360 f i init.obj
 0001:00000360       ??4FunctionTemplate@v8@@QAEAAV01@ABV01@@Z 10001360 f i init.obj
 0001:00000360       ??4V8@v8@@QAEAAV01@ABV01@@Z 10001360 f i init.obj
 0001:00000360       ??4SymbolObject@v8@@QAEAAV01@$$QAV01@@Z 10001360 f i init.obj
 0001:00000360       ??4Message@v8@@QAEAAV01@$$QAV01@@Z 10001360 f i init.obj
 0001:00000360       ??4Symbol@v8@@QAEAAV01@ABV01@@Z 10001360 f i init.obj
 0001:00000360       ??4NativeWeakMap@v8@@QAEAAV01@$$QAV01@@Z 10001360 f i init.obj
 0001:00000360       ??4Primitive@v8@@QAEAAV01@$$QAV01@@Z 10001360 f i init.obj
 0001:00000360       ??4BooleanObject@v8@@QAEAAV01@$$QAV01@@Z 10001360 f i init.obj
 0001:00000360       ??4Uint8Array@v8@@QAEAAV01@$$QAV01@@Z 10001360 f i init.obj
 0001:00000360       ??4Object@v8@@QAEAAV01@$$QAV01@@Z 10001360 f i init.obj
 0001:00000360       ??4ArrayBufferView@v8@@QAEAAV01@ABV01@@Z 10001360 f i init.obj
 0001:00000360       ??4StackTrace@v8@@QAEAAV01@ABV01@@Z 10001360 f i init.obj
 0001:00000360       ??4ObjectTemplate@v8@@QAEAAV01@$$QAV01@@Z 10001360 f i init.obj
 0001:00000360       ??4SharedArrayBuffer@v8@@QAEAAV01@$$QAV01@@Z 10001360 f i init.obj
 0001:00000360       ??4External@v8@@QAEAAV01@$$QAV01@@Z 10001360 f i init.obj
 0001:00000360       ??4DataView@v8@@QAEAAV01@ABV01@@Z 10001360 f i init.obj
 0001:00000360       ??4Date@v8@@QAEAAV01@ABV01@@Z 10001360 f i init.obj
 0001:00000360       ??4ExternalSourceStream@ScriptCompiler@v8@@QAEAAV012@ABV012@@Z 10001360 f i init.obj
 0001:00000360       ??4StackTrace@v8@@QAEAAV01@$$QAV01@@Z 10001360 f i init.obj
 0001:00000360       ??4Boolean@v8@@QAEAAV01@$$QAV01@@Z 10001360 f i init.obj
 0001:00000360       ??4Promise@v8@@QAEAAV01@$$QAV01@@Z 10001360 f i init.obj
 0001:00000360       ??4Integer@v8@@QAEAAV01@$$QAV01@@Z 10001360 f i init.obj
 0001:00000360       ??4PersistentHandleVisitor@v8@@QAEAAV01@ABV01@@Z 10001360 f i init.obj
 0001:00000360       ??4Int32Array@v8@@QAEAAV01@ABV01@@Z 10001360 f i init.obj
 0001:00000360       ??4JSON@v8@@QAEAAV01@$$QAV01@@Z 10001360 f i init.obj
 0001:00000360       ??4ArrayBuffer@v8@@QAEAAV01@ABV01@@Z 10001360 f i init.obj
 0001:00000360       ??4Name@v8@@QAEAAV01@$$QAV01@@Z 10001360 f i init.obj
 0001:00000360       ??4AccessorSignature@v8@@QAEAAV01@$$QAV01@@Z 10001360 f i init.obj
 0001:00000360       ??4NumberObject@v8@@QAEAAV01@$$QAV01@@Z 10001360 f i init.obj
 0001:00000360       ??4StackFrame@v8@@QAEAAV01@ABV01@@Z 10001360 f i init.obj
 0001:00000360       ??4Primitive@v8@@QAEAAV01@ABV01@@Z 10001360 f i init.obj
 0001:00000360       ??4Array@v8@@QAEAAV01@ABV01@@Z 10001360 f i init.obj
 0001:00000360       ??4Name@v8@@QAEAAV01@ABV01@@Z 10001360 f i init.obj
 0001:00000360       ??4Uint32Array@v8@@QAEAAV01@$$QAV01@@Z 10001360 f i init.obj
 0001:00000360       ??4FunctionTemplate@v8@@QAEAAV01@$$QAV01@@Z 10001360 f i init.obj
 0001:00000360       ??4NativeWeakMap@v8@@QAEAAV01@ABV01@@Z 10001360 f i init.obj
 0001:00000360       ??4UnboundScript@v8@@QAEAAV01@ABV01@@Z 10001360 f i init.obj
 0001:00000360       ??4StringObject@v8@@QAEAAV01@ABV01@@Z 10001360 f i init.obj
 0001:00000360       ??4Signature@v8@@QAEAAV01@ABV01@@Z 10001360 f i init.obj
 0001:00000360       ??4Float64Array@v8@@QAEAAV01@ABV01@@Z 10001360 f i init.obj
 0001:00000360       ??4SymbolObject@v8@@QAEAAV01@ABV01@@Z 10001360 f i init.obj
 0001:00000360       ??4AccessorSignature@v8@@QAEAAV01@ABV01@@Z 10001360 f i init.obj
 0001:00000360       ??4Float32Array@v8@@QAEAAV01@ABV01@@Z 10001360 f i init.obj
 0001:00000360       ??4Int8Array@v8@@QAEAAV01@$$QAV01@@Z 10001360 f i init.obj
 0001:00000360       ??4Allocator@ArrayBuffer@v8@@QAEAAV012@ABV012@@Z 10001360 f i init.obj
 0001:00000360       ??4Number@v8@@QAEAAV01@$$QAV01@@Z 10001360 f i init.obj
 0001:00000360       ??4RegExp@v8@@QAEAAV01@$$QAV01@@Z 10001360 f i init.obj
 0001:00000360       ??4Uint8ClampedArray@v8@@QAEAAV01@$$QAV01@@Z 10001360 f i init.obj
 0001:00000360       ??4Template@v8@@QAEAAV01@$$QAV01@@Z 10001360 f i init.obj
 0001:00000360       ??4Array@v8@@QAEAAV01@$$QAV01@@Z 10001360 f i init.obj
 0001:00000360       ??4Context@v8@@QAEAAV01@ABV01@@Z 10001360 f i init.obj
 0001:00000360       ??4DataView@v8@@QAEAAV01@$$QAV01@@Z 10001360 f i init.obj
 0001:00000360       ??4Date@v8@@QAEAAV01@$$QAV01@@Z 10001360 f i init.obj
 0001:00000360       ??4Uint8ClampedArray@v8@@QAEAAV01@ABV01@@Z 10001360 f i init.obj
 0001:00000360       ??4BooleanObject@v8@@QAEAAV01@ABV01@@Z 10001360 f i init.obj
 0001:00000360       ??4RegExp@v8@@QAEAAV01@ABV01@@Z 10001360 f i init.obj
 0001:00000360       ??4Object@v8@@QAEAAV01@ABV01@@Z 10001360 f i init.obj
 0001:00000360       ??4JSON@v8@@QAEAAV01@ABV01@@Z 10001360 f i init.obj
 0001:00000360       ??4Int32@v8@@QAEAAV01@$$QAV01@@Z 10001360 f i init.obj
 0001:00000360       ??4Float32Array@v8@@QAEAAV01@$$QAV01@@Z 10001360 f i init.obj
 0001:00000360       ??4TypedArray@v8@@QAEAAV01@ABV01@@Z 10001360 f i init.obj
 0001:00000360       ??4TypeSwitch@v8@@QAEAAV01@ABV01@@Z 10001360 f i init.obj
 0001:00000360       ??4Int32@v8@@QAEAAV01@ABV01@@Z 10001360 f i init.obj
 0001:00000360       ??4Data@v8@@QAEAAV01@$$QAV01@@Z 10001360 f i init.obj
 0001:00000360       ??4External@v8@@QAEAAV01@ABV01@@Z 10001360 f i init.obj
 0001:00000360       ??4Symbol@v8@@QAEAAV01@$$QAV01@@Z 10001360 f i init.obj
 0001:00000360       ??4Script@v8@@QAEAAV01@ABV01@@Z 10001360 f i init.obj
 0001:00000360       ??4Map@v8@@QAEAAV01@ABV01@@Z 10001360 f i init.obj
 0001:00000360       ??4Set@v8@@QAEAAV01@$$QAV01@@Z 10001360 f i init.obj
 0001:00000360       ??4Function@v8@@QAEAAV01@$$QAV01@@Z 10001360 f i init.obj
 0001:00000360       ??4Int8Array@v8@@QAEAAV01@ABV01@@Z 10001360 f i init.obj
 0001:00000360       ??4Resolver@Promise@v8@@QAEAAV012@ABV012@@Z 10001360 f i init.obj
 0001:00000360       ??4Set@v8@@QAEAAV01@ABV01@@Z 10001360 f i init.obj
 0001:00000360       ??4Int16Array@v8@@QAEAAV01@ABV01@@Z 10001360 f i init.obj
 0001:00000360       ??4Data@v8@@QAEAAV01@ABV01@@Z 10001360 f i init.obj
 0001:00000360       ??4ArrayBufferView@v8@@QAEAAV01@$$QAV01@@Z 10001360 f i init.obj
 0001:00000360       ??4Exception@v8@@QAEAAV01@$$QAV01@@Z 10001360 f i init.obj
 0001:00000360       ??4V8@v8@@QAEAAV01@$$QAV01@@Z 10001360 f i init.obj
 0001:00000360       ??4Exception@v8@@QAEAAV01@ABV01@@Z 10001360 f i init.obj
 0001:00000360       ??4Uint16Array@v8@@QAEAAV01@ABV01@@Z 10001360 f i init.obj
 0001:00000360       ??4Int16Array@v8@@QAEAAV01@$$QAV01@@Z 10001360 f i init.obj
 0001:00000360       ??4Message@v8@@QAEAAV01@ABV01@@Z 10001360 f i init.obj
 0001:00000360       ??4Uint32Array@v8@@QAEAAV01@ABV01@@Z 10001360 f i init.obj
 0001:00000360       ??4Boolean@v8@@QAEAAV01@ABV01@@Z 10001360 f i init.obj
 0001:00000360       ??4Template@v8@@QAEAAV01@ABV01@@Z 10001360 f i init.obj
 0001:00000360       ??4Promise@v8@@QAEAAV01@ABV01@@Z 10001360 f i init.obj
 0001:00000370       ??0CachedData@ScriptCompiler@v8@@QAE@XZ 10001370 f i init.obj
 0001:00000390       ??1ExternalSourceStream@ScriptCompiler@v8@@UAE@XZ 10001390 f i init.obj
 0001:000003a0       ??0ExternalSourceStream@ScriptCompiler@v8@@QAE@XZ 100013a0 f i init.obj
 0001:000003b0       ??0ExternalSourceStream@ScriptCompiler@v8@@QAE@ABV012@@Z 100013b0 f i init.obj
 0001:000003c0       ??_EExternalSourceStream@ScriptCompiler@v8@@UAEPAXI@Z 100013c0 f i init.obj
 0001:00000430       ??1ExternalStringResource@String@v8@@UAE@XZ 10001430 f i init.obj
 0001:00000430       ??1ExternalStringResourceBase@String@v8@@UAE@XZ 10001430 f i init.obj
 0001:00000430       ??1ExternalOneByteStringResource@String@v8@@UAE@XZ 10001430 f i init.obj
 0001:00000430       ??1ExternalOneByteStringResourceImpl@v8@@UAE@XZ 10001430 f i init.obj
 0001:00000440       ??0ExternalStringResourceBase@String@v8@@IAE@XZ 10001440 f i init.obj
 0001:00000450       ?Dispose@ExternalStringResourceBase@String@v8@@MAEXXZ 10001450 f i init.obj
 0001:00000460       ??0ExternalStringResource@String@v8@@IAE@XZ 10001460 f i init.obj
 0001:00000460       ??0ExternalOneByteStringResource@String@v8@@IAE@XZ 10001460 f i init.obj
 0001:00000470       ?object_sub_type@HeapObjectStatistics@v8@@QAEPBDXZ 10001470 f i init.obj
 0001:00000470       ?begin@ExtensionConfiguration@v8@@QBEPAPBDXZ 10001470 f i init.obj
 0001:00000470       ?data@ExternalOneByteStringResourceImpl@v8@@UBEPBDXZ 10001470 f i init.obj
 0001:00000470       ?space_size@HeapSpaceStatistics@v8@@QAEIXZ 10001470 f i init.obj
 0001:00000470       ?length@Utf8Value@String@v8@@QBEHXZ 10001470 f i init.obj
 0001:00000470       ?total_heap_size_executable@HeapStatistics@v8@@QAEIXZ 10001470 f i init.obj
 0001:00000470       ?max_old_space_size@ResourceConstraints@v8@@QBEHXZ 10001470 f i init.obj
 0001:00000470       ?length@Value@String@v8@@QBEHXZ 10001470 f i init.obj
 0001:00000470       ?ByteLength@Contents@SharedArrayBuffer@v8@@QBEIXZ 10001470 f i init.obj
 0001:00000470       ?ByteLength@Contents@ArrayBuffer@v8@@QBEIXZ 10001470 f i init.obj
 0001:00000470       ?name@Extension@v8@@QBEPBDXZ 10001470 f i init.obj
 0001:00000480       ?InternalFieldCount@Object@v8@@SAHABV?$PersistentBase@VObject@v8@@@2@@Z 10001480 f i init.obj
 0001:00000490       ?GetAlignedPointerFromInternalField@Object@v8@@SAPAXABV?$PersistentBase@VObject@v8@@@2@H@Z 10001490 f i init.obj
 0001:000004c0       ?NewInstance@Function@v8@@QBE?AV?$MaybeLocal@VObject@v8@@@2@V?$Local@VContext@v8@@@2@@Z 100014c0 f i init.obj
 0001:000004e0       ??1Allocator@ArrayBuffer@v8@@UAE@XZ 100014e0 f i init.obj
 0001:000004f0       ??0Contents@SharedArrayBuffer@v8@@QAE@XZ 100014f0 f i init.obj
 0001:000004f0       ??0ExtensionConfiguration@v8@@QAE@XZ 100014f0 f i init.obj
 0001:000004f0       ??0Contents@ArrayBuffer@v8@@QAE@XZ 100014f0 f i init.obj
 0001:00000500       ?SetIndexedPropertyHandler@ObjectTemplate@v8@@QAEXP6AXIABV?$PropertyCallbackInfo@VValue@v8@@@2@@ZP6AXIV?$Local@VValue@v8@@@2@0@ZP6AXIABV?$PropertyCallbackInfo@VInteger@v8@@@2@@ZP6AXIABV?$PropertyCallbackInfo@VBoolean@v8@@@2@@ZP6AXABV?$PropertyCallbackInfo@VArray@v8@@@2@@Z2@Z 10001500 f i init.obj
 0001:00000550       ??0ExternalOneByteStringResourceImpl@v8@@QAE@XZ 10001550 f i init.obj
 0001:00000570       ??0ExternalOneByteStringResourceImpl@v8@@QAE@PBDI@Z 10001570 f i init.obj
 0001:00000590       ?object_count@HeapObjectStatistics@v8@@QAEIXZ 10001590 f i init.obj
 0001:00000590       ?total_physical_size@HeapStatistics@v8@@QAEIXZ 10001590 f i init.obj
 0001:00000590       ?GetCachedSize@DynamicMessage@protobuf@google@@UBEHXZ 10001590 f i libprotobuf:dynamic_message.obj
 0001:00000590       ?length@ExternalOneByteStringResourceImpl@v8@@UBEIXZ 10001590 f i init.obj
 0001:00000590       ?max_executable_size@ResourceConstraints@v8@@QBEHXZ 10001590 f i init.obj
 0001:00000590       ?source_length@Extension@v8@@QBEIXZ 10001590 f i init.obj
 0001:00000590       ?space_used_size@HeapSpaceStatistics@v8@@QAEIXZ 10001590 f i init.obj
 0001:000005a0       ??1Extension@v8@@UAE@XZ    100015a0 f i init.obj
 0001:000005b0       ?GetNativeFunctionTemplate@Extension@v8@@UAE?AV?$Local@VFunctionTemplate@v8@@@2@PAVIsolate@2@V?$Local@VString@v8@@@2@@Z 100015b0 f i init.obj
 0001:000005c0       ?source@Extension@v8@@QBEPBVExternalOneByteStringResource@String@2@XZ 100015c0 f i init.obj
 0001:000005d0       ?dependency_count@Extension@v8@@QAEHXZ 100015d0 f i init.obj
 0001:000005e0       ?dependencies@Extension@v8@@QAEPAPBDXZ 100015e0 f i init.obj
 0001:000005f0       ?set_auto_enable@Extension@v8@@QAEX_N@Z 100015f0 f i init.obj
 0001:00000600       ?auto_enable@Extension@v8@@QAE_NXZ 10001600 f i init.obj
 0001:00000610       ?set_max_semi_space_size@ResourceConstraints@v8@@QAEXH@Z 10001610 f i init.obj
 0001:00000620       ?set_max_old_space_size@ResourceConstraints@v8@@QAEXH@Z 10001620 f i init.obj
 0001:00000630       ?set_max_executable_size@ResourceConstraints@v8@@QAEXH@Z 10001630 f i init.obj
 0001:00000640       ?GetCachedSize@DescriptorProto_ExtensionRange@protobuf@google@@UBEHXZ 10001640 f i libprotobuf:descriptor.pb.obj
 0001:00000640       ?GetCachedSize@OneofDescriptorProto@protobuf@google@@UBEHXZ 10001640 f i libprotobuf:descriptor.pb.obj
 0001:00000640       ?GetCachedSize@FieldDescriptorProto@protobuf@google@@UBEHXZ 10001640 f i libprotobuf:descriptor.pb.obj
 0001:00000640       ?GetCachedSize@DescriptorProto@protobuf@google@@UBEHXZ 10001640 f i libprotobuf:descriptor.pb.obj
 0001:00000640       ?space_available_size@HeapSpaceStatistics@v8@@QAEIXZ 10001640 f i init.obj
 0001:00000640       ?object_size@HeapObjectStatistics@v8@@QAEIXZ 10001640 f i init.obj
 0001:00000640       ?GetCachedSize@SourceCodeInfo@protobuf@google@@UBEHXZ 10001640 f i libprotobuf:descriptor.pb.obj
 0001:00000640       ?GetCachedSize@SourceCodeInfo_Location@protobuf@google@@UBEHXZ 10001640 f i libprotobuf:descriptor.pb.obj
 0001:00000640       ?GetCachedSize@UninterpretedOption@protobuf@google@@UBEHXZ 10001640 f i libprotobuf:descriptor.pb.obj
 0001:00000640       ?GetCachedSize@UninterpretedOption_NamePart@protobuf@google@@UBEHXZ 10001640 f i libprotobuf:descriptor.pb.obj
 0001:00000640       ?total_available_size@HeapStatistics@v8@@QAEIXZ 10001640 f i init.obj
 0001:00000640       ?GetCachedSize@ServiceDescriptorProto@protobuf@google@@UBEHXZ 10001640 f i libprotobuf:descriptor.pb.obj
 0001:00000640       ?GetCachedSize@FileDescriptorSet@protobuf@google@@UBEHXZ 10001640 f i libprotobuf:descriptor.pb.obj
 0001:00000640       ?GetCachedSize@MethodDescriptorProto@protobuf@google@@UBEHXZ 10001640 f i libprotobuf:descriptor.pb.obj
 0001:00000640       ?GetCachedSize@EnumValueDescriptorProto@protobuf@google@@UBEHXZ 10001640 f i libprotobuf:descriptor.pb.obj
 0001:00000640       ?GetCachedSize@EnumDescriptorProto@protobuf@google@@UBEHXZ 10001640 f i libprotobuf:descriptor.pb.obj
 0001:00000640       ?stack_limit@ResourceConstraints@v8@@QBEPAIXZ 10001640 f i init.obj
 0001:00000640       ?GetCachedSize@FileDescriptorProto@protobuf@google@@UBEHXZ 10001640 f i libprotobuf:descriptor.pb.obj
 0001:00000650       ?set_stack_limit@ResourceConstraints@v8@@QAEXPAI@Z 10001650 f i init.obj
 0001:00000660       ?physical_space_size@HeapSpaceStatistics@v8@@QAEIXZ 10001660 f i init.obj
 0001:00000660       ?code_range_size@ResourceConstraints@v8@@QBEIXZ 10001660 f i init.obj
 0001:00000660       ?used_heap_size@HeapStatistics@v8@@QAEIXZ 10001660 f i init.obj
 0001:00000670       ?set_code_range_size@ResourceConstraints@v8@@QAEXI@Z 10001670 f i init.obj
 0001:00000680       ?GetCachedSize@MessageOptions@protobuf@google@@UBEHXZ 10001680 f i libprotobuf:descriptor.pb.obj
 0001:00000680       ?heap_size_limit@HeapStatistics@v8@@QAEIXZ 10001680 f i init.obj
 0001:00000680       ?GetCachedSize@ServiceOptions@protobuf@google@@UBEHXZ 10001680 f i libprotobuf:descriptor.pb.obj
 0001:00000680       ?GetCachedSize@FieldOptions@protobuf@google@@UBEHXZ 10001680 f i libprotobuf:descriptor.pb.obj
 0001:00000680       ?GetCachedSize@EnumValueOptions@protobuf@google@@UBEHXZ 10001680 f i libprotobuf:descriptor.pb.obj
 0001:00000680       ?GetCachedSize@MethodOptions@protobuf@google@@UBEHXZ 10001680 f i libprotobuf:descriptor.pb.obj
 0001:00000680       ?GetCachedSize@EnumOptions@protobuf@google@@UBEHXZ 10001680 f i libprotobuf:descriptor.pb.obj
 0001:00000680       ?GetCachedSize@FileOptions@protobuf@google@@UBEHXZ 10001680 f i libprotobuf:descriptor.pb.obj
 0001:00000690       ??1ExternalResourceVisitor@v8@@UAE@XZ 10001690 f i init.obj
 0001:000006a0       ?VisitExternalString@ExternalResourceVisitor@v8@@UAEXV?$Local@VString@v8@@@2@@Z 100016a0 f i init.obj
 0001:000006b0       ??1PersistentHandleVisitor@v8@@UAE@XZ 100016b0 f i init.obj
 0001:000006c0       ?SkipUnknownEnum@FieldSkipper@internal@protobuf@google@@UAEXHH@Z 100016c0 f i libprotobuf:wire_format_lite.obj
 0001:000006c0       ?ClearOneof@Reflection@protobuf@google@@UBEXPAVMessage@23@PBVOneofDescriptor@23@@Z 100016c0 f i libprotobuf:message.obj
 0001:000006c0       ?VisitPersistentHandle@PersistentHandleVisitor@v8@@UAEXPAV?$Persistent@VValue@v8@@V?$NonCopyablePersistentTraits@VValue@v8@@@2@@2@G@Z 100016c0 f i init.obj
 0001:000006d0       ??0Scope@Isolate@v8@@QAE@PAV12@@Z 100016d0 f i init.obj
 0001:000006f0       ??1Scope@Isolate@v8@@QAE@XZ 100016f0 f i init.obj
 0001:00000700       ?JSStackComparableAddress@TryCatch@v8@@SAPAXPAV12@@Z 10001700 f i init.obj
 0001:00000710       ??0ExtensionConfiguration@v8@@QAE@HQAPBD@Z 10001710 f i init.obj
 0001:00000730       ?end@ExtensionConfiguration@v8@@QBEPAPBDXZ 10001730 f i init.obj
 0001:00000740       ??0Unlocker@v8@@QAE@PAVIsolate@1@@Z 10001740 f i init.obj
 0001:00000760       ??0Locker@v8@@QAE@PAVIsolate@1@@Z 10001760 f i init.obj
 0001:00000780       ?New@Boolean@v8@@SA?AV?$Local@VBoolean@v8@@@2@PAVIsolate@2@_N@Z 10001780 f i init.obj
 0001:000007a0       ?Set@Template@v8@@QAEXPAVIsolate@2@PBDV?$Local@VData@v8@@@2@@Z 100017a0 f i init.obj
 0001:000007f0       ?GetInternalField@Object@v8@@QAE?AV?$Local@VValue@v8@@@2@H@Z 100017f0 f i init.obj
 0001:00000830       ?GetAlignedPointerFromInternalField@Object@v8@@QAEPAXH@Z 10001830 f i init.obj
 0001:00000850       ?Cast@ArrayBufferView@v8@@SAPAV12@PAVValue@2@@Z 10001850 f i init.obj
 0001:00000850       ?Cast@Float64Array@v8@@SAPAV12@PAVValue@2@@Z 10001850 f i init.obj
 0001:00000850       ?Cast@Uint32@v8@@SAPAV12@PAVValue@2@@Z 10001850 f i init.obj
 0001:00000850       ?Cast@ArrayBuffer@v8@@SAPAV12@PAVValue@2@@Z 10001850 f i init.obj
 0001:00000850       ?Cast@Resolver@Promise@v8@@SAPAV123@PAVValue@3@@Z 10001850 f i init.obj
 0001:00000850       ?Cast@Uint32Array@v8@@SAPAV12@PAVValue@2@@Z 10001850 f i init.obj
 0001:00000850       ?Cast@SymbolObject@v8@@SAPAV12@PAVValue@2@@Z 10001850 f i init.obj
 0001:00000850       ?Cast@Map@v8@@SAPAV12@PAVValue@2@@Z 10001850 f i init.obj
 0001:00000850       ?Cast@Array@v8@@SAPAV12@PAVValue@2@@Z 10001850 f i init.obj
 0001:00000850       ?Cast@SharedArrayBuffer@v8@@SAPAV12@PAVValue@2@@Z 10001850 f i init.obj
 0001:00000850       ?Cast@Int16Array@v8@@SAPAV12@PAVValue@2@@Z 10001850 f i init.obj
 0001:00000850       ?Cast@Uint16Array@v8@@SAPAV12@PAVValue@2@@Z 10001850 f i init.obj
 0001:00000850       ?Cast@Promise@v8@@SAPAV12@PAVValue@2@@Z 10001850 f i init.obj
 0001:00000850       ?Cast@Function@v8@@SAPAV12@PAVValue@2@@Z 10001850 f i init.obj
 0001:00000850       ?Cast@NumberObject@v8@@SAPAV12@PAVValue@2@@Z 10001850 f i init.obj
 0001:00000850       ?Cast@RegExp@v8@@SAPAV12@PAVValue@2@@Z 10001850 f i init.obj
 0001:00000850       ?Cast@Boolean@v8@@SAPAV12@PAVValue@2@@Z 10001850 f i init.obj
 0001:00000850       ?Cast@Date@v8@@SAPAV12@PAVValue@2@@Z 10001850 f i init.obj
 0001:00000850       ?Cast@External@v8@@SAPAV12@PAVValue@2@@Z 10001850 f i init.obj
 0001:00000850       ?Cast@Int8Array@v8@@SAPAV12@PAVValue@2@@Z 10001850 f i init.obj
 0001:00000850       ?Cast@Object@v8@@SAPAV12@PAVValue@2@@Z 10001850 f i init.obj
 0001:00000850       ?Cast@String@v8@@SAPAV12@PAVValue@2@@Z 10001850 f i init.obj
 0001:00000850       ?Cast@Name@v8@@SAPAV12@PAVValue@2@@Z 10001850 f i init.obj
 0001:00000850       ?Cast@Float32Array@v8@@SAPAV12@PAVValue@2@@Z 10001850 f i init.obj
 0001:00000850       ?Cast@Uint8ClampedArray@v8@@SAPAV12@PAVValue@2@@Z 10001850 f i init.obj
 0001:00000850       ?Cast@Set@v8@@SAPAV12@PAVValue@2@@Z 10001850 f i init.obj
 0001:00000850       ?Cast@Int32@v8@@SAPAV12@PAVValue@2@@Z 10001850 f i init.obj
 0001:00000850       ?Cast@Symbol@v8@@SAPAV12@PAVValue@2@@Z 10001850 f i init.obj
 0001:00000850       ?Cast@Number@v8@@SAPAV12@PAVValue@2@@Z 10001850 f i init.obj
 0001:00000850       ?Cast@Integer@v8@@SAPAV12@PAVValue@2@@Z 10001850 f i init.obj
 0001:00000850       ?Cast@BooleanObject@v8@@SAPAV12@PAVValue@2@@Z 10001850 f i init.obj
 0001:00000850       ?Cast@DataView@v8@@SAPAV12@PAVValue@2@@Z 10001850 f i init.obj
 0001:00000850       ?Cast@Int32Array@v8@@SAPAV12@PAVValue@2@@Z 10001850 f i init.obj
 0001:00000850       ?Cast@StringObject@v8@@SAPAV12@PAVValue@2@@Z 10001850 f i init.obj
 0001:00000850       ?Cast@Uint8Array@v8@@SAPAV12@PAVValue@2@@Z 10001850 f i init.obj
 0001:00000850       ?Cast@TypedArray@v8@@SAPAV12@PAVValue@2@@Z 10001850 f i init.obj
 0001:00000860       ?Empty@String@v8@@SA?AV?$Local@VString@v8@@@2@PAVIsolate@2@@Z 10001860 f i init.obj
 0001:00000870       ?GetExternalStringResource@String@v8@@QBEPAVExternalStringResource@12@XZ 10001870 f i init.obj
 0001:00000890       ?GetExternalStringResourceBase@String@v8@@QBEPAVExternalStringResourceBase@12@PAW4Encoding@12@@Z 10001890 f i init.obj
 0001:000008c0       ?IsUndefined@Value@v8@@QBE_NXZ 100018c0 f i init.obj
 0001:000008f0       ?QuickIsUndefined@Value@v8@@ABE_NXZ 100018f0 f i init.obj
 0001:00000920       ?IsNull@Value@v8@@QBE_NXZ  10001920 f i init.obj
 0001:00000950       ?QuickIsNull@Value@v8@@ABE_NXZ 10001950 f i init.obj
 0001:00000980       ?IsString@Value@v8@@QBE_NXZ 10001980 f i init.obj
 0001:000009b0       ?QuickIsString@Value@v8@@ABE_NXZ 100019b0 f i init.obj
 0001:000009e0       ?ToBoolean@Value@v8@@QBE?AV?$Local@VBoolean@v8@@@2@XZ 100019e0 f i init.obj
 0001:00000a20       ?ToNumber@Value@v8@@QBE?AV?$Local@VNumber@v8@@@2@XZ 10001a20 f i init.obj
 0001:00000a60       ?ToString@Value@v8@@QBE?AV?$Local@VString@v8@@@2@XZ 10001a60 f i init.obj
 0001:00000aa0       ?ToDetailString@Value@v8@@QBE?AV?$Local@VString@v8@@@2@XZ 10001aa0 f i init.obj
 0001:00000ae0       ?ToObject@Value@v8@@QBE?AV?$Local@VObject@v8@@@2@XZ 10001ae0 f i init.obj
 0001:00000b20       ?ToInteger@Value@v8@@QBE?AV?$Local@VInteger@v8@@@2@XZ 10001b20 f i init.obj
 0001:00000b60       ?ToUint32@Value@v8@@QBE?AV?$Local@VUint32@v8@@@2@XZ 10001b60 f i init.obj
 0001:00000ba0       ?ToInt32@Value@v8@@QBE?AV?$Local@VInt32@v8@@@2@XZ 10001ba0 f i init.obj
 0001:00000be0       ?SetData@Isolate@v8@@QAEXIPAX@Z 10001be0 f i init.obj
 0001:00000bf0       ?GetData@Isolate@v8@@QAEPAXI@Z 10001bf0 f i init.obj
 0001:00000c00       ?GetNumberOfDataSlots@Isolate@v8@@SAIXZ 10001c00 f i init.obj
 0001:00000c10       ?AdjustAmountOfExternalAllocatedMemory@Isolate@v8@@QAE_J_J@Z 10001c10 f i init.obj
 0001:00000c70       ?GetEmbedderData@Context@v8@@QAE?AV?$Local@VValue@v8@@@2@H@Z 10001c70 f i init.obj
 0001:00000ca0       ?GetAlignedPointerFromEmbedderData@Context@v8@@QAEPAXH@Z 10001ca0 f i init.obj
 0001:00000cb0       ?SetAllowCodeGenerationFromStringsCallback@V8@v8@@SAXP6A_NV?$Local@VContext@v8@@@2@@Z@Z 10001cb0 f i init.obj
 0001:00000cd0       ?IsDead@V8@v8@@SA_NXZ      10001cd0 f i init.obj
 0001:00000ce0       ?AddMessageListener@V8@v8@@SA_NP6AXV?$Local@VMessage@v8@@@2@V?$Local@VValue@v8@@@2@@Z1@Z 10001ce0 f i init.obj
 0001:00000d00       ?RemoveMessageListeners@V8@v8@@SAXP6AXV?$Local@VMessage@v8@@@2@V?$Local@VValue@v8@@@2@@Z@Z 10001d00 f i init.obj
 0001:00000d20       ?SetFailedAccessCheckCallbackFunction@V8@v8@@SAXP6AXV?$Local@VObject@v8@@@2@W4AccessType@2@V?$Local@VValue@v8@@@2@@Z@Z 10001d20 f i init.obj
 0001:00000d40       ?SetCaptureStackTraceForUncaughtExceptions@V8@v8@@SAX_NHW4StackTraceOptions@StackTrace@2@@Z 10001d40 f i init.obj
 0001:00000d60       ?SetFatalErrorHandler@V8@v8@@SAXP6AXPBD0@Z@Z 10001d60 f i init.obj
 0001:00000d80       ?RemoveGCPrologueCallback@V8@v8@@SAXP6AXW4GCType@2@W4GCCallbackFlags@2@@Z@Z 10001d80 f i init.obj
 0001:00000da0       ?RemoveGCEpilogueCallback@V8@v8@@SAXP6AXW4GCType@2@W4GCCallbackFlags@2@@Z@Z 10001da0 f i init.obj
 0001:00000dc0       ?AddMemoryAllocationCallback@V8@v8@@SAXP6AXW4ObjectSpace@2@W4AllocationAction@2@H@Z01@Z 10001dc0 f i init.obj
 0001:00000de0       ?RemoveMemoryAllocationCallback@V8@v8@@SAXP6AXW4ObjectSpace@2@W4AllocationAction@2@H@Z@Z 10001de0 f i init.obj
 0001:00000e00       ?TerminateExecution@V8@v8@@SAXPAVIsolate@2@@Z 10001e00 f i init.obj
 0001:00000e10       ?IsExecutionTerminating@V8@v8@@SA_NPAVIsolate@2@@Z 10001e10 f i init.obj
 0001:00000e30       ?CancelTerminateExecution@V8@v8@@SAXPAVIsolate@2@@Z 10001e30 f i init.obj
 0001:00000e40       ?VisitExternalResources@V8@v8@@SAXPAVExternalResourceVisitor@2@@Z 10001e40 f i init.obj
 0001:00000e60       ?VisitHandlesWithClassIds@V8@v8@@SAXPAVPersistentHandleVisitor@2@@Z 10001e60 f i init.obj
 0001:00000e80       ?VisitHandlesWithClassIds@V8@v8@@SAXPAVIsolate@2@PAVPersistentHandleVisitor@2@@Z 10001e80 f i init.obj
 0001:00000e90       ?VisitHandlesForPartialDependence@V8@v8@@SAXPAVIsolate@2@PAVPersistentHandleVisitor@2@@Z 10001e90 f i init.obj
 0001:00000ea0       ??_EExternalStringResourceBase@String@v8@@UAEPAXI@Z 10001ea0 f i init.obj
 0001:00000ea0       ??_EExternalOneByteStringResource@String@v8@@UAEPAXI@Z 10001ea0 f i init.obj
 0001:00000ea0       ??_EExternalStringResource@String@v8@@UAEPAXI@Z 10001ea0 f i init.obj
 0001:00000f10       ??0Allocator@ArrayBuffer@v8@@QAE@XZ 10001f10 f i init.obj
 0001:00000f20       ??0Allocator@ArrayBuffer@v8@@QAE@ABV012@@Z 10001f20 f i init.obj
 0001:00000f30       ??_EAllocator@ArrayBuffer@v8@@UAEPAXI@Z 10001f30 f i init.obj
 0001:00000fa0       ??4StartupData@v8@@QAEAAV01@$$QAV01@@Z 10001fa0 f i init.obj
 0001:00000fa0       ??4StartupData@v8@@QAEAAV01@ABV01@@Z 10001fa0 f i init.obj
 0001:00000fa0       ??4Contents@SharedArrayBuffer@v8@@QAEAAV012@ABV012@@Z 10001fa0 f i init.obj
 0001:00000fa0       ??4Contents@ArrayBuffer@v8@@QAEAAV012@$$QAV012@@Z 10001fa0 f i init.obj
 0001:00000fa0       ??4Contents@SharedArrayBuffer@v8@@QAEAAV012@$$QAV012@@Z 10001fa0 f i init.obj
 0001:00000fa0       ??4Contents@ArrayBuffer@v8@@QAEAAV012@ABV012@@Z 10001fa0 f i init.obj
 0001:00000fc0       ??_EExternalOneByteStringResourceImpl@v8@@UAEPAXI@Z 10001fc0 f i init.obj
 0001:00001030       ??_EExtension@v8@@UAEPAXI@Z 10002030 f i init.obj
 0001:000010b0       ??4ResourceConstraints@v8@@QAEAAV01@ABV01@@Z 100020b0 f i init.obj
 0001:000010b0       ??4HeapSpaceStatistics@v8@@QAEAAV01@ABV01@@Z 100020b0 f i init.obj
 0001:000010d0       ??4HeapSpaceStatistics@v8@@QAEAAV01@$$QAV01@@Z 100020d0 f i init.obj
 0001:000010d0       ??4ResourceConstraints@v8@@QAEAAV01@$$QAV01@@Z 100020d0 f i init.obj
 0001:00001100       ??4HeapStatistics@v8@@QAEAAV01@ABV01@@Z 10002100 f i init.obj
 0001:00001120       ??4HeapStatistics@v8@@QAEAAV01@$$QAV01@@Z 10002120 f i init.obj
 0001:00001150       ??4HeapObjectStatistics@v8@@QAEAAV01@ABV01@@Z 10002150 f i init.obj
 0001:00001160       ??4HeapObjectStatistics@v8@@QAEAAV01@$$QAV01@@Z 10002160 f i init.obj
 0001:00001180       ??0ExternalResourceVisitor@v8@@QAE@XZ 10002180 f i init.obj
 0001:00001190       ??0ExternalResourceVisitor@v8@@QAE@ABV01@@Z 10002190 f i init.obj
 0001:000011a0       ??_EExternalResourceVisitor@v8@@UAEPAXI@Z 100021a0 f i init.obj
 0001:00001210       ??0PersistentHandleVisitor@v8@@QAE@XZ 10002210 f i init.obj
 0001:00001220       ??0PersistentHandleVisitor@v8@@QAE@ABV01@@Z 10002220 f i init.obj
 0001:00001230       ??_EPersistentHandleVisitor@v8@@UAEPAXI@Z 10002230 f i init.obj
 0001:000012a0       ??4Unlocker@v8@@QAEAAV01@ABV01@@Z 100022a0 f i init.obj
 0001:000012b0       ?init@@YAXV?$Local@VObject@v8@@@v8@@@Z 100022b0 f   init.obj
 0001:00001370       ?New@?$Factory@VFunctionTemplate@v8@@@imp@Nan@@SA?AV?$Local@VFunctionTemplate@v8@@@v8@@P6AXABV?$FunctionCallbackInfo@VValue@v8@@@3@@ZV?$Local@VValue@v8@@@5@V?$Local@VSignature@v8@@@5@@Z 10002370 f i native.obj
 0001:00001490       ?Wrap@ObjectWrap@Nan@@IAEXV?$Local@VObject@v8@@@v8@@@Z 10002490 f i native.obj
 0001:00001540       ?Ref@ObjectWrap@Nan@@MAEXXZ 10002540 f i native.obj
 0001:00001570       ?Unref@ObjectWrap@Nan@@MAEXXZ 10002570 f i native.obj
 0001:00001600       ?WeakCallback@ObjectWrap@Nan@@CAXABV?$WeakCallbackInfo@VObjectWrap@Nan@@@v8@@@Z 10002600 f i native.obj
 0001:00001670       ??_GObjectWrap@Nan@@UAEPAXI@Z 10002670 f i native.obj
 0001:00001670       ??_EObjectWrap@Nan@@UAEPAXI@Z 10002670 f i * CIL library *:* CIL module *
 0001:000016f0       ??_ENativeProtobuf@@UAEPAXI@Z 100026f0 f i * CIL library *:* CIL module *
 0001:000016f0       ??_GNativeProtobuf@@UAEPAXI@Z 100026f0 f i native.obj
 0001:00001770       ?Init@NativeProtobuf@@SAXV?$Local@VObject@v8@@@v8@@@Z 10002770 f   native.obj
 0001:00001af0       ?New@NativeProtobuf@@CAXABV?$FunctionCallbackInfo@VValue@v8@@@Nan@@@Z 10002af0 f   native.obj
 0001:00001f40       ?Serialize@NativeProtobuf@@CAXABV?$FunctionCallbackInfo@VValue@v8@@@Nan@@@Z 10002f40 f   native.obj
 0001:00002300       ?Parse@NativeProtobuf@@CAXABV?$FunctionCallbackInfo@VValue@v8@@@Nan@@@Z 10003300 f   native.obj
 0001:00002660       ?Info@NativeProtobuf@@CAXABV?$FunctionCallbackInfo@VValue@v8@@@Nan@@@Z 10003660 f   native.obj
 0001:000027d0       ?push_back@?$vector@V?$basic_string@DU?$char_traits@D@std@@V?$allocator@D@2@@std@@V?$allocator@V?$basic_string@DU?$char_traits@D@std@@V?$allocator@D@2@@std@@@2@@std@@QAEXABV?$basic_string@DU?$char_traits@D@std@@V?$allocator@D@2@@2@@Z 100037d0 f i native.obj
 0001:00002860       ??1?$vector@V?$basic_string@DU?$char_traits@D@std@@V?$allocator@D@2@@std@@V?$allocator@V?$basic_string@DU?$char_traits@D@std@@V?$allocator@D@2@@std@@@2@@std@@QAE@XZ 10003860 f i native.obj
 0001:00002870       ?assign@?$basic_string@DU?$char_traits@D@std@@V?$allocator@D@2@@std@@QAEAAV12@PBDI@Z 10003870 f i native.obj
 0001:00002970       ??1?$basic_string@DU?$char_traits@D@std@@V?$allocator@D@2@@std@@QAE@XZ 10003970 f i native.obj
 0001:000029a0       ??0?$basic_string@DU?$char_traits@D@std@@V?$allocator@D@2@@std@@QAE@PBD@Z 100039a0 f i native.obj
 0001:000029f0       ??0?$basic_string@DU?$char_traits@D@std@@V?$allocator@D@2@@std@@QAE@ABV01@@Z 100039f0 f i native.obj
 0001:00002a20       ?_Tidy@?$vector@V?$basic_string@DU?$char_traits@D@std@@V?$allocator@D@2@@std@@V?$allocator@V?$basic_string@DU?$char_traits@D@std@@V?$allocator@D@2@@std@@@2@@std@@IAEXXZ 10003a20 f i native.obj
 0001:00002ac0       ?_Reserve@?$vector@V?$basic_string@DU?$char_traits@D@std@@V?$allocator@D@2@@std@@V?$allocator@V?$basic_string@DU?$char_traits@D@std@@V?$allocator@D@2@@std@@@2@@std@@IAEXI@Z 10003ac0 f i native.obj
 0001:00002b50       ?_Myptr@?$_String_alloc@U?$_String_base_types@DV?$allocator@D@std@@@std@@@std@@QBEPBDXZ 10003b50 f i native.obj
 0001:00002b60       ?_Grow@?$basic_string@DU?$char_traits@D@std@@V?$allocator@D@2@@std@@QAE_NI_N@Z 10003b60 f i native.obj
 0001:00002c10       ?_Eos@?$basic_string@DU?$char_traits@D@std@@V?$allocator@D@2@@std@@QAEXI@Z 10003c10 f i native.obj
 0001:00002c30       ?assign@?$basic_string@DU?$char_traits@D@std@@V?$allocator@D@2@@std@@QAEAAV12@ABV12@II@Z 10003c30 f i native.obj
 0001:00002d40       ?append@?$basic_string@DU?$char_traits@D@std@@V?$allocator@D@2@@std@@QAEAAV12@PBDI@Z 10003d40 f i native.obj
 0001:00002e70       ?append@?$basic_string@DU?$char_traits@D@std@@V?$allocator@D@2@@std@@QAEAAV12@ABV12@II@Z 10003e70 f i native.obj
 0001:00002f70       ?_Assign_rv@?$basic_string@DU?$char_traits@D@std@@V?$allocator@D@2@@std@@QAEX$$QAV12@@Z 10003f70 f i native.obj
 0001:00002fd0       ?_Reallocate@?$vector@V?$basic_string@DU?$char_traits@D@std@@V?$allocator@D@2@@std@@V?$allocator@V?$basic_string@DU?$char_traits@D@std@@V?$allocator@D@2@@std@@@2@@std@@IAEXI@Z 10003fd0 f i native.obj
 0001:00003130       ?allocate@?$_Wrap_alloc@V?$allocator@V?$basic_string@DU?$char_traits@D@std@@V?$allocator@D@2@@std@@@std@@@std@@QAEPAV?$basic_string@DU?$char_traits@D@std@@V?$allocator@D@2@@2@I@Z 10004130 f i native.obj
 0001:000031a0       ?deallocate@?$_Wrap_alloc@V?$allocator@D@std@@@std@@QAEXPADI@Z 100041a0 f i native.obj
 0001:00003200       ?_Copy@?$basic_string@DU?$char_traits@D@std@@V?$allocator@D@2@@std@@QAEXII@Z 10004200 f i native.obj
 0001:000032b0       ?erase@?$basic_string@DU?$char_traits@D@std@@V?$allocator@D@2@@std@@QAEAAV12@II@Z 100042b0 f i native.obj
 0001:00003350       ?erase@?$basic_string@DU?$char_traits@D@std@@V?$allocator@D@2@@std@@QAEAAV12@I@Z 10004350 f i native.obj
 0001:00003390       ?deallocate@?$allocator@V?$basic_string@DU?$char_traits@D@std@@V?$allocator@D@2@@std@@@std@@QAEXPAV?$basic_string@DU?$char_traits@D@std@@V?$allocator@D@2@@2@I@Z 10004390 f i native.obj
 0001:000033f0       ?allocate@?$_Wrap_alloc@V?$allocator@D@std@@@std@@QAEPADI@Z 100043f0 f i native.obj
 0001:00003450       ??$?HDU?$char_traits@D@std@@V?$allocator@D@1@@std@@YA?AV?$basic_string@DU?$char_traits@D@std@@V?$allocator@D@2@@0@PBDABV10@@Z 10004450 f i native.obj
 0001:00003500       ?reserve@?$basic_string@DU?$char_traits@D@std@@V?$allocator@D@2@@std@@QAEXI@Z 10004500 f i native.obj
 0001:00003540       ??$Get@VTypeHandler@?$RepeatedPtrField@VFileDescriptorProto@protobuf@google@@@protobuf@google@@@RepeatedPtrFieldBase@internal@protobuf@google@@IBEABVFileDescriptorProto@23@H@Z 10004540 f i native.obj
 0001:00003600       ??$_Destroy_range@U?$_Wrap_alloc@V?$allocator@V?$basic_string@DU?$char_traits@D@std@@V?$allocator@D@2@@std@@@std@@@std@@@std@@YAXPAV?$basic_string@DU?$char_traits@D@std@@V?$allocator@D@2@@0@0AAU?$_Wrap_alloc@V?$allocator@V?$basic_string@DU?$char_traits@D@std@@V?$allocator@D@2@@std@@@std@@@0@U_Nonscalar_ptr_iterator_tag@0@@Z 10004600 f i native.obj
 0001:00003670       ??$_Uninit_copy@PBV?$basic_string@DU?$char_traits@D@std@@V?$allocator@D@2@@std@@PAV12@V?$allocator@V?$basic_string@DU?$char_traits@D@std@@V?$allocator@D@2@@std@@@2@@std@@YAPAV?$basic_string@DU?$char_traits@D@std@@V?$allocator@D@2@@0@PBV10@0PAV10@AAU?$_Wrap_alloc@V?$allocator@V?$basic_string@DU?$char_traits@D@std@@V?$allocator@D@2@@std@@@std@@@0@U_Nonscalar_ptr_iterator_tag@0@@Z 10004670 f i native.obj
 0001:000036c0       ??$_Uninit_move@PAV?$basic_string@DU?$char_traits@D@std@@V?$allocator@D@2@@std@@PAV12@V?$allocator@V?$basic_string@DU?$char_traits@D@std@@V?$allocator@D@2@@std@@@2@V12@@std@@YAPAV?$basic_string@DU?$char_traits@D@std@@V?$allocator@D@2@@0@PAV10@00AAU?$_Wrap_alloc@V?$allocator@V?$basic_string@DU?$char_traits@D@std@@V?$allocator@D@2@@std@@@std@@@0@0U_Nonscalar_ptr_iterator_tag@0@@Z 100046c0 f i native.obj
 0001:00003750       ___local_stdio_printf_options 10004750 f i parse.obj
 0001:00003760       _sprintf_s                 10004760 f i parse.obj
 0001:000037a0       ?to_string@std@@YA?AV?$basic_string@DU?$char_traits@D@std@@V?$allocator@D@2@@1@_J@Z 100047a0 f i parse.obj
 0001:00003800       ?to_string@std@@YA?AV?$basic_string@DU?$char_traits@D@std@@V?$allocator@D@2@@1@_K@Z 10004800 f i parse.obj
 0001:00003860       ?ParseField@@YA?AV?$Local@VValue@v8@@@v8@@ABVMessage@protobuf@google@@PBVReflection@45@PBVFieldDescriptor@45@H_N@Z 10004860 f   parse.obj
 0001:00003c80       ?ParsePart@@YA?AV?$Local@VObject@v8@@@v8@@ABVMessage@protobuf@google@@_N@Z 10004c80 f   parse.obj
 0001:00003e10       ??4?$basic_string@DU?$char_traits@D@std@@V?$allocator@D@2@@std@@QAEAAV01@$$QAV01@@Z 10004e10 f i parse.obj
 0001:00003e90       ??0?$basic_string@DU?$char_traits@D@std@@V?$allocator@D@2@@std@@QAE@PBDI@Z 10004e90 f i parse.obj
 0001:00003ec0       ?replace@?$basic_string@DU?$char_traits@D@std@@V?$allocator@D@2@@std@@QAEAAV12@IIPBDI@Z 10004ec0 f i parse.obj
 0001:000040a0       ?replace@?$basic_string@DU?$char_traits@D@std@@V?$allocator@D@2@@std@@QAEAAV12@IIABV12@II@Z 100050a0 f i parse.obj
 0001:00004410       ?stoll@std@@YA_JABV?$basic_string@DU?$char_traits@D@std@@V?$allocator@D@2@@1@PAIH@Z 10005410 f i serialize.obj
 0001:00004470       ?stoull@std@@YA_KABV?$basic_string@DU?$char_traits@D@std@@V?$allocator@D@2@@1@PAIH@Z 10005470 f i serialize.obj
 0001:000044d0       ?SerializeField@@YAXPAVMessage@protobuf@google@@PBVReflection@23@PBVFieldDescriptor@23@V?$Local@VValue@v8@@@v8@@_N@Z 100054d0 f   serialize.obj
 0001:00004fd0       ?SerializePart@@YAHPAVMessage@protobuf@google@@V?$Local@VObject@v8@@@v8@@_N@Z 10005fd0 f   serialize.obj
 0001:000053cb       __imp_load_?CollectAllGarbage@Isolate@v8@@AAEXPBD@Z 100063cb f   node:node.exe
 0001:000053d5       __tailMerge_node_exe       100063d5 f i node:node.exe
 0001:000053e6       __imp_load_?VisitHandlesForPartialDependence@Isolate@v8@@QAEXPAVPersistentHandleVisitor@2@@Z 100063e6 f   node:node.exe
 0001:000053f0       __imp_load_?VisitHandlesWithClassIds@Isolate@v8@@QAEXPAVPersistentHandleVisitor@2@@Z 100063f0 f   node:node.exe
 0001:000053fa       __imp_load_?VisitExternalResources@Isolate@v8@@QAEXPAVExternalResourceVisitor@2@@Z 100063fa f   node:node.exe
 0001:00005404       __imp_load_?RemoveMemoryAllocationCallback@Isolate@v8@@QAEXP6AXW4ObjectSpace@2@W4AllocationAction@2@H@Z@Z 10006404 f   node:node.exe
 0001:0000540e       __imp_load_?AddMemoryAllocationCallback@Isolate@v8@@QAEXP6AXW4ObjectSpace@2@W4AllocationAction@2@H@Z01@Z 1000640e f   node:node.exe
 0001:00005418       __imp_load_?SetCaptureStackTraceForUncaughtExceptions@Isolate@v8@@QAEX_NHW4StackTraceOptions@StackTrace@2@@Z 10006418 f   node:node.exe
 0001:00005422       __imp_load_?SetFailedAccessCheckCallbackFunction@Isolate@v8@@QAEXP6AXV?$Local@VObject@v8@@@2@W4AccessType@2@V?$Local@VValue@v8@@@2@@Z@Z 10006422 f   node:node.exe
 0001:0000542c       __imp_load_?RemoveMessageListeners@Isolate@v8@@QAEXP6AXV?$Local@VMessage@v8@@@2@V?$Local@VValue@v8@@@2@@Z@Z 1000642c f   node:node.exe
 0001:00005436       __imp_load_?AddMessageListener@Isolate@v8@@QAE_NP6AXV?$Local@VMessage@v8@@@2@V?$Local@VValue@v8@@@2@@Z1@Z 10006436 f   node:node.exe
 0001:00005440       __imp_load_?IsDead@Isolate@v8@@QAE_NXZ 10006440 f   node:node.exe
 0001:0000544a       __imp_load_?SetAllowCodeGenerationFromStringsCallback@Isolate@v8@@QAEXP6A_NV?$Local@VContext@v8@@@2@@Z@Z 1000644a f   node:node.exe
 0001:00005454       __imp_load_?SetFatalErrorHandler@Isolate@v8@@QAEXP6AXPBD0@Z@Z 10006454 f   node:node.exe
 0001:0000545e       __imp_load_?CancelTerminateExecution@Isolate@v8@@QAEXXZ 1000645e f   node:node.exe
 0001:00005468       __imp_load_?IsExecutionTerminating@Isolate@v8@@QAE_NXZ 10006468 f   node:node.exe
 0001:00005472       __imp_load_?TerminateExecution@Isolate@v8@@QAEXXZ 10006472 f   node:node.exe
 0001:0000547c       __imp_load_?RemoveGCEpilogueCallback@Isolate@v8@@QAEXP6AXPAV12@W4GCType@2@W4GCCallbackFlags@2@@Z@Z 1000647c f   node:node.exe
 0001:00005486       __imp_load_?RemoveGCPrologueCallback@Isolate@v8@@QAEXP6AXPAV12@W4GCType@2@W4GCCallbackFlags@2@@Z@Z 10006486 f   node:node.exe
 0001:00005490       __imp_load_?GetCurrentContext@Isolate@v8@@QAE?AV?$Local@VContext@v8@@@2@XZ 10006490 f   node:node.exe
 0001:0000549a       __imp_load_?Exit@Isolate@v8@@QAEXXZ 1000649a f   node:node.exe
 0001:000054a4       __imp_load_?Enter@Isolate@v8@@QAEXXZ 100064a4 f   node:node.exe
 0001:000054ae       __imp_load_?GetCurrent@Isolate@v8@@SAPAV12@XZ 100064ae f   node:node.exe
 0001:000054b8       __imp_load_?ResetToBookmark@ExternalSourceStream@ScriptCompiler@v8@@UAEXXZ 100064b8 f   node:node.exe
 0001:000054c2       ?ResetToBookmark@ExternalSourceStream@ScriptCompiler@v8@@UAEXXZ 100064c2 f   node:node.exe
 0001:000054c8       __imp_load_?SetBookmark@ExternalSourceStream@ScriptCompiler@v8@@UAE_NXZ 100064c8 f   node:node.exe
 0001:000054d2       ?SetBookmark@ExternalSourceStream@ScriptCompiler@v8@@UAE_NXZ 100064d2 f   node:node.exe
 0001:000054d8       __imp_load_?CreateHandle@HandleScope@v8@@CAPAPAVObject@internal@2@PAVHeapObject@42@PAV342@@Z 100064d8 f   node:node.exe
 0001:000054e2       __imp_load_??1HandleScope@v8@@QAE@XZ 100064e2 f   node:node.exe
 0001:000054ec       __imp_load_?Set@Template@v8@@QAEXV?$Local@VName@v8@@@2@V?$Local@VData@v8@@@2@W4PropertyAttribute@2@@Z 100064ec f   node:node.exe
 0001:000054f6       __imp_load_?Initialize@Locker@v8@@AAEXPAVIsolate@2@@Z 100064f6 f   node:node.exe
 0001:00005500       __imp_load_?Initialize@Unlocker@v8@@AAEXPAVIsolate@2@@Z 10006500 f   node:node.exe
 0001:0000550a       __imp_load_?ToLocalEmpty@V8@v8@@CAXXZ 1000650a f   node:node.exe
 0001:00005514       __imp_load_?ToInt32@Value@v8@@QBE?AV?$MaybeLocal@VInt32@v8@@@2@V?$Local@VContext@v8@@@2@@Z 10006514 f   node:node.exe
 0001:0000551e       __imp_load_?ToUint32@Value@v8@@QBE?AV?$MaybeLocal@VUint32@v8@@@2@V?$Local@VContext@v8@@@2@@Z 1000651e f   node:node.exe
 0001:00005528       __imp_load_?ToInteger@Value@v8@@QBE?AV?$MaybeLocal@VInteger@v8@@@2@V?$Local@VContext@v8@@@2@@Z 10006528 f   node:node.exe
 0001:00005532       __imp_load_?ToObject@Value@v8@@QBE?AV?$MaybeLocal@VObject@v8@@@2@V?$Local@VContext@v8@@@2@@Z 10006532 f   node:node.exe
 0001:0000553c       __imp_load_?ToDetailString@Value@v8@@QBE?AV?$MaybeLocal@VString@v8@@@2@V?$Local@VContext@v8@@@2@@Z 1000653c f   node:node.exe
 0001:00005546       __imp_load_?ToString@Value@v8@@QBE?AV?$MaybeLocal@VString@v8@@@2@V?$Local@VContext@v8@@@2@@Z 10006546 f   node:node.exe
 0001:00005550       __imp_load_?ToNumber@Value@v8@@QBE?AV?$MaybeLocal@VNumber@v8@@@2@V?$Local@VContext@v8@@@2@@Z 10006550 f   node:node.exe
 0001:0000555a       __imp_load_?ToBoolean@Value@v8@@QBE?AV?$MaybeLocal@VBoolean@v8@@@2@V?$Local@VContext@v8@@@2@@Z 1000655a f   node:node.exe
 0001:00005564       __imp_load_?NewFromUtf8@String@v8@@SA?AV?$MaybeLocal@VString@v8@@@2@PAVIsolate@2@PBDW4NewStringType@2@H@Z 10006564 f   node:node.exe
 0001:0000556e       __imp_load_?SlowGetAlignedPointerFromInternalField@Object@v8@@AAEPAXH@Z 1000656e f   node:node.exe
 0001:00005578       __imp_load_?SlowGetInternalField@Object@v8@@AAE?AV?$Local@VValue@v8@@@2@H@Z 10006578 f   node:node.exe
 0001:00005582       __imp_load_?InternalFieldCount@Object@v8@@QAEHXZ 10006582 f   node:node.exe
 0001:0000558c       __imp_load_?NewInstance@Function@v8@@QBE?AV?$MaybeLocal@VObject@v8@@@2@V?$Local@VContext@v8@@@2@HQAV?$Local@VValue@v8@@@2@@Z 1000658c f   node:node.exe
 0001:00005596       __imp_load_?SetHandler@ObjectTemplate@v8@@QAEXABUIndexedPropertyHandlerConfiguration@2@@Z 10006596 f   node:node.exe
 0001:000055a0       __imp_load__node_module_register 100065a0 f   node:node.exe
 0001:000055aa       __imp_load_?Value@External@v8@@QBEPAXXZ 100065aa f   node:node.exe
 0001:000055b4       __imp_load_?New@External@v8@@SA?AV?$Local@VExternal@v8@@@2@PAVIsolate@2@PAX@Z 100065b4 f   node:node.exe
 0001:000055be       __imp_load_?New@Signature@v8@@SA?AV?$Local@VSignature@v8@@@2@PAVIsolate@2@V?$Local@VFunctionTemplate@v8@@@2@@Z 100065be f   node:node.exe
 0001:000055c8       __imp_load_?ThrowException@Isolate@v8@@QAE?AV?$Local@VValue@v8@@@2@V32@@Z 100065c8 f   node:node.exe
 0001:000055d2       __imp_load_?CreateHandle@HandleScope@v8@@KAPAPAVObject@internal@2@PAVIsolate@42@PAV342@@Z 100065d2 f   node:node.exe
 0001:000055dc       __imp_load_??0HandleScope@v8@@QAE@PAVIsolate@1@@Z 100065dc f   node:node.exe
 0001:000055e6       __imp_load_?Error@Exception@v8@@SA?AV?$Local@VValue@v8@@@2@V?$Local@VString@v8@@@2@@Z 100065e6 f   node:node.exe
 0001:000055f0       __imp_load_?New@Array@v8@@SA?AV?$Local@VArray@v8@@@2@PAVIsolate@2@H@Z 100065f0 f   node:node.exe
 0001:000055fa       __imp_load_?SetClassName@FunctionTemplate@v8@@QAEXV?$Local@VString@v8@@@2@@Z 100065fa f   node:node.exe
 0001:00005604       __imp_load_?PrototypeTemplate@FunctionTemplate@v8@@QAE?AV?$Local@VObjectTemplate@v8@@@2@XZ 10006604 f   node:node.exe
 0001:0000560e       __imp_load_?InstanceTemplate@FunctionTemplate@v8@@QAE?AV?$Local@VObjectTemplate@v8@@@2@XZ 1000660e f   node:node.exe
 0001:00005618       __imp_load_?GetFunction@FunctionTemplate@v8@@QAE?AV?$Local@VFunction@v8@@@2@XZ 10006618 f   node:node.exe
 0001:00005622       __imp_load_?GetFunction@FunctionTemplate@v8@@QAE?AV?$MaybeLocal@VFunction@v8@@@2@V?$Local@VContext@v8@@@2@@Z 10006622 f   node:node.exe
 0001:0000562c       __imp_load_?New@FunctionTemplate@v8@@SA?AV?$Local@VFunctionTemplate@v8@@@2@PAVIsolate@2@P6AXABV?$FunctionCallbackInfo@VValue@v8@@@2@@ZV?$Local@VValue@v8@@@2@V?$Local@VSignature@v8@@@2@H@Z 1000662c f   node:node.exe
 0001:00005636       __imp_load_?ClearWeak@V8@v8@@CAPAXPAPAVObject@internal@2@@Z 10006636 f   node:node.exe
 0001:00005640       __imp_load_?MakeWeak@V8@v8@@CAXPAPAVObject@internal@2@PAXP6AXABV?$WeakCallbackInfo@X@2@@ZW4WeakCallbackType@2@@Z 10006640 f   node:node.exe
 0001:0000564a       __imp_load_?DisposeGlobal@V8@v8@@CAXPAPAVObject@internal@2@@Z 1000664a f   node:node.exe
 0001:00005654       __imp_load_?GlobalizeReference@V8@v8@@CAPAPAVObject@internal@2@PAVIsolate@42@PAPAV342@@Z 10006654 f   node:node.exe
 0001:0000565e       __imp_load_?BooleanValue@Value@v8@@QBE_NXZ 1000665e f   node:node.exe
 0001:00005668       __imp_load_?Escape@EscapableHandleScope@v8@@AAEPAPAVObject@internal@2@PAPAV342@@Z 10006668 f   node:node.exe
 0001:00005672       __imp_load_??0EscapableHandleScope@v8@@QAE@PAVIsolate@1@@Z 10006672 f   node:node.exe
 0001:0000567c       __imp_load_??1Utf8Value@String@v8@@QAE@XZ 1000667c f   node:node.exe
 0001:00005686       __imp_load_??0Utf8Value@String@v8@@QAE@V?$Local@VValue@v8@@@2@@Z 10006686 f   node:node.exe
 0001:00005690       __imp_load_?SetAlignedPointerInInternalField@Object@v8@@QAEXHPAX@Z 10006690 f   node:node.exe
 0001:0000569a       __imp_load_?SetInternalField@Object@v8@@QAEXHV?$Local@VValue@v8@@@2@@Z 1000669a f   node:node.exe
 0001:000056a4       __imp_load_?Set@Object@v8@@QAE_NV?$Local@VValue@v8@@@2@0@Z 100066a4 f   node:node.exe
 0001:000056ae       __imp_load_?Set@Object@v8@@QAE_NIV?$Local@VValue@v8@@@2@@Z 100066ae f   node:node.exe
 0001:000056b8       __imp_load_?SetName@Function@v8@@QAEXV?$Local@VString@v8@@@2@@Z 100066b8 f   node:node.exe
 0001:000056c2       __imp_load_?SetInternalFieldCount@ObjectTemplate@v8@@QAEXH@Z 100066c2 f   node:node.exe
 0001:000056cc       __imp_load_?NewInstance@ObjectTemplate@v8@@QAE?AV?$MaybeLocal@VObject@v8@@@2@V?$Local@VContext@v8@@@2@@Z 100066cc f   node:node.exe
 0001:000056d6       __imp_load_?New@ObjectTemplate@v8@@SA?AV?$Local@VObjectTemplate@v8@@@2@PAVIsolate@2@V?$Local@VFunctionTemplate@v8@@@2@@Z 100066d6 f   node:node.exe
 0001:000056e0       __imp_load_?New@Buffer@node@@YA?AV?$MaybeLocal@VObject@v8@@@v8@@PAVIsolate@4@I@Z 100066e0 f   node:node.exe
 0001:000056ea       __imp_load_?Data@Buffer@node@@YAPADV?$Local@VObject@v8@@@v8@@@Z 100066ea f   node:node.exe
 0001:000056f4       __imp_load_?Length@Buffer@node@@YAIV?$Local@VObject@v8@@@v8@@@Z 100066f4 f   node:node.exe
 0001:000056fe       __imp_load_?New@Number@v8@@SA?AV?$Local@VNumber@v8@@@2@PAVIsolate@2@N@Z 100066fe f   node:node.exe
 0001:00005708       __imp_load_?New@Object@v8@@SA?AV?$Local@VObject@v8@@@2@PAVIsolate@2@@Z 10006708 f   node:node.exe
 0001:00005712       __imp_load_?Copy@Buffer@node@@YA?AV?$MaybeLocal@VObject@v8@@@v8@@PAVIsolate@4@PBDI@Z 10006712 f   node:node.exe
 0001:0000571c       __imp_load_?Length@Array@v8@@QBEIXZ 1000671c f   node:node.exe
 0001:00005726       __imp_load_?Int32Value@Value@v8@@QBEHXZ 10006726 f   node:node.exe
 0001:00005730       __imp_load_?Uint32Value@Value@v8@@QBEIXZ 10006730 f   node:node.exe
 0001:0000573a       __imp_load_?NumberValue@Value@v8@@QBENXZ 1000673a f   node:node.exe
 0001:00005744       __imp_load_?IsNumber@Value@v8@@QBE_NXZ 10006744 f   node:node.exe
 0001:0000574e       __imp_load_?IsObject@Value@v8@@QBE_NXZ 1000674e f   node:node.exe
 0001:00005758       __imp_load_?IsArray@Value@v8@@QBE_NXZ 10006758 f   node:node.exe
 0001:00005762       __imp_load_?IsFunction@Value@v8@@QBE_NXZ 10006762 f   node:node.exe
 0001:0000576c       __imp_load_?GetPropertyNames@Object@v8@@QAE?AV?$Local@VArray@v8@@@2@XZ 1000676c f   node:node.exe
 0001:00005776       __imp_load_?Has@Object@v8@@QAE_NV?$Local@VValue@v8@@@2@@Z 10006776 f   node:node.exe
 0001:00005780       __imp_load_?Get@Object@v8@@QAE?AV?$Local@VValue@v8@@@2@V32@@Z 10006780 f   node:node.exe
 0001:0000578a       __imp_load_?Get@Object@v8@@QAE?AV?$Local@VValue@v8@@@2@I@Z 1000678a f   node:node.exe
 0001:00005794       __imp_load_?Call@Function@v8@@QAE?AV?$Local@VValue@v8@@@2@V32@HQAV32@@Z 10006794 f   node:node.exe
 0001:0000579e       __imp_load_?HasInstance@Buffer@node@@YA_NV?$Local@VValue@v8@@@v8@@@Z 1000679e f   node:node.exe
 0001:000057b0       ??$Add@VTypeHandler@?$RepeatedPtrField@VDescriptorProto@protobuf@google@@@protobuf@google@@@RepeatedPtrFieldBase@internal@protobuf@google@@IAEPAVDescriptorProto@23@XZ 100067b0 f i libprotobuf:descriptor.pb.obj
 0001:00005850       ??$Add@VTypeHandler@?$RepeatedPtrField@VOneofDescriptorProto@protobuf@google@@@protobuf@google@@@RepeatedPtrFieldBase@internal@protobuf@google@@IAEPAVOneofDescriptorProto@23@XZ 10006850 f i libprotobuf:descriptor.pb.obj
 0001:000058f0       ??$AllAreInitialized@V?$RepeatedPtrField@VServiceDescriptorProto@protobuf@google@@@protobuf@google@@@internal@protobuf@google@@YA_NABV?$RepeatedPtrField@VServiceDescriptorProto@protobuf@google@@@12@@Z 100068f0 f i libprotobuf:descriptor.pb.obj
 0001:000058f0       ??$AllAreInitialized@V?$RepeatedPtrField@VFieldDescriptorProto@protobuf@google@@@protobuf@google@@@internal@protobuf@google@@YA_NABV?$RepeatedPtrField@VFieldDescriptorProto@protobuf@google@@@12@@Z 100068f0 f i libprotobuf:descriptor.pb.obj
 0001:000058f0       ??$AllAreInitialized@V?$RepeatedPtrField@VUninterpretedOption_NamePart@protobuf@google@@@protobuf@google@@@internal@protobuf@google@@YA_NABV?$RepeatedPtrField@VUninterpretedOption_NamePart@protobuf@google@@@12@@Z 100068f0 f i libprotobuf:descriptor.pb.obj
 0001:000058f0       ??$AllAreInitialized@V?$RepeatedPtrField@VUninterpretedOption@protobuf@google@@@protobuf@google@@@internal@protobuf@google@@YA_NABV?$RepeatedPtrField@VUninterpretedOption@protobuf@google@@@12@@Z 100068f0 f i libprotobuf:descriptor.pb.obj
 0001:000058f0       ??$AllAreInitialized@V?$RepeatedPtrField@VDescriptorProto@protobuf@google@@@protobuf@google@@@internal@protobuf@google@@YA_NABV?$RepeatedPtrField@VDescriptorProto@protobuf@google@@@12@@Z 100068f0 f i libprotobuf:descriptor.pb.obj
 0001:000058f0       ??$AllAreInitialized@V?$RepeatedPtrField@VFileDescriptorProto@protobuf@google@@@protobuf@google@@@internal@protobuf@google@@YA_NABV?$RepeatedPtrField@VFileDescriptorProto@protobuf@google@@@12@@Z 100068f0 f i libprotobuf:descriptor.pb.obj
 0001:000058f0       ??$AllAreInitialized@V?$RepeatedPtrField@VEnumDescriptorProto@protobuf@google@@@protobuf@google@@@internal@protobuf@google@@YA_NABV?$RepeatedPtrField@VEnumDescriptorProto@protobuf@google@@@12@@Z 100068f0 f i libprotobuf:descriptor.pb.obj
 0001:000058f0       ??$AllAreInitialized@V?$RepeatedPtrField@VEnumValueDescriptorProto@protobuf@google@@@protobuf@google@@@internal@protobuf@google@@YA_NABV?$RepeatedPtrField@VEnumValueDescriptorProto@protobuf@google@@@12@@Z 100068f0 f i libprotobuf:descriptor.pb.obj
 0001:000058f0       ??$AllAreInitialized@V?$RepeatedPtrField@VMethodDescriptorProto@protobuf@google@@@protobuf@google@@@internal@protobuf@google@@YA_NABV?$RepeatedPtrField@VMethodDescriptorProto@protobuf@google@@@12@@Z 100068f0 f i libprotobuf:descriptor.pb.obj
 0001:00005950       ??$Clear@VTypeHandler@?$RepeatedPtrField@V?$basic_string@DU?$char_traits@D@std@@V?$allocator@D@2@@std@@@protobuf@google@@@RepeatedPtrFieldBase@internal@protobuf@google@@IAEXXZ 10006950 f i libprotobuf:descriptor.pb.obj
 0001:00005990       ??$MergeFrom@VTypeHandler@?$RepeatedPtrField@V?$basic_string@DU?$char_traits@D@std@@V?$allocator@D@2@@std@@@protobuf@google@@@RepeatedPtrFieldBase@internal@protobuf@google@@IAEXABV0123@@Z 10006990 f i libprotobuf:descriptor.pb.obj
 0001:00005ab0       ??$MergeFrom@VTypeHandler@?$RepeatedPtrField@VDescriptorProto@protobuf@google@@@protobuf@google@@@RepeatedPtrFieldBase@internal@protobuf@google@@IAEXABV0123@@Z 10006ab0 f i libprotobuf:descriptor.pb.obj
 0001:00005bf0       ??$MergeFrom@VTypeHandler@?$RepeatedPtrField@VDescriptorProto_ExtensionRange@protobuf@google@@@protobuf@google@@@RepeatedPtrFieldBase@internal@protobuf@google@@IAEXABV0123@@Z 10006bf0 f i libprotobuf:descriptor.pb.obj
 0001:00005d50       ??$MergeFrom@VTypeHandler@?$RepeatedPtrField@VEnumDescriptorProto@protobuf@google@@@protobuf@google@@@RepeatedPtrFieldBase@internal@protobuf@google@@IAEXABV0123@@Z 10006d50 f i libprotobuf:descriptor.pb.obj
 0001:00005f10       ??$MergeFrom@VTypeHandler@?$RepeatedPtrField@VEnumValueDescriptorProto@protobuf@google@@@protobuf@google@@@RepeatedPtrFieldBase@internal@protobuf@google@@IAEXABV0123@@Z 10006f10 f i libprotobuf:descriptor.pb.obj
 0001:00006070       ??$MergeFrom@VTypeHandler@?$RepeatedPtrField@VFieldDescriptorProto@protobuf@google@@@protobuf@google@@@RepeatedPtrFieldBase@internal@protobuf@google@@IAEXABV0123@@Z 10007070 f i libprotobuf:descriptor.pb.obj
 0001:000061d0       ??$MergeFrom@VTypeHandler@?$RepeatedPtrField@VFileDescriptorProto@protobuf@google@@@protobuf@google@@@RepeatedPtrFieldBase@internal@protobuf@google@@IAEXABV0123@@Z 100071d0 f i libprotobuf:descriptor.pb.obj
 0001:00006310       ??$MergeFrom@VTypeHandler@?$RepeatedPtrField@VMethodDescriptorProto@protobuf@google@@@protobuf@google@@@RepeatedPtrFieldBase@internal@protobuf@google@@IAEXABV0123@@Z 10007310 f i libprotobuf:descriptor.pb.obj
 0001:00006470       ??$MergeFrom@VTypeHandler@?$RepeatedPtrField@VOneofDescriptorProto@protobuf@google@@@protobuf@google@@@RepeatedPtrFieldBase@internal@protobuf@google@@IAEXABV0123@@Z 10007470 f i libprotobuf:descriptor.pb.obj
 0001:000065b0       ??$MergeFrom@VTypeHandler@?$RepeatedPtrField@VServiceDescriptorProto@protobuf@google@@@protobuf@google@@@RepeatedPtrFieldBase@internal@protobuf@google@@IAEXABV0123@@Z 100075b0 f i libprotobuf:descriptor.pb.obj
 0001:00006770       ??$MergeFrom@VTypeHandler@?$RepeatedPtrField@VSourceCodeInfo_Location@protobuf@google@@@protobuf@google@@@RepeatedPtrFieldBase@internal@protobuf@google@@IAEXABV0123@@Z 10007770 f i libprotobuf:descriptor.pb.obj
 0001:00006940       ??$MergeFrom@VTypeHandler@?$RepeatedPtrField@VUninterpretedOption@protobuf@google@@@protobuf@google@@@RepeatedPtrFieldBase@internal@protobuf@google@@IAEXABV0123@@Z 10007940 f i libprotobuf:descriptor.pb.obj
 0001:00006ac0       ??$MergeFrom@VTypeHandler@?$RepeatedPtrField@VUninterpretedOption_NamePart@protobuf@google@@@protobuf@google@@@RepeatedPtrFieldBase@internal@protobuf@google@@IAEXABV0123@@Z 10007ac0 f i libprotobuf:descriptor.pb.obj
 0001:00006c60       ??$ReadMessageNoVirtual@VDescriptorProto@protobuf@google@@@WireFormatLite@internal@protobuf@google@@SA_NPAVCodedInputStream@io@23@PAVDescriptorProto@23@@Z 10007c60 f i libprotobuf:descriptor.pb.obj
 0001:00006cf0       ??$ReadMessageNoVirtual@VDescriptorProto_ExtensionRange@protobuf@google@@@WireFormatLite@internal@protobuf@google@@SA_NPAVCodedInputStream@io@23@PAVDescriptorProto_ExtensionRange@23@@Z 10007cf0 f i libprotobuf:descriptor.pb.obj
 0001:00006d80       ??$ReadMessageNoVirtual@VEnumDescriptorProto@protobuf@google@@@WireFormatLite@internal@protobuf@google@@SA_NPAVCodedInputStream@io@23@PAVEnumDescriptorProto@23@@Z 10007d80 f i libprotobuf:descriptor.pb.obj
 0001:00006e10       ??$ReadMessageNoVirtual@VEnumOptions@protobuf@google@@@WireFormatLite@internal@protobuf@google@@SA_NPAVCodedInputStream@io@23@PAVEnumOptions@23@@Z 10007e10 f i libprotobuf:descriptor.pb.obj
 0001:00006ea0       ??$ReadMessageNoVirtual@VEnumValueDescriptorProto@protobuf@google@@@WireFormatLite@internal@protobuf@google@@SA_NPAVCodedInputStream@io@23@PAVEnumValueDescriptorProto@23@@Z 10007ea0 f i libprotobuf:descriptor.pb.obj
 0001:00006f30       ??$ReadMessageNoVirtual@VEnumValueOptions@protobuf@google@@@WireFormatLite@internal@protobuf@google@@SA_NPAVCodedInputStream@io@23@PAVEnumValueOptions@23@@Z 10007f30 f i libprotobuf:descriptor.pb.obj
 0001:00006fc0       ??$ReadMessageNoVirtual@VFieldDescriptorProto@protobuf@google@@@WireFormatLite@internal@protobuf@google@@SA_NPAVCodedInputStream@io@23@PAVFieldDescriptorProto@23@@Z 10007fc0 f i libprotobuf:descriptor.pb.obj
 0001:00007050       ??$ReadMessageNoVirtual@VFieldOptions@protobuf@google@@@WireFormatLite@internal@protobuf@google@@SA_NPAVCodedInputStream@io@23@PAVFieldOptions@23@@Z 10008050 f i libprotobuf:descriptor.pb.obj
 0001:000070e0       ??$ReadMessageNoVirtual@VFileOptions@protobuf@google@@@WireFormatLite@internal@protobuf@google@@SA_NPAVCodedInputStream@io@23@PAVFileOptions@23@@Z 100080e0 f i libprotobuf:descriptor.pb.obj
 0001:00007170       ??$ReadMessageNoVirtual@VMessageOptions@protobuf@google@@@WireFormatLite@internal@protobuf@google@@SA_NPAVCodedInputStream@io@23@PAVMessageOptions@23@@Z 10008170 f i libprotobuf:descriptor.pb.obj
 0001:00007200       ??$ReadMessageNoVirtual@VMethodDescriptorProto@protobuf@google@@@WireFormatLite@internal@protobuf@google@@SA_NPAVCodedInputStream@io@23@PAVMethodDescriptorProto@23@@Z 10008200 f i libprotobuf:descriptor.pb.obj
 0001:00007290       ??$ReadMessageNoVirtual@VMethodOptions@protobuf@google@@@WireFormatLite@internal@protobuf@google@@SA_NPAVCodedInputStream@io@23@PAVMethodOptions@23@@Z 10008290 f i libprotobuf:descriptor.pb.obj
 0001:00007320       ??$ReadMessageNoVirtual@VOneofDescriptorProto@protobuf@google@@@WireFormatLite@internal@protobuf@google@@SA_NPAVCodedInputStream@io@23@PAVOneofDescriptorProto@23@@Z 10008320 f i libprotobuf:descriptor.pb.obj
 0001:000073b0       ??$ReadMessageNoVirtual@VServiceDescriptorProto@protobuf@google@@@WireFormatLite@internal@protobuf@google@@SA_NPAVCodedInputStream@io@23@PAVServiceDescriptorProto@23@@Z 100083b0 f i libprotobuf:descriptor.pb.obj
 0001:00007440       ??$ReadMessageNoVirtual@VServiceOptions@protobuf@google@@@WireFormatLite@internal@protobuf@google@@SA_NPAVCodedInputStream@io@23@PAVServiceOptions@23@@Z 10008440 f i libprotobuf:descriptor.pb.obj
 0001:000074d0       ??$ReadMessageNoVirtual@VSourceCodeInfo@protobuf@google@@@WireFormatLite@internal@protobuf@google@@SA_NPAVCodedInputStream@io@23@PAVSourceCodeInfo@23@@Z 100084d0 f i libprotobuf:descriptor.pb.obj
 0001:00007560       ??$ReadMessageNoVirtual@VUninterpretedOption@protobuf@google@@@WireFormatLite@internal@protobuf@google@@SA_NPAVCodedInputStream@io@23@PAVUninterpretedOption@23@@Z 10008560 f i libprotobuf:descriptor.pb.obj
 0001:000075f0       ??$ReadMessageNoVirtual@VUninterpretedOption_NamePart@protobuf@google@@@WireFormatLite@internal@protobuf@google@@SA_NPAVCodedInputStream@io@23@PAVUninterpretedOption_NamePart@23@@Z 100085f0 f i libprotobuf:descriptor.pb.obj
 0001:00007680       ??$ReadPackedPrimitive@H$04@WireFormatLite@internal@protobuf@google@@SA_NPAVCodedInputStream@io@23@PAV?$RepeatedField@H@23@@Z 10008680 f i libprotobuf:descriptor.pb.obj
 0001:000077c0       ??$ReadPrimitive@H$0O@@WireFormatLite@internal@protobuf@google@@SA_NPAVCodedInputStream@io@23@PAH@Z 100087c0 f i libprotobuf:descriptor.pb.obj
 0001:000077c0       ??$ReadPrimitive@H$04@WireFormatLite@internal@protobuf@google@@SA_NPAVCodedInputStream@io@23@PAH@Z 100087c0 f i libprotobuf:descriptor.pb.obj
 0001:00007800       ??$ReadPrimitive@_J$0BA@@WireFormatLite@internal@protobuf@google@@SA_NPAVCodedInputStream@io@23@PA_J@Z 10008800 f i libprotobuf:extension_set.obj
 0001:00007800       ??$ReadPrimitive@N$00@WireFormatLite@internal@protobuf@google@@SA_NPAVCodedInputStream@io@23@PAN@Z 10008800 f i libprotobuf:descriptor.pb.obj
 0001:00007860       ??$ReadPrimitive@_J$02@WireFormatLite@internal@protobuf@google@@SA_NPAVCodedInputStream@io@23@PA_J@Z 10008860 f i libprotobuf:descriptor.pb.obj
 0001:000078c0       ??$ReadPrimitive@_N$07@WireFormatLite@internal@protobuf@google@@SA_NPAVCodedInputStream@io@23@PA_N@Z 100088c0 f i libprotobuf:descriptor.pb.obj
 0001:00007920       ??$ReadRepeatedPrimitive@H$04@WireFormatLite@internal@protobuf@google@@SA_NHIPAVCodedInputStream@io@23@PAV?$RepeatedField@H@23@@Z 10008920 f i libprotobuf:descriptor.pb.obj
 0001:00007a60       ??$WriteMessageNoVirtualToArray@VDescriptorProto@protobuf@google@@@WireFormatLite@internal@protobuf@google@@SAPAEHABVDescriptorProto@23@PAE@Z 10008a60 f i libprotobuf:descriptor.pb.obj
 0001:00007ae0       ??$WriteMessageNoVirtualToArray@VEnumOptions@protobuf@google@@@WireFormatLite@internal@protobuf@google@@SAPAEHABVEnumOptions@23@PAE@Z 10008ae0 f i libprotobuf:descriptor.pb.obj
 0001:00007b60       ??$WriteMessageNoVirtualToArray@VEnumValueOptions@protobuf@google@@@WireFormatLite@internal@protobuf@google@@SAPAEHABVEnumValueOptions@23@PAE@Z 10008b60 f i libprotobuf:descriptor.pb.obj
 0001:00007be0       ??$WriteMessageNoVirtualToArray@VFieldOptions@protobuf@google@@@WireFormatLite@internal@protobuf@google@@SAPAEHABVFieldOptions@23@PAE@Z 10008be0 f i libprotobuf:descriptor.pb.obj
 0001:00007c60       ??$WriteMessageNoVirtualToArray@VServiceOptions@protobuf@google@@@WireFormatLite@internal@protobuf@google@@SAPAEHABVServiceOptions@23@PAE@Z 10008c60 f i libprotobuf:descriptor.pb.obj
 0001:00007c60       ??$WriteMessageNoVirtualToArray@VMethodOptions@protobuf@google@@@WireFormatLite@internal@protobuf@google@@SAPAEHABVMethodOptions@23@PAE@Z 10008c60 f i libprotobuf:descriptor.pb.obj
 0001:00007ce0       ??$WriteMessageNoVirtualToArray@VOneofDescriptorProto@protobuf@google@@@WireFormatLite@internal@protobuf@google@@SAPAEHABVOneofDescriptorProto@23@PAE@Z 10008ce0 f i libprotobuf:descriptor.pb.obj
 0001:00007d90       ??0DescriptorProto@protobuf@google@@QAE@XZ 10008d90 f   libprotobuf:descriptor.pb.obj
 0001:00007ea0       ??0DescriptorProto_ExtensionRange@protobuf@google@@QAE@XZ 10008ea0 f   libprotobuf:descriptor.pb.obj
 0001:00007f10       ??0EnumDescriptorProto@protobuf@google@@QAE@XZ 10008f10 f   libprotobuf:descriptor.pb.obj
 0001:00007f90       ??0EnumOptions@protobuf@google@@QAE@XZ 10008f90 f   libprotobuf:descriptor.pb.obj
 0001:00008020       ??0EnumValueDescriptorProto@protobuf@google@@QAE@XZ 10009020 f   libprotobuf:descriptor.pb.obj
 0001:00008080       ??0EnumValueOptions@protobuf@google@@QAE@XZ 10009080 f   libprotobuf:descriptor.pb.obj
 0001:00008110       ??0FieldDescriptorProto@protobuf@google@@QAE@XZ 10009110 f   libprotobuf:descriptor.pb.obj
 0001:00008170       ??0FieldOptions@protobuf@google@@QAE@XZ 10009170 f   libprotobuf:descriptor.pb.obj
 0001:00008200       ??0FileDescriptorProto@protobuf@google@@QAE@XZ 10009200 f   libprotobuf:descriptor.pb.obj
 0001:00008320       ??0FileDescriptorSet@protobuf@google@@QAE@XZ 10009320 f   libprotobuf:descriptor.pb.obj
 0001:000083a0       ??0FileOptions@protobuf@google@@QAE@XZ 100093a0 f   libprotobuf:descriptor.pb.obj
 0001:00008430       ??0MessageOptions@protobuf@google@@QAE@XZ 10009430 f   libprotobuf:descriptor.pb.obj
 0001:000084c0       ??0MethodDescriptorProto@protobuf@google@@QAE@XZ 100094c0 f   libprotobuf:descriptor.pb.obj
 0001:00008520       ??0MethodOptions@protobuf@google@@QAE@XZ 10009520 f   libprotobuf:descriptor.pb.obj
 0001:000085b0       ??0OneofDescriptorProto@protobuf@google@@QAE@XZ 100095b0 f   libprotobuf:descriptor.pb.obj
 0001:00008660       ??0ServiceDescriptorProto@protobuf@google@@QAE@XZ 10009660 f   libprotobuf:descriptor.pb.obj
 0001:000086e0       ??0ServiceOptions@protobuf@google@@QAE@XZ 100096e0 f   libprotobuf:descriptor.pb.obj
 0001:00008770       ??0SourceCodeInfo@protobuf@google@@QAE@XZ 10009770 f   libprotobuf:descriptor.pb.obj
 0001:000087f0       ??0SourceCodeInfo_Location@protobuf@google@@QAE@XZ 100097f0 f   libprotobuf:descriptor.pb.obj
 0001:00008880       ??0UninterpretedOption@protobuf@google@@QAE@XZ 10009880 f   libprotobuf:descriptor.pb.obj
 0001:00008900       ??1?$RepeatedPtrField@V?$basic_string@DU?$char_traits@D@std@@V?$allocator@D@2@@std@@@protobuf@google@@QAE@XZ 10009900 f i libprotobuf:descriptor.pb.obj
 0001:00008960       ??1?$RepeatedPtrField@VEnumDescriptorProto@protobuf@google@@@protobuf@google@@QAE@XZ 10009960 f i libprotobuf:descriptor.pb.obj
 0001:00008960       ??1?$RepeatedPtrField@VOneofDescriptorProto@protobuf@google@@@protobuf@google@@QAE@XZ 10009960 f i libprotobuf:descriptor.pb.obj
 0001:00008960       ??1?$RepeatedPtrField@VUninterpretedOption_NamePart@protobuf@google@@@protobuf@google@@QAE@XZ 10009960 f i libprotobuf:descriptor.pb.obj
 0001:00008960       ??1?$RepeatedPtrField@VEnumValueDescriptorProto@protobuf@google@@@protobuf@google@@QAE@XZ 10009960 f i libprotobuf:descriptor.pb.obj
 0001:00008960       ??1?$RepeatedPtrField@VDescriptorProto@protobuf@google@@@protobuf@google@@QAE@XZ 10009960 f i libprotobuf:descriptor.pb.obj
 0001:00008960       ??1?$RepeatedPtrField@VDescriptorProto_ExtensionRange@protobuf@google@@@protobuf@google@@QAE@XZ 10009960 f i libprotobuf:descriptor.pb.obj
 0001:00008960       ??1?$RepeatedPtrField@VMethodDescriptorProto@protobuf@google@@@protobuf@google@@QAE@XZ 10009960 f i libprotobuf:descriptor.pb.obj
 0001:00008960       ??1?$RepeatedPtrField@VUninterpretedOption@protobuf@google@@@protobuf@google@@QAE@XZ 10009960 f i libprotobuf:descriptor.pb.obj
 0001:00008960       ??1?$RepeatedPtrField@VFieldDescriptorProto@protobuf@google@@@protobuf@google@@QAE@XZ 10009960 f i libprotobuf:descriptor.pb.obj
 0001:00008960       ??1?$RepeatedPtrField@VServiceDescriptorProto@protobuf@google@@@protobuf@google@@QAE@XZ 10009960 f i libprotobuf:descriptor.pb.obj
 0001:000089a0       ??1DescriptorProto@protobuf@google@@UAE@XZ 100099a0 f   libprotobuf:descriptor.pb.obj
 0001:00008ac0       ??1EnumDescriptorProto@protobuf@google@@UAE@XZ 10009ac0 f   libprotobuf:descriptor.pb.obj
 0001:00008b10       ??1EnumOptions@protobuf@google@@UAE@XZ 10009b10 f   libprotobuf:descriptor.pb.obj
 0001:00008b60       ??1EnumValueOptions@protobuf@google@@UAE@XZ 10009b60 f   libprotobuf:descriptor.pb.obj
 0001:00008bb0       ??1FieldOptions@protobuf@google@@UAE@XZ 10009bb0 f   libprotobuf:descriptor.pb.obj
 0001:00008c00       ??1FileDescriptorProto@protobuf@google@@UAE@XZ 10009c00 f   libprotobuf:descriptor.pb.obj
 0001:00008d30       ??1FileDescriptorSet@protobuf@google@@UAE@XZ 10009d30 f   libprotobuf:descriptor.pb.obj
 0001:00008d80       ??1FileOptions@protobuf@google@@UAE@XZ 10009d80 f   libprotobuf:descriptor.pb.obj
 0001:00008dd0       ??1MessageOptions@protobuf@google@@UAE@XZ 10009dd0 f   libprotobuf:descriptor.pb.obj
 0001:00008e20       ??1MethodOptions@protobuf@google@@UAE@XZ 10009e20 f   libprotobuf:descriptor.pb.obj
 0001:00008e70       ??1ServiceDescriptorProto@protobuf@google@@UAE@XZ 10009e70 f   libprotobuf:descriptor.pb.obj
 0001:00008ec0       ??1ServiceOptions@protobuf@google@@UAE@XZ 10009ec0 f   libprotobuf:descriptor.pb.obj
 0001:00008f10       ??1SourceCodeInfo@protobuf@google@@UAE@XZ 10009f10 f   libprotobuf:descriptor.pb.obj
 0001:00008f60       ??1UninterpretedOption@protobuf@google@@UAE@XZ 10009f60 f   libprotobuf:descriptor.pb.obj
 0001:00008fb0       ??_GClosure@protobuf@google@@UAEPAXI@Z 10009fb0 f i libprotobuf:descriptor.pb.obj
 0001:00008fb0       ??_EClosure@protobuf@google@@UAEPAXI@Z 10009fb0 f i libprotobuf:descriptor.pb.obj
 0001:00008fe0       ??_EDescriptorProto@protobuf@google@@UAEPAXI@Z 10009fe0 f i libprotobuf:descriptor.pb.obj
 0001:00008fe0       ??_GDescriptorProto@protobuf@google@@UAEPAXI@Z 10009fe0 f i libprotobuf:descriptor.pb.obj
 0001:00009010       ??_EDescriptorProto_ExtensionRange@protobuf@google@@UAEPAXI@Z 1000a010 f i libprotobuf:descriptor.pb.obj
 0001:00009010       ??_GDescriptorProto_ExtensionRange@protobuf@google@@UAEPAXI@Z 1000a010 f i libprotobuf:descriptor.pb.obj
 0001:00009050       ??_EEnumDescriptorProto@protobuf@google@@UAEPAXI@Z 1000a050 f i libprotobuf:descriptor.pb.obj
 0001:00009050       ??_GEnumDescriptorProto@protobuf@google@@UAEPAXI@Z 1000a050 f i libprotobuf:descriptor.pb.obj
 0001:00009080       ??_EEnumOptions@protobuf@google@@UAEPAXI@Z 1000a080 f i libprotobuf:descriptor.pb.obj
 0001:00009080       ??_GEnumOptions@protobuf@google@@UAEPAXI@Z 1000a080 f i libprotobuf:descriptor.pb.obj
 0001:000090b0       ??_EEnumValueDescriptorProto@protobuf@google@@UAEPAXI@Z 1000a0b0 f i libprotobuf:descriptor.pb.obj
 0001:000090b0       ??_GEnumValueDescriptorProto@protobuf@google@@UAEPAXI@Z 1000a0b0 f i libprotobuf:descriptor.pb.obj
 0001:000090f0       ??_EEnumValueOptions@protobuf@google@@UAEPAXI@Z 1000a0f0 f i libprotobuf:descriptor.pb.obj
 0001:000090f0       ??_GEnumValueOptions@protobuf@google@@UAEPAXI@Z 1000a0f0 f i libprotobuf:descriptor.pb.obj
 0001:00009120       ??_GFieldDescriptorProto@protobuf@google@@UAEPAXI@Z 1000a120 f i libprotobuf:descriptor.pb.obj
 0001:00009120       ??_EFieldDescriptorProto@protobuf@google@@UAEPAXI@Z 1000a120 f i libprotobuf:descriptor.pb.obj
 0001:00009160       ??_EFieldOptions@protobuf@google@@UAEPAXI@Z 1000a160 f i libprotobuf:descriptor.pb.obj
 0001:00009160       ??_GFieldOptions@protobuf@google@@UAEPAXI@Z 1000a160 f i libprotobuf:descriptor.pb.obj
 0001:00009190       ??_EFileDescriptorProto@protobuf@google@@UAEPAXI@Z 1000a190 f i libprotobuf:descriptor.pb.obj
 0001:00009190       ??_GFileDescriptorProto@protobuf@google@@UAEPAXI@Z 1000a190 f i libprotobuf:descriptor.pb.obj
 0001:000091c0       ??_EFileDescriptorSet@protobuf@google@@UAEPAXI@Z 1000a1c0 f i libprotobuf:descriptor.pb.obj
 0001:000091c0       ??_GFileDescriptorSet@protobuf@google@@UAEPAXI@Z 1000a1c0 f i libprotobuf:descriptor.pb.obj
 0001:000091f0       ??_GFileOptions@protobuf@google@@UAEPAXI@Z 1000a1f0 f i libprotobuf:descriptor.pb.obj
 0001:000091f0       ??_EFileOptions@protobuf@google@@UAEPAXI@Z 1000a1f0 f i libprotobuf:descriptor.pb.obj
 0001:00009220       ??_GFunctionClosure0@internal@protobuf@google@@UAEPAXI@Z 1000a220 f i libprotobuf:descriptor.pb.obj
 0001:00009220       ??_EFunctionClosure0@internal@protobuf@google@@UAEPAXI@Z 1000a220 f i libprotobuf:descriptor.pb.obj
 0001:00009250       ??_EMessage@protobuf@google@@UAEPAXI@Z 1000a250 f i libprotobuf:descriptor.pb.obj
 0001:00009250       ??_GMessage@protobuf@google@@UAEPAXI@Z 1000a250 f i libprotobuf:descriptor.pb.obj
 0001:00009280       ??_GMessageLite@protobuf@google@@UAEPAXI@Z 1000a280 f i libprotobuf:descriptor.pb.obj
 0001:00009280       ??_EMessageLite@protobuf@google@@UAEPAXI@Z 1000a280 f i libprotobuf:descriptor.pb.obj
 0001:000092b0       ??_EMessageOptions@protobuf@google@@UAEPAXI@Z 1000a2b0 f i libprotobuf:descriptor.pb.obj
 0001:000092b0       ??_GMessageOptions@protobuf@google@@UAEPAXI@Z 1000a2b0 f i libprotobuf:descriptor.pb.obj
 0001:000092e0       ??_EMethodDescriptorProto@protobuf@google@@UAEPAXI@Z 1000a2e0 f i libprotobuf:descriptor.pb.obj
 0001:000092e0       ??_GMethodDescriptorProto@protobuf@google@@UAEPAXI@Z 1000a2e0 f i libprotobuf:descriptor.pb.obj
 0001:00009320       ??_GMethodOptions@protobuf@google@@UAEPAXI@Z 1000a320 f i libprotobuf:descriptor.pb.obj
 0001:00009320       ??_EMethodOptions@protobuf@google@@UAEPAXI@Z 1000a320 f i libprotobuf:descriptor.pb.obj
 0001:00009350       ??_EOneofDescriptorProto@protobuf@google@@UAEPAXI@Z 1000a350 f i libprotobuf:descriptor.pb.obj
 0001:00009350       ??_GOneofDescriptorProto@protobuf@google@@UAEPAXI@Z 1000a350 f i libprotobuf:descriptor.pb.obj
 0001:00009390       ??_EServiceDescriptorProto@protobuf@google@@UAEPAXI@Z 1000a390 f i libprotobuf:descriptor.pb.obj
 0001:00009390       ??_GServiceDescriptorProto@protobuf@google@@UAEPAXI@Z 1000a390 f i libprotobuf:descriptor.pb.obj
 0001:000093c0       ??_GServiceOptions@protobuf@google@@UAEPAXI@Z 1000a3c0 f i libprotobuf:descriptor.pb.obj
 0001:000093c0       ??_EServiceOptions@protobuf@google@@UAEPAXI@Z 1000a3c0 f i libprotobuf:descriptor.pb.obj
 0001:000093f0       ??_ESourceCodeInfo@protobuf@google@@UAEPAXI@Z 1000a3f0 f i libprotobuf:descriptor.pb.obj
 0001:000093f0       ??_GSourceCodeInfo@protobuf@google@@UAEPAXI@Z 1000a3f0 f i libprotobuf:descriptor.pb.obj
 0001:00009420       ??_GSourceCodeInfo_Location@protobuf@google@@UAEPAXI@Z 1000a420 f i libprotobuf:descriptor.pb.obj
 0001:00009420       ??_ESourceCodeInfo_Location@protobuf@google@@UAEPAXI@Z 1000a420 f i libprotobuf:descriptor.pb.obj
 0001:00009470       ??_EUninterpretedOption@protobuf@google@@UAEPAXI@Z 1000a470 f i libprotobuf:descriptor.pb.obj
 0001:00009470       ??_GUninterpretedOption@protobuf@google@@UAEPAXI@Z 1000a470 f i libprotobuf:descriptor.pb.obj
 0001:000094a0       ??_EUninterpretedOption_NamePart@protobuf@google@@UAEPAXI@Z 1000a4a0 f i libprotobuf:descriptor.pb.obj
 0001:000094a0       ??_GUninterpretedOption_NamePart@protobuf@google@@UAEPAXI@Z 1000a4a0 f i libprotobuf:descriptor.pb.obj
 0001:000094e0       ?ByteSize@DescriptorProto@protobuf@google@@UBEHXZ 1000a4e0 f   libprotobuf:descriptor.pb.obj
 0001:00009790       ?ByteSize@DescriptorProto_ExtensionRange@protobuf@google@@UBEHXZ 1000a790 f   libprotobuf:descriptor.pb.obj
 0001:00009820       ?ByteSize@EnumDescriptorProto@protobuf@google@@UBEHXZ 1000a820 f   libprotobuf:descriptor.pb.obj
 0001:00009930       ?ByteSize@EnumOptions@protobuf@google@@UBEHXZ 1000a930 f   libprotobuf:descriptor.pb.obj
 0001:000099f0       ?ByteSize@EnumValueDescriptorProto@protobuf@google@@UBEHXZ 1000a9f0 f   libprotobuf:descriptor.pb.obj
 0001:00009ac0       ?ByteSize@EnumValueOptions@protobuf@google@@UBEHXZ 1000aac0 f   libprotobuf:descriptor.pb.obj
 0001:00009b70       ?ByteSize@FieldDescriptorProto@protobuf@google@@UBEHXZ 1000ab70 f   libprotobuf:descriptor.pb.obj
 0001:00009d70       ?ByteSize@FieldOptions@protobuf@google@@UBEHXZ 1000ad70 f   libprotobuf:descriptor.pb.obj
 0001:00009ea0       ?ByteSize@FileDescriptorProto@protobuf@google@@UBEHXZ 1000aea0 f   libprotobuf:descriptor.pb.obj
 0001:0000a1d0       ?ByteSize@FileDescriptorSet@protobuf@google@@UBEHXZ 1000b1d0 f   libprotobuf:descriptor.pb.obj
 0001:0000a260       ?ByteSize@FileOptions@protobuf@google@@UBEHXZ 1000b260 f   libprotobuf:descriptor.pb.obj
 0001:0000a420       ?ByteSize@MessageOptions@protobuf@google@@UBEHXZ 1000b420 f   libprotobuf:descriptor.pb.obj
 0001:0000a4f0       ?ByteSize@MethodDescriptorProto@protobuf@google@@UBEHXZ 1000b4f0 f   libprotobuf:descriptor.pb.obj
 0001:0000a5f0       ?ByteSize@ServiceOptions@protobuf@google@@UBEHXZ 1000b5f0 f   libprotobuf:descriptor.pb.obj
 0001:0000a5f0       ?ByteSize@MethodOptions@protobuf@google@@UBEHXZ 1000b5f0 f   libprotobuf:descriptor.pb.obj
 0001:0000a6a0       ?ByteSize@OneofDescriptorProto@protobuf@google@@UBEHXZ 1000b6a0 f   libprotobuf:descriptor.pb.obj
 0001:0000a700       ?ByteSize@ServiceDescriptorProto@protobuf@google@@UBEHXZ 1000b700 f   libprotobuf:descriptor.pb.obj
 0001:0000a810       ?ByteSize@SourceCodeInfo@protobuf@google@@UBEHXZ 1000b810 f   libprotobuf:descriptor.pb.obj
 0001:0000a8a0       ?ByteSize@SourceCodeInfo_Location@protobuf@google@@UBEHXZ 1000b8a0 f   libprotobuf:descriptor.pb.obj
 0001:0000aa30       ?ByteSize@UninterpretedOption@protobuf@google@@UBEHXZ 1000ba30 f   libprotobuf:descriptor.pb.obj
 0001:0000ac10       ?ByteSize@UninterpretedOption_NamePart@protobuf@google@@UBEHXZ 1000bc10 f   libprotobuf:descriptor.pb.obj
 0001:0000ac80       ?Clear@DescriptorProto@protobuf@google@@UAEXXZ 1000bc80 f   libprotobuf:descriptor.pb.obj
 0001:0000ada0       ?Clear@DescriptorProto_ExtensionRange@protobuf@google@@UAEXXZ 1000bda0 f   libprotobuf:descriptor.pb.obj
 0001:0000adc0       ?Clear@EnumDescriptorProto@protobuf@google@@UAEXXZ 1000bdc0 f   libprotobuf:descriptor.pb.obj
 0001:0000ae40       ?Clear@EnumOptions@protobuf@google@@UAEXXZ 1000be40 f   libprotobuf:descriptor.pb.obj
 0001:0000ae90       ?Clear@EnumValueDescriptorProto@protobuf@google@@UAEXXZ 1000be90 f   libprotobuf:descriptor.pb.obj
 0001:0000aef0       ?Clear@FieldDescriptorProto@protobuf@google@@UAEXXZ 1000bef0 f   libprotobuf:descriptor.pb.obj
 0001:0000afe0       ?Clear@FieldOptions@protobuf@google@@UAEXXZ 1000bfe0 f   libprotobuf:descriptor.pb.obj
 0001:0000b060       ?Clear@FileDescriptorProto@protobuf@google@@UAEXXZ 1000c060 f   libprotobuf:descriptor.pb.obj
 0001:0000b1a0       ?Clear@FileOptions@protobuf@google@@UAEXXZ 1000c1a0 f   libprotobuf:descriptor.pb.obj
 0001:0000b270       ?Clear@MessageOptions@protobuf@google@@UAEXXZ 1000c270 f   libprotobuf:descriptor.pb.obj
 0001:0000b2c0       ?Clear@MethodDescriptorProto@protobuf@google@@UAEXXZ 1000c2c0 f   libprotobuf:descriptor.pb.obj
 0001:0000b370       ?Clear@OneofDescriptorProto@protobuf@google@@UAEXXZ 1000c370 f   libprotobuf:descriptor.pb.obj
 0001:0000b3b0       ?Clear@ServiceDescriptorProto@protobuf@google@@UAEXXZ 1000c3b0 f   libprotobuf:descriptor.pb.obj
 0001:0000b430       ?Clear@MethodOptions@protobuf@google@@UAEXXZ 1000c430 f   libprotobuf:descriptor.pb.obj
 0001:0000b430       ?Clear@EnumValueOptions@protobuf@google@@UAEXXZ 1000c430 f   libprotobuf:descriptor.pb.obj
 0001:0000b430       ?Clear@ServiceOptions@protobuf@google@@UAEXXZ 1000c430 f   libprotobuf:descriptor.pb.obj
 0001:0000b480       ?Clear@FileDescriptorSet@protobuf@google@@UAEXXZ 1000c480 f   libprotobuf:descriptor.pb.obj
 0001:0000b480       ?Clear@SourceCodeInfo@protobuf@google@@UAEXXZ 1000c480 f   libprotobuf:descriptor.pb.obj
 0001:0000b4c0       ?Clear@SourceCodeInfo_Location@protobuf@google@@UAEXXZ 1000c4c0 f   libprotobuf:descriptor.pb.obj
 0001:0000b540       ?Clear@UninterpretedOption@protobuf@google@@UAEXXZ 1000c540 f   libprotobuf:descriptor.pb.obj
 0001:0000b610       ?Clear@UninterpretedOption_NamePart@protobuf@google@@UAEXXZ 1000c610 f   libprotobuf:descriptor.pb.obj
 0001:0000b660       ?CopyFrom@EnumOptions@protobuf@google@@QAEXABV123@@Z 1000c660 f   libprotobuf:descriptor.pb.obj
 0001:0000b680       ?CopyFrom@EnumValueOptions@protobuf@google@@QAEXABV123@@Z 1000c680 f   libprotobuf:descriptor.pb.obj
 0001:0000b6a0       ?CopyFrom@FieldOptions@protobuf@google@@QAEXABV123@@Z 1000c6a0 f   libprotobuf:descriptor.pb.obj
 0001:0000b6c0       ?CopyFrom@FileOptions@protobuf@google@@QAEXABV123@@Z 1000c6c0 f   libprotobuf:descriptor.pb.obj
 0001:0000b6e0       ?CopyFrom@MessageOptions@protobuf@google@@QAEXABV123@@Z 1000c6e0 f   libprotobuf:descriptor.pb.obj
 0001:0000b700       ?CopyFrom@MethodOptions@protobuf@google@@QAEXABV123@@Z 1000c700 f   libprotobuf:descriptor.pb.obj
 0001:0000b720       ?CopyFrom@ServiceOptions@protobuf@google@@QAEXABV123@@Z 1000c720 f   libprotobuf:descriptor.pb.obj
 0001:0000b740       ?CopyFrom@SourceCodeInfo@protobuf@google@@QAEXABV123@@Z 1000c740 f   libprotobuf:descriptor.pb.obj
 0001:0000b760       ?CopyFrom@FileOptions@protobuf@google@@UAEXABVMessage@23@@Z 1000c760 f   libprotobuf:descriptor.pb.obj
 0001:0000b760       ?CopyFrom@SourceCodeInfo@protobuf@google@@UAEXABVMessage@23@@Z 1000c760 f   libprotobuf:descriptor.pb.obj
 0001:0000b760       ?CopyFrom@UninterpretedOption@protobuf@google@@UAEXABVMessage@23@@Z 1000c760 f   libprotobuf:descriptor.pb.obj
 0001:0000b760       ?CopyFrom@DescriptorProto@protobuf@google@@UAEXABVMessage@23@@Z 1000c760 f   libprotobuf:descriptor.pb.obj
 0001:0000b760       ?CopyFrom@FileDescriptorProto@protobuf@google@@UAEXABVMessage@23@@Z 1000c760 f   libprotobuf:descriptor.pb.obj
 0001:0000b760       ?CopyFrom@FieldDescriptorProto@protobuf@google@@UAEXABVMessage@23@@Z 1000c760 f   libprotobuf:descriptor.pb.obj
 0001:0000b760       ?CopyFrom@EnumValueDescriptorProto@protobuf@google@@UAEXABVMessage@23@@Z 1000c760 f   libprotobuf:descriptor.pb.obj
 0001:0000b760       ?CopyFrom@EnumValueOptions@protobuf@google@@UAEXABVMessage@23@@Z 1000c760 f   libprotobuf:descriptor.pb.obj
 0001:0000b760       ?CopyFrom@MessageOptions@protobuf@google@@UAEXABVMessage@23@@Z 1000c760 f   libprotobuf:descriptor.pb.obj
 0001:0000b760       ?CopyFrom@EnumOptions@protobuf@google@@UAEXABVMessage@23@@Z 1000c760 f   libprotobuf:descriptor.pb.obj
 0001:0000b760       ?CopyFrom@UninterpretedOption_NamePart@protobuf@google@@UAEXABVMessage@23@@Z 1000c760 f   libprotobuf:descriptor.pb.obj
 0001:0000b760       ?CopyFrom@ServiceOptions@protobuf@google@@UAEXABVMessage@23@@Z 1000c760 f   libprotobuf:descriptor.pb.obj
 0001:0000b760       ?CopyFrom@EnumDescriptorProto@protobuf@google@@UAEXABVMessage@23@@Z 1000c760 f   libprotobuf:descriptor.pb.obj
 0001:0000b760       ?CopyFrom@SourceCodeInfo_Location@protobuf@google@@UAEXABVMessage@23@@Z 1000c760 f   libprotobuf:descriptor.pb.obj
 0001:0000b760       ?CopyFrom@ServiceDescriptorProto@protobuf@google@@UAEXABVMessage@23@@Z 1000c760 f   libprotobuf:descriptor.pb.obj
 0001:0000b760       ?CopyFrom@MethodOptions@protobuf@google@@UAEXABVMessage@23@@Z 1000c760 f   libprotobuf:descriptor.pb.obj
 0001:0000b760       ?CopyFrom@OneofDescriptorProto@protobuf@google@@UAEXABVMessage@23@@Z 1000c760 f   libprotobuf:descriptor.pb.obj
 0001:0000b760       ?CopyFrom@FileDescriptorSet@protobuf@google@@UAEXABVMessage@23@@Z 1000c760 f   libprotobuf:descriptor.pb.obj
 0001:0000b760       ?CopyFrom@FieldOptions@protobuf@google@@UAEXABVMessage@23@@Z 1000c760 f   libprotobuf:descriptor.pb.obj
 0001:0000b760       ?CopyFrom@MethodDescriptorProto@protobuf@google@@UAEXABVMessage@23@@Z 1000c760 f   libprotobuf:descriptor.pb.obj
 0001:0000b760       ?CopyFrom@DescriptorProto_ExtensionRange@protobuf@google@@UAEXABVMessage@23@@Z 1000c760 f   libprotobuf:descriptor.pb.obj
 0001:0000b780       ?ExpectAtEnd@CodedInputStream@io@protobuf@google@@QAE_NXZ 1000c780 f i libprotobuf:descriptor.pb.obj
 0001:0000b7b0       ?GetMetadata@DescriptorProto@protobuf@google@@UBE?AUMetadata@23@XZ 1000c7b0 f   libprotobuf:descriptor.pb.obj
 0001:0000b840       ?GetMetadata@DescriptorProto_ExtensionRange@protobuf@google@@UBE?AUMetadata@23@XZ 1000c840 f   libprotobuf:descriptor.pb.obj
 0001:0000b8d0       ?GetMetadata@EnumDescriptorProto@protobuf@google@@UBE?AUMetadata@23@XZ 1000c8d0 f   libprotobuf:descriptor.pb.obj
 0001:0000b960       ?GetMetadata@EnumOptions@protobuf@google@@UBE?AUMetadata@23@XZ 1000c960 f   libprotobuf:descriptor.pb.obj
 0001:0000b9f0       ?GetMetadata@EnumValueDescriptorProto@protobuf@google@@UBE?AUMetadata@23@XZ 1000c9f0 f   libprotobuf:descriptor.pb.obj
 0001:0000ba80       ?GetMetadata@EnumValueOptions@protobuf@google@@UBE?AUMetadata@23@XZ 1000ca80 f   libprotobuf:descriptor.pb.obj
 0001:0000bb10       ?GetMetadata@FieldDescriptorProto@protobuf@google@@UBE?AUMetadata@23@XZ 1000cb10 f   libprotobuf:descriptor.pb.obj
 0001:0000bba0       ?GetMetadata@FieldOptions@protobuf@google@@UBE?AUMetadata@23@XZ 1000cba0 f   libprotobuf:descriptor.pb.obj
 0001:0000bc30       ?GetMetadata@FileDescriptorProto@protobuf@google@@UBE?AUMetadata@23@XZ 1000cc30 f   libprotobuf:descriptor.pb.obj
 0001:0000bcc0       ?GetMetadata@FileDescriptorSet@protobuf@google@@UBE?AUMetadata@23@XZ 1000ccc0 f   libprotobuf:descriptor.pb.obj
 0001:0000bd50       ?GetMetadata@FileOptions@protobuf@google@@UBE?AUMetadata@23@XZ 1000cd50 f   libprotobuf:descriptor.pb.obj
 0001:0000bde0       ?GetMetadata@MessageOptions@protobuf@google@@UBE?AUMetadata@23@XZ 1000cde0 f   libprotobuf:descriptor.pb.obj
 0001:0000be70       ?GetMetadata@MethodDescriptorProto@protobuf@google@@UBE?AUMetadata@23@XZ 1000ce70 f   libprotobuf:descriptor.pb.obj
 0001:0000bf00       ?GetMetadata@MethodOptions@protobuf@google@@UBE?AUMetadata@23@XZ 1000cf00 f   libprotobuf:descriptor.pb.obj
 0001:0000bfa0       ?GetMetadata@OneofDescriptorProto@protobuf@google@@UBE?AUMetadata@23@XZ 1000cfa0 f   libprotobuf:descriptor.pb.obj
 0001:0000c030       ?GetMetadata@ServiceDescriptorProto@protobuf@google@@UBE?AUMetadata@23@XZ 1000d030 f   libprotobuf:descriptor.pb.obj
 0001:0000c0c0       ?GetMetadata@ServiceOptions@protobuf@google@@UBE?AUMetadata@23@XZ 1000d0c0 f   libprotobuf:descriptor.pb.obj
 0001:0000c150       ?GetMetadata@SourceCodeInfo@protobuf@google@@UBE?AUMetadata@23@XZ 1000d150 f   libprotobuf:descriptor.pb.obj
 0001:0000c1e0       ?GetMetadata@SourceCodeInfo_Location@protobuf@google@@UBE?AUMetadata@23@XZ 1000d1e0 f   libprotobuf:descriptor.pb.obj
 0001:0000c270       ?GetMetadata@UninterpretedOption@protobuf@google@@UBE?AUMetadata@23@XZ 1000d270 f   libprotobuf:descriptor.pb.obj
 0001:0000c300       ?GetMetadata@UninterpretedOption_NamePart@protobuf@google@@UBE?AUMetadata@23@XZ 1000d300 f   libprotobuf:descriptor.pb.obj
 0001:0000c390       ?GetReflection@Message@protobuf@google@@UBEPBVReflection@23@XZ 1000d390 f i libprotobuf:descriptor.pb.obj
 0001:0000c3b0       ?GoogleOnceInit@protobuf@google@@YAXPAHP6AXXZ@Z 1000d3b0 f i libprotobuf:descriptor.pb.obj
 0001:0000c420       ?IsInitialized@DescriptorProto@protobuf@google@@UBE_NXZ 1000d420 f   libprotobuf:descriptor.pb.obj
 0001:0000c490       ?IsInitialized@SourceCodeInfo@protobuf@google@@UBE_NXZ 1000d490 f   libprotobuf:descriptor.pb.obj
 0001:0000c490       ?IsInitialized@DescriptorProto_ExtensionRange@protobuf@google@@UBE_NXZ 1000d490 f   libprotobuf:descriptor.pb.obj
 0001:0000c490       ?IsInitialized@SourceCodeInfo_Location@protobuf@google@@UBE_NXZ 1000d490 f   libprotobuf:descriptor.pb.obj
 0001:0000c490       ?IsInitialized@OneofDescriptorProto@protobuf@google@@UBE_NXZ 1000d490 f   libprotobuf:descriptor.pb.obj
 0001:0000c490       ___acrt_uninitialize_command_line 1000d490 f   libucrt:argv_data.obj
 0001:0000c4a0       ?IsInitialized@EnumDescriptorProto@protobuf@google@@UBE_NXZ 1000d4a0 f   libprotobuf:descriptor.pb.obj
 0001:0000c4e0       ?IsInitialized@EnumValueDescriptorProto@protobuf@google@@UBE_NXZ 1000d4e0 f   libprotobuf:descriptor.pb.obj
 0001:0000c510       ?IsInitialized@EnumValueOptions@protobuf@google@@UBE_NXZ 1000d510 f   libprotobuf:descriptor.pb.obj
 0001:0000c510       ?IsInitialized@EnumOptions@protobuf@google@@UBE_NXZ 1000d510 f   libprotobuf:descriptor.pb.obj
 0001:0000c510       ?IsInitialized@MessageOptions@protobuf@google@@UBE_NXZ 1000d510 f   libprotobuf:descriptor.pb.obj
 0001:0000c510       ?IsInitialized@ServiceOptions@protobuf@google@@UBE_NXZ 1000d510 f   libprotobuf:descriptor.pb.obj
 0001:0000c510       ?IsInitialized@MethodOptions@protobuf@google@@UBE_NXZ 1000d510 f   libprotobuf:descriptor.pb.obj
 0001:0000c540       ?IsInitialized@FieldDescriptorProto@protobuf@google@@UBE_NXZ 1000d540 f   libprotobuf:descriptor.pb.obj
 0001:0000c570       ?IsInitialized@FieldOptions@protobuf@google@@UBE_NXZ 1000d570 f   libprotobuf:descriptor.pb.obj
 0001:0000c5a0       ?IsInitialized@FileDescriptorProto@protobuf@google@@UBE_NXZ 1000d5a0 f   libprotobuf:descriptor.pb.obj
 0001:0000c610       ?IsInitialized@FileOptions@protobuf@google@@UBE_NXZ 1000d610 f   libprotobuf:descriptor.pb.obj
 0001:0000c640       ?IsInitialized@MethodDescriptorProto@protobuf@google@@UBE_NXZ 1000d640 f   libprotobuf:descriptor.pb.obj
 0001:0000c670       ?IsInitialized@ServiceDescriptorProto@protobuf@google@@UBE_NXZ 1000d670 f   libprotobuf:descriptor.pb.obj
 0001:0000c6b0       ?IsInitialized@FileDescriptorSet@protobuf@google@@UBE_NXZ 1000d6b0 f   libprotobuf:descriptor.pb.obj
 0001:0000c6b0       ?IsInitialized@UninterpretedOption@protobuf@google@@UBE_NXZ 1000d6b0 f   libprotobuf:descriptor.pb.obj
 0001:0000c6d0       ?IsInitialized@UninterpretedOption_NamePart@protobuf@google@@UBE_NXZ 1000d6d0 f   libprotobuf:descriptor.pb.obj
 0001:0000c6e0       ?MergeFrom@?$RepeatedField@H@protobuf@google@@QAEXABV123@@Z 1000d6e0 f i libprotobuf:descriptor.pb.obj
 0001:0000c7c0       ?MergeFrom@DescriptorProto@protobuf@google@@QAEXABV123@@Z 1000d7c0 f   libprotobuf:descriptor.pb.obj
 0001:0000c930       ?MergeFrom@DescriptorProto@protobuf@google@@UAEXABVMessage@23@@Z 1000d930 f   libprotobuf:descriptor.pb.obj
 0001:0000ca00       ?MergeFrom@DescriptorProto_ExtensionRange@protobuf@google@@QAEXABV123@@Z 1000da00 f   libprotobuf:descriptor.pb.obj
 0001:0000cae0       ?MergeFrom@DescriptorProto_ExtensionRange@protobuf@google@@UAEXABVMessage@23@@Z 1000dae0 f   libprotobuf:descriptor.pb.obj
 0001:0000cbb0       ?MergeFrom@EnumDescriptorProto@protobuf@google@@QAEXABV123@@Z 1000dbb0 f   libprotobuf:descriptor.pb.obj
 0001:0000cce0       ?MergeFrom@EnumDescriptorProto@protobuf@google@@UAEXABVMessage@23@@Z 1000dce0 f   libprotobuf:descriptor.pb.obj
 0001:0000cdb0       ?MergeFrom@EnumOptions@protobuf@google@@QAEXABV123@@Z 1000ddb0 f   libprotobuf:descriptor.pb.obj
 0001:0000cea0       ?MergeFrom@EnumOptions@protobuf@google@@UAEXABVMessage@23@@Z 1000dea0 f   libprotobuf:descriptor.pb.obj
 0001:0000cf70       ?MergeFrom@EnumValueDescriptorProto@protobuf@google@@QAEXABV123@@Z 1000df70 f   libprotobuf:descriptor.pb.obj
 0001:0000d0a0       ?MergeFrom@EnumValueDescriptorProto@protobuf@google@@UAEXABVMessage@23@@Z 1000e0a0 f   libprotobuf:descriptor.pb.obj
 0001:0000d170       ?MergeFrom@EnumValueOptions@protobuf@google@@QAEXABV123@@Z 1000e170 f   libprotobuf:descriptor.pb.obj
 0001:0000d250       ?MergeFrom@EnumValueOptions@protobuf@google@@UAEXABVMessage@23@@Z 1000e250 f   libprotobuf:descriptor.pb.obj
 0001:0000d320       ?MergeFrom@FieldDescriptorProto@protobuf@google@@QAEXABV123@@Z 1000e320 f   libprotobuf:descriptor.pb.obj
 0001:0000d4e0       ?MergeFrom@FieldDescriptorProto@protobuf@google@@UAEXABVMessage@23@@Z 1000e4e0 f   libprotobuf:descriptor.pb.obj
 0001:0000d5b0       ?MergeFrom@FieldOptions@protobuf@google@@QAEXABV123@@Z 1000e5b0 f   libprotobuf:descriptor.pb.obj
 0001:0000d6f0       ?MergeFrom@FieldOptions@protobuf@google@@UAEXABVMessage@23@@Z 1000e6f0 f   libprotobuf:descriptor.pb.obj
 0001:0000d7c0       ?MergeFrom@FileDescriptorProto@protobuf@google@@QAEXABV123@@Z 1000e7c0 f   libprotobuf:descriptor.pb.obj
 0001:0000d950       ?MergeFrom@FileDescriptorProto@protobuf@google@@UAEXABVMessage@23@@Z 1000e950 f   libprotobuf:descriptor.pb.obj
 0001:0000da20       ?MergeFrom@FileDescriptorSet@protobuf@google@@QAEXABV123@@Z 1000ea20 f   libprotobuf:descriptor.pb.obj
 0001:0000dae0       ?MergeFrom@FileDescriptorSet@protobuf@google@@UAEXABVMessage@23@@Z 1000eae0 f   libprotobuf:descriptor.pb.obj
 0001:0000dbb0       ?MergeFrom@FileOptions@protobuf@google@@QAEXABV123@@Z 1000ebb0 f   libprotobuf:descriptor.pb.obj
 0001:0000dd70       ?MergeFrom@FileOptions@protobuf@google@@UAEXABVMessage@23@@Z 1000ed70 f   libprotobuf:descriptor.pb.obj
 0001:0000de40       ?MergeFrom@MessageOptions@protobuf@google@@QAEXABV123@@Z 1000ee40 f   libprotobuf:descriptor.pb.obj
 0001:0000df40       ?MergeFrom@MessageOptions@protobuf@google@@UAEXABVMessage@23@@Z 1000ef40 f   libprotobuf:descriptor.pb.obj
 0001:0000e010       ?MergeFrom@MethodDescriptorProto@protobuf@google@@QAEXABV123@@Z 1000f010 f   libprotobuf:descriptor.pb.obj
 0001:0000e160       ?MergeFrom@MethodDescriptorProto@protobuf@google@@UAEXABVMessage@23@@Z 1000f160 f   libprotobuf:descriptor.pb.obj
 0001:0000e230       ?MergeFrom@MethodOptions@protobuf@google@@QAEXABV123@@Z 1000f230 f   libprotobuf:descriptor.pb.obj
 0001:0000e310       ?MergeFrom@MethodOptions@protobuf@google@@UAEXABVMessage@23@@Z 1000f310 f   libprotobuf:descriptor.pb.obj
 0001:0000e3e0       ?MergeFrom@OneofDescriptorProto@protobuf@google@@QAEXABV123@@Z 1000f3e0 f   libprotobuf:descriptor.pb.obj
 0001:0000e4b0       ?MergeFrom@OneofDescriptorProto@protobuf@google@@UAEXABVMessage@23@@Z 1000f4b0 f   libprotobuf:descriptor.pb.obj
 0001:0000e580       ?MergeFrom@ServiceDescriptorProto@protobuf@google@@QAEXABV123@@Z 1000f580 f   libprotobuf:descriptor.pb.obj
 0001:0000e6b0       ?MergeFrom@ServiceDescriptorProto@protobuf@google@@UAEXABVMessage@23@@Z 1000f6b0 f   libprotobuf:descriptor.pb.obj
 0001:0000e780       ?MergeFrom@ServiceOptions@protobuf@google@@QAEXABV123@@Z 1000f780 f   libprotobuf:descriptor.pb.obj
 0001:0000e860       ?MergeFrom@ServiceOptions@protobuf@google@@UAEXABVMessage@23@@Z 1000f860 f   libprotobuf:descriptor.pb.obj
 0001:0000e930       ?MergeFrom@SourceCodeInfo@protobuf@google@@QAEXABV123@@Z 1000f930 f   libprotobuf:descriptor.pb.obj
 0001:0000e9f0       ?MergeFrom@SourceCodeInfo@protobuf@google@@UAEXABVMessage@23@@Z 1000f9f0 f   libprotobuf:descriptor.pb.obj
 0001:0000eac0       ?MergeFrom@SourceCodeInfo_Location@protobuf@google@@QAEXABV123@@Z 1000fac0 f   libprotobuf:descriptor.pb.obj
 0001:0000ebc0       ?MergeFrom@SourceCodeInfo_Location@protobuf@google@@UAEXABVMessage@23@@Z 1000fbc0 f   libprotobuf:descriptor.pb.obj
 0001:0000ec90       ?MergeFrom@UninterpretedOption@protobuf@google@@QAEXABV123@@Z 1000fc90 f   libprotobuf:descriptor.pb.obj
 0001:0000ede0       ?MergeFrom@UninterpretedOption@protobuf@google@@UAEXABVMessage@23@@Z 1000fde0 f   libprotobuf:descriptor.pb.obj
 0001:0000eeb0       ?MergeFrom@UninterpretedOption_NamePart@protobuf@google@@QAEXABV123@@Z 1000feb0 f   libprotobuf:descriptor.pb.obj
 0001:0000ef90       ?MergeFrom@UninterpretedOption_NamePart@protobuf@google@@UAEXABVMessage@23@@Z 1000ff90 f   libprotobuf:descriptor.pb.obj
 0001:0000f060       ?MergePartialFromCodedStream@DescriptorProto@protobuf@google@@UAE_NPAVCodedInputStream@io@23@@Z 10010060 f   libprotobuf:descriptor.pb.obj
 0001:0000f510       ?MergePartialFromCodedStream@DescriptorProto_ExtensionRange@protobuf@google@@UAE_NPAVCodedInputStream@io@23@@Z 10010510 f   libprotobuf:descriptor.pb.obj
 0001:0000f660       ?MergePartialFromCodedStream@EnumDescriptorProto@protobuf@google@@UAE_NPAVCodedInputStream@io@23@@Z 10010660 f   libprotobuf:descriptor.pb.obj
 0001:0000f930       ?MergePartialFromCodedStream@EnumOptions@protobuf@google@@UAE_NPAVCodedInputStream@io@23@@Z 10010930 f   libprotobuf:descriptor.pb.obj
 0001:0000fbd0       ?MergePartialFromCodedStream@EnumValueDescriptorProto@protobuf@google@@UAE_NPAVCodedInputStream@io@23@@Z 10010bd0 f   libprotobuf:descriptor.pb.obj
 0001:0000fde0       ?MergePartialFromCodedStream@EnumValueOptions@protobuf@google@@UAE_NPAVCodedInputStream@io@23@@Z 10010de0 f   libprotobuf:descriptor.pb.obj
 0001:00010080       ?MergePartialFromCodedStream@FieldDescriptorProto@protobuf@google@@UAE_NPAVCodedInputStream@io@23@@Z 10011080 f   libprotobuf:descriptor.pb.obj
 0001:00010380       ?MergePartialFromCodedStream@FieldOptions@protobuf@google@@UAE_NPAVCodedInputStream@io@23@@Z 10011380 f   libprotobuf:descriptor.pb.obj
 0001:00010770       ?MergePartialFromCodedStream@FileDescriptorProto@protobuf@google@@UAE_NPAVCodedInputStream@io@23@@Z 10011770 f   libprotobuf:descriptor.pb.obj
 0001:00010d00       ?MergePartialFromCodedStream@FileDescriptorSet@protobuf@google@@UAE_NPAVCodedInputStream@io@23@@Z 10011d00 f   libprotobuf:descriptor.pb.obj
 0001:00010ef0       ?MergePartialFromCodedStream@FileOptions@protobuf@google@@UAE_NPAVCodedInputStream@io@23@@Z 10011ef0 f   libprotobuf:descriptor.pb.obj
 0001:000114d0       ?MergePartialFromCodedStream@MessageOptions@protobuf@google@@UAE_NPAVCodedInputStream@io@23@@Z 100124d0 f   libprotobuf:descriptor.pb.obj
 0001:000117d0       ?MergePartialFromCodedStream@MethodDescriptorProto@protobuf@google@@UAE_NPAVCodedInputStream@io@23@@Z 100127d0 f   libprotobuf:descriptor.pb.obj
 0001:00011aa0       ?MergePartialFromCodedStream@MethodOptions@protobuf@google@@UAE_NPAVCodedInputStream@io@23@@Z 10012aa0 f   libprotobuf:descriptor.pb.obj
 0001:00011d40       ?MergePartialFromCodedStream@OneofDescriptorProto@protobuf@google@@UAE_NPAVCodedInputStream@io@23@@Z 10012d40 f   libprotobuf:descriptor.pb.obj
 0001:00011e40       ?MergePartialFromCodedStream@ServiceDescriptorProto@protobuf@google@@UAE_NPAVCodedInputStream@io@23@@Z 10012e40 f   libprotobuf:descriptor.pb.obj
 0001:000120c0       ?MergePartialFromCodedStream@ServiceOptions@protobuf@google@@UAE_NPAVCodedInputStream@io@23@@Z 100130c0 f   libprotobuf:descriptor.pb.obj
 0001:00012360       ?MergePartialFromCodedStream@SourceCodeInfo@protobuf@google@@UAE_NPAVCodedInputStream@io@23@@Z 10013360 f   libprotobuf:descriptor.pb.obj
 0001:000125e0       ?MergePartialFromCodedStream@SourceCodeInfo_Location@protobuf@google@@UAE_NPAVCodedInputStream@io@23@@Z 100135e0 f   libprotobuf:descriptor.pb.obj
 0001:00012810       ?MergePartialFromCodedStream@UninterpretedOption@protobuf@google@@UAE_NPAVCodedInputStream@io@23@@Z 10013810 f   libprotobuf:descriptor.pb.obj
 0001:00012b50       ?MergePartialFromCodedStream@UninterpretedOption_NamePart@protobuf@google@@UAE_NPAVCodedInputStream@io@23@@Z 10013b50 f   libprotobuf:descriptor.pb.obj
 0001:00012cc0       ?New@DescriptorProto@protobuf@google@@UBEPAV123@XZ 10013cc0 f   libprotobuf:descriptor.pb.obj
 0001:00012d30       ?New@DescriptorProto_ExtensionRange@protobuf@google@@UBEPAV123@XZ 10013d30 f   libprotobuf:descriptor.pb.obj
 0001:00012d30       ?New@?$GenericTypeHandler@VDescriptorProto_ExtensionRange@protobuf@google@@@internal@protobuf@google@@SAPAVDescriptorProto_ExtensionRange@34@XZ 10013d30 f   libprotobuf:descriptor.pb.obj
 0001:00012dc0       ?New@EnumDescriptorProto@protobuf@google@@UBEPAV123@XZ 10013dc0 f   libprotobuf:descriptor.pb.obj
 0001:00012dc0       ?New@?$GenericTypeHandler@VEnumDescriptorProto@protobuf@google@@@internal@protobuf@google@@SAPAVEnumDescriptorProto@34@XZ 10013dc0 f   libprotobuf:descriptor.pb.obj
 0001:00012e60       ?New@EnumOptions@protobuf@google@@UBEPAV123@XZ 10013e60 f   libprotobuf:descriptor.pb.obj
 0001:00012ed0       ?New@EnumValueDescriptorProto@protobuf@google@@UBEPAV123@XZ 10013ed0 f   libprotobuf:descriptor.pb.obj
 0001:00012f50       ?New@EnumValueOptions@protobuf@google@@UBEPAV123@XZ 10013f50 f   libprotobuf:descriptor.pb.obj
 0001:00012fc0       ?New@FieldDescriptorProto@protobuf@google@@UBEPAV123@XZ 10013fc0 f   libprotobuf:descriptor.pb.obj
 0001:00013040       ?New@FieldOptions@protobuf@google@@UBEPAV123@XZ 10014040 f   libprotobuf:descriptor.pb.obj
 0001:000130f0       ?New@FileDescriptorProto@protobuf@google@@UBEPAV123@XZ 100140f0 f   libprotobuf:descriptor.pb.obj
 0001:00013160       ?New@FileDescriptorSet@protobuf@google@@UBEPAV123@XZ 10014160 f   libprotobuf:descriptor.pb.obj
 0001:00013200       ?New@FileOptions@protobuf@google@@UBEPAV123@XZ 10014200 f   libprotobuf:descriptor.pb.obj
 0001:000132b0       ?New@MessageOptions@protobuf@google@@UBEPAV123@XZ 100142b0 f   libprotobuf:descriptor.pb.obj
 0001:00013320       ?New@MethodDescriptorProto@protobuf@google@@UBEPAV123@XZ 10014320 f   libprotobuf:descriptor.pb.obj
 0001:000133a0       ?New@MethodOptions@protobuf@google@@UBEPAV123@XZ 100143a0 f   libprotobuf:descriptor.pb.obj
 0001:00013410       ?New@OneofDescriptorProto@protobuf@google@@UBEPAV123@XZ 10014410 f   libprotobuf:descriptor.pb.obj
 0001:00013480       ?New@ServiceDescriptorProto@protobuf@google@@UBEPAV123@XZ 10014480 f   libprotobuf:descriptor.pb.obj
 0001:00013480       ?New@?$GenericTypeHandler@VServiceDescriptorProto@protobuf@google@@@internal@protobuf@google@@SAPAVServiceDescriptorProto@34@XZ 10014480 f   libprotobuf:descriptor.pb.obj
 0001:00013520       ?New@ServiceOptions@protobuf@google@@UBEPAV123@XZ 10014520 f   libprotobuf:descriptor.pb.obj
 0001:00013590       ?New@SourceCodeInfo@protobuf@google@@UBEPAV123@XZ 10014590 f   libprotobuf:descriptor.pb.obj
 0001:00013630       ?New@SourceCodeInfo_Location@protobuf@google@@UBEPAV123@XZ 10014630 f   libprotobuf:descriptor.pb.obj
 0001:000136a0       ?New@UninterpretedOption@protobuf@google@@UBEPAV123@XZ 100146a0 f   libprotobuf:descriptor.pb.obj
 0001:00013740       ?New@UninterpretedOption_NamePart@protobuf@google@@UBEPAV123@XZ 10014740 f   libprotobuf:descriptor.pb.obj
 0001:000137c0       ?Reserve@?$RepeatedField@H@protobuf@google@@QAEXH@Z 100147c0 f i libprotobuf:descriptor.pb.obj
 0001:00013840       ?Run@FunctionClosure0@internal@protobuf@google@@UAEXXZ 10014840 f i libprotobuf:descriptor.pb.obj
 0001:00013860       ?SerializeWithCachedSizes@DescriptorProto@protobuf@google@@UBEXPAVCodedOutputStream@io@23@@Z 10014860 f   libprotobuf:descriptor.pb.obj
 0001:000139b0       ?SerializeWithCachedSizes@DescriptorProto_ExtensionRange@protobuf@google@@UBEXPAVCodedOutputStream@io@23@@Z 100149b0 f   libprotobuf:descriptor.pb.obj
 0001:00013a10       ?SerializeWithCachedSizes@EnumDescriptorProto@protobuf@google@@UBEXPAVCodedOutputStream@io@23@@Z 10014a10 f   libprotobuf:descriptor.pb.obj
 0001:00013ac0       ?SerializeWithCachedSizes@EnumOptions@protobuf@google@@UBEXPAVCodedOutputStream@io@23@@Z 10014ac0 f   libprotobuf:descriptor.pb.obj
 0001:00013b70       ?SerializeWithCachedSizes@EnumValueDescriptorProto@protobuf@google@@UBEXPAVCodedOutputStream@io@23@@Z 10014b70 f   libprotobuf:descriptor.pb.obj
 0001:00013bf0       ?SerializeWithCachedSizes@EnumValueOptions@protobuf@google@@UBEXPAVCodedOutputStream@io@23@@Z 10014bf0 f   libprotobuf:descriptor.pb.obj
 0001:00013c90       ?SerializeWithCachedSizes@FieldDescriptorProto@protobuf@google@@UBEXPAVCodedOutputStream@io@23@@Z 10014c90 f   libprotobuf:descriptor.pb.obj
 0001:00013da0       ?SerializeWithCachedSizes@FieldOptions@protobuf@google@@UBEXPAVCodedOutputStream@io@23@@Z 10014da0 f   libprotobuf:descriptor.pb.obj
 0001:00013ec0       ?SerializeWithCachedSizes@FileDescriptorProto@protobuf@google@@UBEXPAVCodedOutputStream@io@23@@Z 10014ec0 f   libprotobuf:descriptor.pb.obj
 0001:00014070       ?SerializeWithCachedSizes@FileOptions@protobuf@google@@UBEXPAVCodedOutputStream@io@23@@Z 10015070 f   libprotobuf:descriptor.pb.obj
 0001:00014210       ?SerializeWithCachedSizes@MessageOptions@protobuf@google@@UBEXPAVCodedOutputStream@io@23@@Z 10015210 f   libprotobuf:descriptor.pb.obj
 0001:000142e0       ?SerializeWithCachedSizes@MethodDescriptorProto@protobuf@google@@UBEXPAVCodedOutputStream@io@23@@Z 100152e0 f   libprotobuf:descriptor.pb.obj
 0001:00014380       ?SerializeWithCachedSizes@OneofDescriptorProto@protobuf@google@@UBEXPAVCodedOutputStream@io@23@@Z 10015380 f   libprotobuf:descriptor.pb.obj
 0001:000143c0       ?SerializeWithCachedSizes@ServiceDescriptorProto@protobuf@google@@UBEXPAVCodedOutputStream@io@23@@Z 100153c0 f   libprotobuf:descriptor.pb.obj
 0001:00014470       ?SerializeWithCachedSizes@MethodOptions@protobuf@google@@UBEXPAVCodedOutputStream@io@23@@Z 10015470 f   libprotobuf:descriptor.pb.obj
 0001:00014470       ?SerializeWithCachedSizes@ServiceOptions@protobuf@google@@UBEXPAVCodedOutputStream@io@23@@Z 10015470 f   libprotobuf:descriptor.pb.obj
 0001:00014510       ?SerializeWithCachedSizes@SourceCodeInfo@protobuf@google@@UBEXPAVCodedOutputStream@io@23@@Z 10015510 f   libprotobuf:descriptor.pb.obj
 0001:00014510       ?SerializeWithCachedSizes@FileDescriptorSet@protobuf@google@@UBEXPAVCodedOutputStream@io@23@@Z 10015510 f   libprotobuf:descriptor.pb.obj
 0001:00014580       ?SerializeWithCachedSizes@SourceCodeInfo_Location@protobuf@google@@UBEXPAVCodedOutputStream@io@23@@Z 10015580 f   libprotobuf:descriptor.pb.obj
 0001:00014690       ?SerializeWithCachedSizes@UninterpretedOption@protobuf@google@@UBEXPAVCodedOutputStream@io@23@@Z 10015690 f   libprotobuf:descriptor.pb.obj
 0001:000147a0       ?SerializeWithCachedSizes@UninterpretedOption_NamePart@protobuf@google@@UBEXPAVCodedOutputStream@io@23@@Z 100157a0 f   libprotobuf:descriptor.pb.obj
 0001:00014800       ?SerializeWithCachedSizesToArray@DescriptorProto@protobuf@google@@UBEPAEPAE@Z 10015800 f   libprotobuf:descriptor.pb.obj
 0001:00014a70       ?SerializeWithCachedSizesToArray@DescriptorProto_ExtensionRange@protobuf@google@@UBEPAEPAE@Z 10015a70 f   libprotobuf:descriptor.pb.obj
 0001:00014ae0       ?SerializeWithCachedSizesToArray@EnumDescriptorProto@protobuf@google@@UBEPAEPAE@Z 10015ae0 f   libprotobuf:descriptor.pb.obj
 0001:00014bc0       ?SerializeWithCachedSizesToArray@EnumOptions@protobuf@google@@UBEPAEPAE@Z 10015bc0 f   libprotobuf:descriptor.pb.obj
 0001:00014ca0       ?SerializeWithCachedSizesToArray@EnumValueDescriptorProto@protobuf@google@@UBEPAEPAE@Z 10015ca0 f   libprotobuf:descriptor.pb.obj
 0001:00014d30       ?SerializeWithCachedSizesToArray@EnumValueOptions@protobuf@google@@UBEPAEPAE@Z 10015d30 f   libprotobuf:descriptor.pb.obj
 0001:00014df0       ?SerializeWithCachedSizesToArray@FieldDescriptorProto@protobuf@google@@UBEPAEPAE@Z 10015df0 f   libprotobuf:descriptor.pb.obj
 0001:00014f20       ?SerializeWithCachedSizesToArray@FieldOptions@protobuf@google@@UBEPAEPAE@Z 10015f20 f   libprotobuf:descriptor.pb.obj
 0001:00015070       ?SerializeWithCachedSizesToArray@FileDescriptorProto@protobuf@google@@UBEPAEPAE@Z 10016070 f   libprotobuf:descriptor.pb.obj
 0001:00015340       ?SerializeWithCachedSizesToArray@FileDescriptorSet@protobuf@google@@UBEPAEPAE@Z 10016340 f   libprotobuf:descriptor.pb.obj
 0001:000153e0       ?SerializeWithCachedSizesToArray@FileOptions@protobuf@google@@UBEPAEPAE@Z 100163e0 f   libprotobuf:descriptor.pb.obj
 0001:000155d0       ?SerializeWithCachedSizesToArray@MessageOptions@protobuf@google@@UBEPAEPAE@Z 100165d0 f   libprotobuf:descriptor.pb.obj
 0001:000156d0       ?SerializeWithCachedSizesToArray@MethodDescriptorProto@protobuf@google@@UBEPAEPAE@Z 100166d0 f   libprotobuf:descriptor.pb.obj
 0001:00015780       ?SerializeWithCachedSizesToArray@ServiceOptions@protobuf@google@@UBEPAEPAE@Z 10016780 f   libprotobuf:descriptor.pb.obj
 0001:00015780       ?SerializeWithCachedSizesToArray@MethodOptions@protobuf@google@@UBEPAEPAE@Z 10016780 f   libprotobuf:descriptor.pb.obj
 0001:00015840       ?SerializeWithCachedSizesToArray@OneofDescriptorProto@protobuf@google@@UBEPAEPAE@Z 10016840 f   libprotobuf:descriptor.pb.obj
 0001:00015890       ?SerializeWithCachedSizesToArray@ServiceDescriptorProto@protobuf@google@@UBEPAEPAE@Z 10016890 f   libprotobuf:descriptor.pb.obj
 0001:00015970       ?SerializeWithCachedSizesToArray@SourceCodeInfo@protobuf@google@@UBEPAEPAE@Z 10016970 f   libprotobuf:descriptor.pb.obj
 0001:00015a10       ?SerializeWithCachedSizesToArray@SourceCodeInfo_Location@protobuf@google@@UBEPAEPAE@Z 10016a10 f   libprotobuf:descriptor.pb.obj
 0001:00015b60       ?SerializeWithCachedSizesToArray@UninterpretedOption@protobuf@google@@UBEPAEPAE@Z 10016b60 f   libprotobuf:descriptor.pb.obj
 0001:00015d30       ?SerializeWithCachedSizesToArray@UninterpretedOption_NamePart@protobuf@google@@UBEPAEPAE@Z 10016d30 f   libprotobuf:descriptor.pb.obj
 0001:00015da0       ?SetCachedSize@EnumValueOptions@protobuf@google@@EBEXH@Z 10016da0 f   libprotobuf:descriptor.pb.obj
 0001:00015da0       ?SetCachedSize@MethodOptions@protobuf@google@@EBEXH@Z 10016da0 f   libprotobuf:descriptor.pb.obj
 0001:00015da0       ?SetCachedSize@EnumOptions@protobuf@google@@EBEXH@Z 10016da0 f   libprotobuf:descriptor.pb.obj
 0001:00015da0       ?SetCachedSize@MessageOptions@protobuf@google@@EBEXH@Z 10016da0 f   libprotobuf:descriptor.pb.obj
 0001:00015da0       ?SetCachedSize@FileOptions@protobuf@google@@EBEXH@Z 10016da0 f   libprotobuf:descriptor.pb.obj
 0001:00015da0       ?SetCachedSize@FieldOptions@protobuf@google@@EBEXH@Z 10016da0 f   libprotobuf:descriptor.pb.obj
 0001:00015da0       ?SetCachedSize@ServiceOptions@protobuf@google@@EBEXH@Z 10016da0 f   libprotobuf:descriptor.pb.obj
 0001:00015db0       ?SetCachedSize@EnumValueDescriptorProto@protobuf@google@@EBEXH@Z 10016db0 f   libprotobuf:descriptor.pb.obj
 0001:00015db0       ?SetCachedSize@SourceCodeInfo@protobuf@google@@EBEXH@Z 10016db0 f   libprotobuf:descriptor.pb.obj
 0001:00015db0       ?SetCachedSize@FieldDescriptorProto@protobuf@google@@EBEXH@Z 10016db0 f   libprotobuf:descriptor.pb.obj
 0001:00015db0       ?SetCachedSize@DescriptorProto@protobuf@google@@EBEXH@Z 10016db0 f   libprotobuf:descriptor.pb.obj
 0001:00015db0       ?SetCachedSize@MethodDescriptorProto@protobuf@google@@EBEXH@Z 10016db0 f   libprotobuf:descriptor.pb.obj
 0001:00015db0       ?SetCachedSize@OneofDescriptorProto@protobuf@google@@EBEXH@Z 10016db0 f   libprotobuf:descriptor.pb.obj
 0001:00015db0       ?SetCachedSize@UninterpretedOption@protobuf@google@@EBEXH@Z 10016db0 f   libprotobuf:descriptor.pb.obj
 0001:00015db0       ?SetCachedSize@FileDescriptorProto@protobuf@google@@EBEXH@Z 10016db0 f   libprotobuf:descriptor.pb.obj
 0001:00015db0       ?SetCachedSize@UninterpretedOption_NamePart@protobuf@google@@EBEXH@Z 10016db0 f   libprotobuf:descriptor.pb.obj
 0001:00015db0       ?SetCachedSize@ServiceDescriptorProto@protobuf@google@@EBEXH@Z 10016db0 f   libprotobuf:descriptor.pb.obj
 0001:00015db0       ?SetCachedSize@FileDescriptorSet@protobuf@google@@EBEXH@Z 10016db0 f   libprotobuf:descriptor.pb.obj
 0001:00015db0       ?SetCachedSize@EnumDescriptorProto@protobuf@google@@EBEXH@Z 10016db0 f   libprotobuf:descriptor.pb.obj
 0001:00015db0       ?SetCachedSize@SourceCodeInfo_Location@protobuf@google@@EBEXH@Z 10016db0 f   libprotobuf:descriptor.pb.obj
 0001:00015db0       ?SetCachedSize@DescriptorProto_ExtensionRange@protobuf@google@@EBEXH@Z 10016db0 f   libprotobuf:descriptor.pb.obj
 0001:00015dc0       ?SharedCtor@DescriptorProto@protobuf@google@@AAEXXZ 10016dc0 f   libprotobuf:descriptor.pb.obj
 0001:00015e60       ?SharedCtor@EnumValueDescriptorProto@protobuf@google@@AAEXXZ 10016e60 f   libprotobuf:descriptor.pb.obj
 0001:00015f00       ?SharedCtor@FieldDescriptorProto@protobuf@google@@AAEXXZ 10016f00 f   libprotobuf:descriptor.pb.obj
 0001:00015fd0       ?SharedCtor@FieldOptions@protobuf@google@@AAEXXZ 10016fd0 f   libprotobuf:descriptor.pb.obj
 0001:00016070       ?SharedCtor@FileDescriptorProto@protobuf@google@@AAEXXZ 10017070 f   libprotobuf:descriptor.pb.obj
 0001:00016120       ?SharedCtor@FileOptions@protobuf@google@@AAEXXZ 10017120 f   libprotobuf:descriptor.pb.obj
 0001:000161e0       ?SharedCtor@MethodDescriptorProto@protobuf@google@@AAEXXZ 100171e0 f   libprotobuf:descriptor.pb.obj
 0001:00016290       ?SharedCtor@EnumDescriptorProto@protobuf@google@@AAEXXZ 10017290 f   libprotobuf:descriptor.pb.obj
 0001:00016290       ?SharedCtor@ServiceDescriptorProto@protobuf@google@@AAEXXZ 10017290 f   libprotobuf:descriptor.pb.obj
 0001:00016330       ?SharedCtor@SourceCodeInfo_Location@protobuf@google@@AAEXXZ 10017330 f   libprotobuf:descriptor.pb.obj
 0001:000163d0       ?SharedCtor@UninterpretedOption@protobuf@google@@AAEXXZ 100173d0 f   libprotobuf:descriptor.pb.obj
 0001:00016490       ?SharedCtor@UninterpretedOption_NamePart@protobuf@google@@AAEXXZ 10017490 f   libprotobuf:descriptor.pb.obj
 0001:00016520       ?SharedDtor@DescriptorProto@protobuf@google@@AAEXXZ 10017520 f   libprotobuf:descriptor.pb.obj
 0001:00016590       ?SharedDtor@EnumDescriptorProto@protobuf@google@@AAEXXZ 10017590 f   libprotobuf:descriptor.pb.obj
 0001:00016600       ?SharedDtor@EnumValueDescriptorProto@protobuf@google@@AAEXXZ 10017600 f   libprotobuf:descriptor.pb.obj
 0001:00016670       ?SharedDtor@FieldDescriptorProto@protobuf@google@@AAEXXZ 10017670 f   libprotobuf:descriptor.pb.obj
 0001:000167c0       ?SharedDtor@FieldOptions@protobuf@google@@AAEXXZ 100177c0 f   libprotobuf:descriptor.pb.obj
 0001:00016820       ?SharedDtor@FileDescriptorProto@protobuf@google@@AAEXXZ 10017820 f   libprotobuf:descriptor.pb.obj
 0001:000168f0       ?SharedDtor@FileOptions@protobuf@google@@AAEXXZ 100178f0 f   libprotobuf:descriptor.pb.obj
 0001:000169f0       ?SharedDtor@MethodDescriptorProto@protobuf@google@@AAEXXZ 100179f0 f   libprotobuf:descriptor.pb.obj
 0001:00016af0       ?SharedDtor@ServiceDescriptorProto@protobuf@google@@AAEXXZ 10017af0 f   libprotobuf:descriptor.pb.obj
 0001:00016b60       ?SharedDtor@SourceCodeInfo_Location@protobuf@google@@AAEXXZ 10017b60 f   libprotobuf:descriptor.pb.obj
 0001:00016c10       ?SharedDtor@UninterpretedOption@protobuf@google@@AAEXXZ 10017c10 f   libprotobuf:descriptor.pb.obj
 0001:00016d10       ?SharedDtor@UninterpretedOption_NamePart@protobuf@google@@AAEXXZ 10017d10 f   libprotobuf:descriptor.pb.obj
 0001:00016d10       ?SharedDtor@OneofDescriptorProto@protobuf@google@@AAEXXZ 10017d10 f   libprotobuf:descriptor.pb.obj
 0001:00016d70       ?WriteBoolToArray@WireFormatLite@internal@protobuf@google@@SAPAEH_NPAE@Z 10017d70 f i libprotobuf:descriptor.pb.obj
 0001:00016de0       ?WriteInt32ToArray@WireFormatLite@internal@protobuf@google@@SAPAEHHPAE@Z 10017de0 f i libprotobuf:descriptor.pb.obj
 0001:00016de0       ?WriteEnumToArray@WireFormatLite@internal@protobuf@google@@SAPAEHHPAE@Z 10017de0 f i libprotobuf:descriptor.pb.obj
 0001:00016e60       ?WriteBytesToArray@WireFormatLite@internal@protobuf@google@@SAPAEHABV?$basic_string@DU?$char_traits@D@std@@V?$allocator@D@2@@std@@PAE@Z 10017e60 f i libprotobuf:extension_set_heavy.obj
 0001:00016e60       ?WriteStringToArray@WireFormatLite@internal@protobuf@google@@SAPAEHABV?$basic_string@DU?$char_traits@D@std@@V?$allocator@D@2@@std@@PAE@Z 10017e60 f i libprotobuf:descriptor.pb.obj
 0001:00016ed0       ?default_instance@EnumOptions@protobuf@google@@SAABV123@XZ 10017ed0 f   libprotobuf:descriptor.pb.obj
 0001:00016ef0       ?default_instance@EnumValueOptions@protobuf@google@@SAABV123@XZ 10017ef0 f   libprotobuf:descriptor.pb.obj
 0001:00016f10       ?default_instance@FieldOptions@protobuf@google@@SAABV123@XZ 10017f10 f   libprotobuf:descriptor.pb.obj
 0001:00016f30       ?default_instance@FileOptions@protobuf@google@@SAABV123@XZ 10017f30 f   libprotobuf:descriptor.pb.obj
 0001:00016f50       ?default_instance@MessageOptions@protobuf@google@@SAABV123@XZ 10017f50 f   libprotobuf:descriptor.pb.obj
 0001:00016f70       ?default_instance@MethodOptions@protobuf@google@@SAABV123@XZ 10017f70 f   libprotobuf:descriptor.pb.obj
 0001:00016f90       ?default_instance@ServiceOptions@protobuf@google@@SAABV123@XZ 10017f90 f   libprotobuf:descriptor.pb.obj
 0001:00016fb0       ?default_instance@SourceCodeInfo@protobuf@google@@SAABV123@XZ 10017fb0 f   libprotobuf:descriptor.pb.obj
 0001:00016fd0       ?mutable_aggregate_value@UninterpretedOption@protobuf@google@@QAEPAV?$basic_string@DU?$char_traits@D@std@@V?$allocator@D@2@@std@@XZ 10017fd0 f i libprotobuf:descriptor.pb.obj
 0001:00017010       ?mutable_default_value@FieldDescriptorProto@protobuf@google@@QAEPAV?$basic_string@DU?$char_traits@D@std@@V?$allocator@D@2@@std@@XZ 10018010 f i libprotobuf:descriptor.pb.obj
 0001:00017050       ?mutable_experimental_map_key@FieldOptions@protobuf@google@@QAEPAV?$basic_string@DU?$char_traits@D@std@@V?$allocator@D@2@@std@@XZ 10018050 f i libprotobuf:descriptor.pb.obj
 0001:00017090       ?mutable_extendee@FieldDescriptorProto@protobuf@google@@QAEPAV?$basic_string@DU?$char_traits@D@std@@V?$allocator@D@2@@std@@XZ 10018090 f i libprotobuf:descriptor.pb.obj
 0001:000170d0       ?mutable_go_package@FileOptions@protobuf@google@@QAEPAV?$basic_string@DU?$char_traits@D@std@@V?$allocator@D@2@@std@@XZ 100180d0 f i libprotobuf:descriptor.pb.obj
 0001:00017110       ?mutable_identifier_value@UninterpretedOption@protobuf@google@@QAEPAV?$basic_string@DU?$char_traits@D@std@@V?$allocator@D@2@@std@@XZ 10018110 f i libprotobuf:descriptor.pb.obj
 0001:00017150       ?mutable_java_outer_classname@FileOptions@protobuf@google@@QAEPAV?$basic_string@DU?$char_traits@D@std@@V?$allocator@D@2@@std@@XZ 10018150 f i libprotobuf:descriptor.pb.obj
 0001:00017190       ?mutable_java_package@FileOptions@protobuf@google@@QAEPAV?$basic_string@DU?$char_traits@D@std@@V?$allocator@D@2@@std@@XZ 10018190 f i libprotobuf:descriptor.pb.obj
 0001:000171d0       ?mutable_name@DescriptorProto@protobuf@google@@QAEPAV?$basic_string@DU?$char_traits@D@std@@V?$allocator@D@2@@std@@XZ 100181d0 f i libprotobuf:descriptor.pb.obj
 0001:000171d0       ?mutable_name@FieldDescriptorProto@protobuf@google@@QAEPAV?$basic_string@DU?$char_traits@D@std@@V?$allocator@D@2@@std@@XZ 100181d0 f i libprotobuf:descriptor.pb.obj
 0001:000171d0       ?mutable_name@FileDescriptorProto@protobuf@google@@QAEPAV?$basic_string@DU?$char_traits@D@std@@V?$allocator@D@2@@std@@XZ 100181d0 f i libprotobuf:descriptor.pb.obj
 0001:00017210       ?mutable_options@DescriptorProto@protobuf@google@@QAEPAVMessageOptions@23@XZ 10018210 f i libprotobuf:descriptor.pb.obj
 0001:00017280       ?mutable_options@FieldDescriptorProto@protobuf@google@@QAEPAVFieldOptions@23@XZ 10018280 f i libprotobuf:descriptor.pb.obj
 0001:000172f0       ?mutable_options@FileDescriptorProto@protobuf@google@@QAEPAVFileOptions@23@XZ 100182f0 f i libprotobuf:descriptor.pb.obj
 0001:00017370       ?mutable_package@FileDescriptorProto@protobuf@google@@QAEPAV?$basic_string@DU?$char_traits@D@std@@V?$allocator@D@2@@std@@XZ 10018370 f i libprotobuf:descriptor.pb.obj
 0001:000173b0       ?mutable_source_code_info@FileDescriptorProto@protobuf@google@@QAEPAVSourceCodeInfo@23@XZ 100183b0 f i libprotobuf:descriptor.pb.obj
 0001:00017430       ?mutable_string_value@UninterpretedOption@protobuf@google@@QAEPAV?$basic_string@DU?$char_traits@D@std@@V?$allocator@D@2@@std@@XZ 10018430 f i libprotobuf:descriptor.pb.obj
 0001:00017470       ?mutable_type_name@FieldDescriptorProto@protobuf@google@@QAEPAV?$basic_string@DU?$char_traits@D@std@@V?$allocator@D@2@@std@@XZ 10018470 f i libprotobuf:descriptor.pb.obj
 0001:000174b0       ?options@FileDescriptorProto@protobuf@google@@QBEABVFileOptions@23@XZ 100184b0 f i libprotobuf:descriptor.pb.obj
 0001:000174d0       ?protobuf_AddDesc_google_2fprotobuf_2fdescriptor_2eproto@protobuf@google@@YAXXZ 100184d0 f   libprotobuf:descriptor.pb.obj
 0001:00017ac0       ?protobuf_AssignDesc_google_2fprotobuf_2fdescriptor_2eproto@protobuf@google@@YAXXZ 10018ac0 f   libprotobuf:descriptor.pb.obj
 0001:000186f0       ?protobuf_ShutdownFile_google_2fprotobuf_2fdescriptor_2eproto@protobuf@google@@YAXXZ 100196f0 f   libprotobuf:descriptor.pb.obj
 0001:000189a0       ?set_aggregate_value@UninterpretedOption@protobuf@google@@QAEXABV?$basic_string@DU?$char_traits@D@std@@V?$allocator@D@2@@std@@@Z 100199a0 f i libprotobuf:descriptor.pb.obj
 0001:000189f0       ?set_default_value@FieldDescriptorProto@protobuf@google@@QAEXABV?$basic_string@DU?$char_traits@D@std@@V?$allocator@D@2@@std@@@Z 100199f0 f i libprotobuf:descriptor.pb.obj
 0001:00018a40       ?set_experimental_map_key@FieldOptions@protobuf@google@@QAEXABV?$basic_string@DU?$char_traits@D@std@@V?$allocator@D@2@@std@@@Z 10019a40 f i libprotobuf:descriptor.pb.obj
 0001:00018a90       ?set_extendee@FieldDescriptorProto@protobuf@google@@QAEXABV?$basic_string@DU?$char_traits@D@std@@V?$allocator@D@2@@std@@@Z 10019a90 f i libprotobuf:descriptor.pb.obj
 0001:00018ae0       ?set_go_package@FileOptions@protobuf@google@@QAEXABV?$basic_string@DU?$char_traits@D@std@@V?$allocator@D@2@@std@@@Z 10019ae0 f i libprotobuf:descriptor.pb.obj
 0001:00018b30       ?set_identifier_value@UninterpretedOption@protobuf@google@@QAEXABV?$basic_string@DU?$char_traits@D@std@@V?$allocator@D@2@@std@@@Z 10019b30 f i libprotobuf:descriptor.pb.obj
 0001:00018b80       ?set_package@FileDescriptorProto@protobuf@google@@QAEXABV?$basic_string@DU?$char_traits@D@std@@V?$allocator@D@2@@std@@@Z 10019b80 f i libprotobuf:descriptor.pb.obj
 0001:00018b80       ?set_input_type@MethodDescriptorProto@protobuf@google@@QAEXABV?$basic_string@DU?$char_traits@D@std@@V?$allocator@D@2@@std@@@Z 10019b80 f i libprotobuf:descriptor.pb.obj
 0001:00018bd0       ?set_java_outer_classname@FileOptions@protobuf@google@@QAEXABV?$basic_string@DU?$char_traits@D@std@@V?$allocator@D@2@@std@@@Z 10019bd0 f i libprotobuf:descriptor.pb.obj
 0001:00018c20       ?set_java_package@FileOptions@protobuf@google@@QAEXABV?$basic_string@DU?$char_traits@D@std@@V?$allocator@D@2@@std@@@Z 10019c20 f i libprotobuf:descriptor.pb.obj
 0001:00018c70       ?set_leading_comments@SourceCodeInfo_Location@protobuf@google@@QAEXABV?$basic_string@DU?$char_traits@D@std@@V?$allocator@D@2@@std@@@Z 10019c70 f i libprotobuf:descriptor.pb.obj
 0001:00018cc0       ?set_name@OneofDescriptorProto@protobuf@google@@QAEXABV?$basic_string@DU?$char_traits@D@std@@V?$allocator@D@2@@std@@@Z 10019cc0 f i libprotobuf:descriptor.pb.obj
 0001:00018cc0       ?set_name@ServiceDescriptorProto@protobuf@google@@QAEXABV?$basic_string@DU?$char_traits@D@std@@V?$allocator@D@2@@std@@@Z 10019cc0 f i libprotobuf:descriptor.pb.obj
 0001:00018cc0       ?set_name@EnumDescriptorProto@protobuf@google@@QAEXABV?$basic_string@DU?$char_traits@D@std@@V?$allocator@D@2@@std@@@Z 10019cc0 f i libprotobuf:descriptor.pb.obj
 0001:00018cc0       ?set_name@FieldDescriptorProto@protobuf@google@@QAEXABV?$basic_string@DU?$char_traits@D@std@@V?$allocator@D@2@@std@@@Z 10019cc0 f i libprotobuf:descriptor.pb.obj
 0001:00018cc0       ?set_name@FileDescriptorProto@protobuf@google@@QAEXABV?$basic_string@DU?$char_traits@D@std@@V?$allocator@D@2@@std@@@Z 10019cc0 f i libprotobuf:descriptor.pb.obj
 0001:00018cc0       ?set_name@MethodDescriptorProto@protobuf@google@@QAEXABV?$basic_string@DU?$char_traits@D@std@@V?$allocator@D@2@@std@@@Z 10019cc0 f i libprotobuf:descriptor.pb.obj
 0001:00018cc0       ?set_name_part@UninterpretedOption_NamePart@protobuf@google@@QAEXABV?$basic_string@DU?$char_traits@D@std@@V?$allocator@D@2@@std@@@Z 10019cc0 f i libprotobuf:descriptor.pb.obj
 0001:00018cc0       ?set_name@EnumValueDescriptorProto@protobuf@google@@QAEXABV?$basic_string@DU?$char_traits@D@std@@V?$allocator@D@2@@std@@@Z 10019cc0 f i libprotobuf:descriptor.pb.obj
 0001:00018cc0       ?set_name@DescriptorProto@protobuf@google@@QAEXABV?$basic_string@DU?$char_traits@D@std@@V?$allocator@D@2@@std@@@Z 10019cc0 f i libprotobuf:descriptor.pb.obj
 0001:00018d10       ?set_output_type@MethodDescriptorProto@protobuf@google@@QAEXABV?$basic_string@DU?$char_traits@D@std@@V?$allocator@D@2@@std@@@Z 10019d10 f i libprotobuf:descriptor.pb.obj
 0001:00018d60       ?set_string_value@UninterpretedOption@protobuf@google@@QAEXABV?$basic_string@DU?$char_traits@D@std@@V?$allocator@D@2@@std@@@Z 10019d60 f i libprotobuf:descriptor.pb.obj
 0001:00018db0       ?set_trailing_comments@SourceCodeInfo_Location@protobuf@google@@QAEXABV?$basic_string@DU?$char_traits@D@std@@V?$allocator@D@2@@std@@@Z 10019db0 f i libprotobuf:descriptor.pb.obj
 0001:00018e00       ?set_type_name@FieldDescriptorProto@protobuf@google@@QAEXABV?$basic_string@DU?$char_traits@D@std@@V?$allocator@D@2@@std@@@Z 10019e00 f i libprotobuf:descriptor.pb.obj
 0001:00018e50       ??0FatalException@protobuf@google@@QAE@ABV012@@Z 10019e50 f i libprotobuf:common.obj
 0001:00018ef0       ??0LogMessage@internal@protobuf@google@@QAE@W4LogLevel@23@PBDH@Z 10019ef0 f   libprotobuf:common.obj
 0001:00018f30       ??0Mutex@internal@protobuf@google@@QAE@XZ 10019f30 f   libprotobuf:common.obj
 0001:00018f50       ??0exception@std@@QAE@ABV01@@Z 10019f50 f i libprotobuf:common.obj
 0001:00018f80       ??1FatalException@protobuf@google@@UAE@XZ 10019f80 f   libprotobuf:common.obj
 0001:00018fd0       ??1Closure@protobuf@google@@UAE@XZ 10019fd0 f   libprotobuf:common.obj
 0001:00018fd0       ??1FunctionClosure0@internal@protobuf@google@@UAE@XZ 10019fd0 f   libprotobuf:common.obj
 0001:00018fe0       ??1LogMessage@internal@protobuf@google@@QAE@XZ 10019fe0 f   libprotobuf:common.obj
 0001:00019020       ??1Mutex@internal@protobuf@google@@QAE@XZ 1001a020 f   libprotobuf:common.obj
 0001:00019040       ??1MutexLock@internal@protobuf@google@@QAE@XZ 1001a040 f i libprotobuf:common.obj
 0001:00019050       ??4LogFinisher@internal@protobuf@google@@QAEXAAVLogMessage@123@@Z 1001a050 f   libprotobuf:common.obj
 0001:00019060       ??6LogMessage@internal@protobuf@google@@QAEAAV0123@ABV?$basic_string@DU?$char_traits@D@std@@V?$allocator@D@2@@std@@@Z 1001a060 f   libprotobuf:common.obj
 0001:00019080       ??6LogMessage@internal@protobuf@google@@QAEAAV0123@H@Z 1001a080 f   libprotobuf:common.obj
 0001:00019100       ??6LogMessage@internal@protobuf@google@@QAEAAV0123@PBD@Z 1001a100 f   libprotobuf:common.obj
 0001:00019150       ??_GFatalException@protobuf@google@@UAEPAXI@Z 1001a150 f i libprotobuf:common.obj
 0001:00019150       ??_EFatalException@protobuf@google@@UAEPAXI@Z 1001a150 f i libprotobuf:common.obj
 0001:000191c0       ??_Ebad_cast@std@@UAEPAXI@Z 1001a1c0 f i libprotobuf:zero_copy_stream_impl.obj
 0001:000191c0       ??_Gexception@std@@UAEPAXI@Z 1001a1c0 f i libprotobuf:common.obj
 0001:000191c0       ??_Eexception@std@@UAEPAXI@Z 1001a1c0 f i libprotobuf:common.obj
 0001:000191c0       ??_Gbad_cast@std@@UAEPAXI@Z 1001a1c0 f i libprotobuf:zero_copy_stream_impl.obj
 0001:000191f0       ___except_validate_jump_buffer 1001a1f0 f   libvcruntime:jbcxrval.obj
 0001:000191f0       ??1Parser@TextFormat@protobuf@google@@QAE@XZ 1001a1f0 f   libprotobuf:text_format.obj
 0001:000191f0       ___except_validate_context_record 1001a1f0 f   libvcruntime:jbcxrval.obj
 0001:000191f0       @_guard_check_icall_nop@4  1001a1f0 f   LIBCMT:guard_support.obj
 0001:000191f0       ?AssertHeld@Mutex@internal@protobuf@google@@QAEXXZ 1001a1f0 f   libprotobuf:common.obj
 0001:000191f0       ??3@YAXPAX0@Z              1001a1f0 f   libprotobuf:dynamic_message.obj
 0001:00019200       ?DefaultLogHandler@internal@protobuf@google@@YAXW4LogLevel@23@PBDHABV?$basic_string@DU?$char_traits@D@std@@V?$allocator@D@2@@std@@@Z 1001a200 f   libprotobuf:common.obj
 0001:00019250       ?DeleteLogSilencerCount@internal@protobuf@google@@YAXXZ 1001a250 f   libprotobuf:common.obj
 0001:00019290       ?Finish@LogMessage@internal@protobuf@google@@AAEXXZ 1001a290 f   libprotobuf:common.obj
 0001:000193c0       ?InitLogSilencerCount@internal@protobuf@google@@YAXXZ 1001a3c0 f   libprotobuf:common.obj
 0001:00019440       ?InitShutdownFunctions@internal@protobuf@google@@YAXXZ 1001a440 f   libprotobuf:common.obj
 0001:00019500       ?Lock@Mutex@internal@protobuf@google@@QAEXXZ 1001a500 f   libprotobuf:common.obj
 0001:00019510       ?OnShutdown@internal@protobuf@google@@YAXP6AXXZ@Z 1001a510 f   libprotobuf:common.obj
 0001:000195b0       ?Unlock@Mutex@internal@protobuf@google@@QAEXXZ 1001a5b0 f   libprotobuf:common.obj
 0001:000195c0       ?VerifyVersion@internal@protobuf@google@@YAXHHPBD@Z 1001a5c0 f   libprotobuf:common.obj
 0001:000198d0       ?VersionString@internal@protobuf@google@@YA?AV?$basic_string@DU?$char_traits@D@std@@V?$allocator@D@2@@std@@H@Z 1001a8d0 f   libprotobuf:common.obj
 0001:000199a0       ?ghtonl@protobuf@google@@YAII@Z 1001a9a0 f   libprotobuf:common.obj
 0001:000199d0       ?what@FatalException@protobuf@google@@UBEPBDXZ 1001a9d0 f   libprotobuf:common.obj
 0001:000199e0       ?what@exception@std@@UBEPBDXZ 1001a9e0 f i libprotobuf:common.obj
 0001:000199f0       __snprintf                 1001a9f0 f i libprotobuf:common.obj
 0001:00019a30       _fprintf                   1001aa30 f i libprotobuf:common.obj
 0001:00019a60       ??$_Buynode@ABUpiecewise_construct_t@std@@V?$tuple@ABQBVDescriptor@protobuf@google@@@2@V?$tuple@$$V@2@@?$_Tree_comp_alloc@V?$_Tmap_traits@PBVDescriptor@protobuf@google@@PBUTypeInfo@DynamicMessage@23@U?$hash@PBVDescriptor@protobuf@google@@@23@V?$allocator@U?$pair@QBVDescriptor@protobuf@google@@PBUTypeInfo@DynamicMessage@23@@std@@@std@@$0A@@std@@@std@@QAEPAU?$_Tree_node@U?$pair@QBVDescriptor@protobuf@google@@PBUTypeInfo@DynamicMessage@23@@std@@PAX@1@ABUpiecewise_construct_t@1@$$QAV?$tuple@ABQBVDescriptor@protobuf@google@@@1@$$QAV?$tuple@$$V@1@@Z 1001aa60 f i libprotobuf:dynamic_message.obj
 0001:00019a90       ??$_Insert_at@AAU?$pair@QBVDescriptor@protobuf@google@@PBUTypeInfo@DynamicMessage@23@@std@@PAU?$_Tree_node@U?$pair@QBVDescriptor@protobuf@google@@PBUTypeInfo@DynamicMessage@23@@std@@PAX@2@@?$_Tree@V?$_Tmap_traits@PBVDescriptor@protobuf@google@@PBUTypeInfo@DynamicMessage@23@U?$hash@PBVDescriptor@protobuf@google@@@23@V?$allocator@U?$pair@QBVDescriptor@protobuf@google@@PBUTypeInfo@DynamicMessage@23@@std@@@std@@$0A@@std@@@std@@IAE?AV?$_Tree_iterator@V?$_Tree_val@U?$_Tree_simple_types@U?$pair@QBVDescriptor@protobuf@google@@PBUTypeInfo@DynamicMessage@23@@std@@@std@@@std@@@1@_NPAU?$_Tree_node@U?$pair@QBVDescriptor@protobuf@google@@PBUTypeInfo@DynamicMessage@23@@std@@PAX@1@AAU?$pair@QBVDescriptor@protobuf@google@@PBUTypeInfo@DynamicMessage@23@@1@1@Z 1001aa90 f i libprotobuf:dynamic_message.obj
 0001:00019c30       ??$_Insert_hint@AAU?$pair@QBVDescriptor@protobuf@google@@PBUTypeInfo@DynamicMessage@23@@std@@PAU?$_Tree_node@U?$pair@QBVDescriptor@protobuf@google@@PBUTypeInfo@DynamicMessage@23@@std@@PAX@2@@?$_Tree@V?$_Tmap_traits@PBVDescriptor@protobuf@google@@PBUTypeInfo@DynamicMessage@23@U?$hash@PBVDescriptor@protobuf@google@@@23@V?$allocator@U?$pair@QBVDescriptor@protobuf@google@@PBUTypeInfo@DynamicMessage@23@@std@@@std@@$0A@@std@@@std@@IAE?AV?$_Tree_iterator@V?$_Tree_val@U?$_Tree_simple_types@U?$pair@QBVDescriptor@protobuf@google@@PBUTypeInfo@DynamicMessage@23@@std@@@std@@@std@@@1@V?$_Tree_const_iterator@V?$_Tree_val@U?$_Tree_simple_types@U?$pair@QBVDescriptor@protobuf@google@@PBUTypeInfo@DynamicMessage@23@@std@@@std@@@std@@@1@AAU?$pair@QBVDescriptor@protobuf@google@@PBUTypeInfo@DynamicMessage@23@@1@PAU?$_Tree_node@U?$pair@QBVDescriptor@protobuf@google@@PBUTypeInfo@DynamicMessage@23@@std@@PAX@1@@Z 1001ac30 f i libprotobuf:dynamic_message.obj
 0001:00019e20       ??$_Insert_nohint@AAU?$pair@QBVDescriptor@protobuf@google@@PBUTypeInfo@DynamicMessage@23@@std@@PAU?$_Tree_node@U?$pair@QBVDescriptor@protobuf@google@@PBUTypeInfo@DynamicMessage@23@@std@@PAX@2@@?$_Tree@V?$_Tmap_traits@PBVDescriptor@protobuf@google@@PBUTypeInfo@DynamicMessage@23@U?$hash@PBVDescriptor@protobuf@google@@@23@V?$allocator@U?$pair@QBVDescriptor@protobuf@google@@PBUTypeInfo@DynamicMessage@23@@std@@@std@@$0A@@std@@@std@@IAE?AU?$pair@V?$_Tree_iterator@V?$_Tree_val@U?$_Tree_simple_types@U?$pair@QBVDescriptor@protobuf@google@@PBUTypeInfo@DynamicMessage@23@@std@@@std@@@std@@@std@@_N@1@_NAAU?$pair@QBVDescriptor@protobuf@google@@PBUTypeInfo@DynamicMessage@23@@1@PAU?$_Tree_node@U?$pair@QBVDescriptor@protobuf@google@@PBUTypeInfo@DynamicMessage@23@@std@@PAX@1@@Z 1001ae20 f i libprotobuf:dynamic_message.obj
 0001:00019f40       ??0DynamicMessage@protobuf@google@@QAE@PBUTypeInfo@012@@Z 1001af40 f   libprotobuf:dynamic_message.obj
 0001:0001a180       ??0DynamicMessageFactory@protobuf@google@@QAE@XZ 1001b180 f   libprotobuf:dynamic_message.obj
 0001:0001a220       ??1?$scoped_ptr@UPrototypeMap@DynamicMessageFactory@protobuf@google@@@internal@protobuf@google@@QAE@XZ 1001b220 f i libprotobuf:dynamic_message.obj
 0001:0001a260       ??1DynamicMessage@protobuf@google@@UAE@XZ 1001b260 f   libprotobuf:dynamic_message.obj
 0001:0001a460       ??1DynamicMessageFactory@protobuf@google@@UAE@XZ 1001b460 f   libprotobuf:dynamic_message.obj
 0001:0001a550       ??A?$map@PBVDescriptor@protobuf@google@@PBUTypeInfo@DynamicMessage@23@U?$hash@PBVDescriptor@protobuf@google@@@23@V?$allocator@U?$pair@QBVDescriptor@protobuf@google@@PBUTypeInfo@DynamicMessage@23@@std@@@std@@@std@@QAEAAPBUTypeInfo@DynamicMessage@protobuf@google@@ABQBVDescriptor@45@@Z 1001b550 f i libprotobuf:dynamic_message.obj
 0001:0001a5e0       ??_G?$RepeatedPtrField@V?$basic_string@DU?$char_traits@D@std@@V?$allocator@D@2@@std@@@protobuf@google@@QAEPAXI@Z 1001b5e0 f i libprotobuf:dynamic_message.obj
 0001:0001a660       ??_GDynamicMessage@protobuf@google@@UAEPAXI@Z 1001b660 f i libprotobuf:dynamic_message.obj
 0001:0001a660       ??_EDynamicMessage@protobuf@google@@UAEPAXI@Z 1001b660 f i libprotobuf:dynamic_message.obj
 0001:0001a690       ??_GDynamicMessageFactory@protobuf@google@@UAEPAXI@Z 1001b690 f i libprotobuf:dynamic_message.obj
 0001:0001a690       ??_EDynamicMessageFactory@protobuf@google@@UAEPAXI@Z 1001b690 f i libprotobuf:dynamic_message.obj
 0001:0001a6c0       ??_EMessageFactory@protobuf@google@@UAEPAXI@Z 1001b6c0 f i libprotobuf:dynamic_message.obj
 0001:0001a6c0       ??_GMessageFactory@protobuf@google@@UAEPAXI@Z 1001b6c0 f i libprotobuf:dynamic_message.obj
 0001:0001a6f0       ?ConstructDefaultOneofInstance@DynamicMessageFactory@protobuf@google@@CAXPBVDescriptor@23@QBHPAX@Z 1001b6f0 f   libprotobuf:dynamic_message.obj
 0001:0001a890       ?CrossLinkPrototypes@DynamicMessage@protobuf@google@@QAEXXZ 1001b890 f   libprotobuf:dynamic_message.obj
 0001:0001aac0       ?GetEmptyString@internal@protobuf@google@@YAABV?$basic_string@DU?$char_traits@D@std@@V?$allocator@D@2@@std@@XZ 1001bac0 f i libprotobuf:dynamic_message.obj
 0001:0001ab40       ?GetMetadata@DynamicMessage@protobuf@google@@UBE?AUMetadata@23@XZ 1001bb40 f   libprotobuf:dynamic_message.obj
 0001:0001ab60       ?GetPrototype@DynamicMessageFactory@protobuf@google@@UAEPBVMessage@23@PBVDescriptor@23@@Z 1001bb60 f   libprotobuf:dynamic_message.obj
 0001:0001abd0       ?GetPrototypeNoLock@DynamicMessageFactory@protobuf@google@@AAEPBVMessage@23@PBVDescriptor@23@@Z 1001bbd0 f   libprotobuf:dynamic_message.obj
 0001:0001afe0       ?New@DynamicMessage@protobuf@google@@UBEPAVMessage@23@XZ 1001bfe0 f   libprotobuf:dynamic_message.obj
 0001:0001b150       ?SetCachedSize@DynamicMessage@protobuf@google@@UBEXH@Z 1001c150 f   libprotobuf:dynamic_message.obj
 0001:0001b160       ?is_prototype@DynamicMessage@protobuf@google@@ABE_NXZ 1001c160 f i libprotobuf:dynamic_message.obj
 0001:0001b180       ??0CodedInputStream@io@protobuf@google@@QAE@PAVZeroCopyInputStream@123@@Z 1001c180 f i libprotobuf:message_lite.obj
 0001:0001b200       ??1MessageLite@protobuf@google@@UAE@XZ 1001c200 f   libprotobuf:message_lite.obj
 0001:0001b210       ?AppendPartialToString@MessageLite@protobuf@google@@QBE_NPAV?$basic_string@DU?$char_traits@D@std@@V?$allocator@D@2@@std@@@Z 1001c210 f   libprotobuf:message_lite.obj
 0001:0001b2a0       ?AppendToString@MessageLite@protobuf@google@@QBE_NPAV?$basic_string@DU?$char_traits@D@std@@V?$allocator@D@2@@std@@@Z 1001c2a0 f   libprotobuf:message_lite.obj
 0001:0001b550       ?InitializationErrorString@MessageLite@protobuf@google@@UBE?AV?$basic_string@DU?$char_traits@D@std@@V?$allocator@D@2@@std@@XZ 1001c550 f   libprotobuf:message_lite.obj
 0001:0001b720       ?ParseFromArray@MessageLite@protobuf@google@@QAE_NPBXH@Z 1001c720 f   libprotobuf:message_lite.obj
 0001:0001b740       ?ParseFromString@MessageLite@protobuf@google@@QAE_NABV?$basic_string@DU?$char_traits@D@std@@V?$allocator@D@2@@std@@@Z 1001c740 f   libprotobuf:message_lite.obj
 0001:0001b760       ?SerializeAsString@MessageLite@protobuf@google@@QBE?AV?$basic_string@DU?$char_traits@D@std@@V?$allocator@D@2@@std@@XZ 1001c760 f   libprotobuf:message_lite.obj
 0001:0001b800       ?SerializeToArray@MessageLite@protobuf@google@@QBE_NPAXH@Z 1001c800 f   libprotobuf:message_lite.obj
 0001:0001b860       ?SerializeToString@MessageLite@protobuf@google@@QBE_NPAV?$basic_string@DU?$char_traits@D@std@@V?$allocator@D@2@@std@@@Z 1001c860 f   libprotobuf:message_lite.obj
 0001:0001b8b0       ?SerializeWithCachedSizesToArray@MessageLite@protobuf@google@@UBEPAEPAE@Z 1001c8b0 f   libprotobuf:message_lite.obj
 0001:0001b9a0       ?_Chassign@?$basic_string@DU?$char_traits@D@std@@V?$allocator@D@2@@std@@QAEXIID@Z 1001c9a0 f i libprotobuf:message_lite.obj
 0001:0001b9f0       ?append@?$basic_string@DU?$char_traits@D@std@@V?$allocator@D@2@@std@@QAEAAV12@ID@Z 1001c9f0 f i libprotobuf:message_lite.obj
 0001:0001baa0       ??$?8DU?$char_traits@D@std@@V?$allocator@D@1@@std@@YA_NABV?$basic_string@DU?$char_traits@D@std@@V?$allocator@D@2@@0@PBD@Z 1001caa0 f i libprotobuf:descriptor.obj
 0001:0001bae0       ??$?HDU?$char_traits@D@std@@V?$allocator@D@1@@std@@YA?AV?$basic_string@DU?$char_traits@D@std@@V?$allocator@D@2@@0@$$QAV10@0@Z 1001cae0 f i libprotobuf:descriptor.obj
 0001:0001bb50       ??$?HDU?$char_traits@D@std@@V?$allocator@D@1@@std@@YA?AV?$basic_string@DU?$char_traits@D@std@@V?$allocator@D@2@@0@$$QAV10@ABV10@@Z 1001cb50 f i libprotobuf:descriptor.obj
 0001:0001bb90       ??$?HDU?$char_traits@D@std@@V?$allocator@D@1@@std@@YA?AV?$basic_string@DU?$char_traits@D@std@@V?$allocator@D@2@@0@$$QAV10@PBD@Z 1001cb90 f i libprotobuf:descriptor.obj
 0001:0001bbf0       ??$?HDU?$char_traits@D@std@@V?$allocator@D@1@@std@@YA?AV?$basic_string@DU?$char_traits@D@std@@V?$allocator@D@2@@0@ABV10@PBD@Z 1001cbf0 f i libprotobuf:descriptor.obj
 0001:0001bcf0       ??$?HDU?$char_traits@D@std@@V?$allocator@D@1@@std@@YA?AV?$basic_string@DU?$char_traits@D@std@@V?$allocator@D@2@@0@PBD$$QAV10@@Z 1001ccf0 f i libprotobuf:descriptor.obj
 0001:0001bd50       ??$AllocateOptionsImpl@VDescriptor@protobuf@google@@@DescriptorBuilder@protobuf@google@@AAEXABV?$basic_string@DU?$char_traits@D@std@@V?$allocator@D@2@@std@@0ABVMessageOptions@12@PAVDescriptor@12@@Z 1001cd50 f i libprotobuf:descriptor.obj
 0001:0001be60       ??$AllocateOptionsImpl@VEnumDescriptor@protobuf@google@@@DescriptorBuilder@protobuf@google@@AAEXABV?$basic_string@DU?$char_traits@D@std@@V?$allocator@D@2@@std@@0ABVEnumOptions@12@PAVEnumDescriptor@12@@Z 1001ce60 f i libprotobuf:descriptor.obj
 0001:0001bf70       ??$AllocateOptionsImpl@VEnumValueDescriptor@protobuf@google@@@DescriptorBuilder@protobuf@google@@AAEXABV?$basic_string@DU?$char_traits@D@std@@V?$allocator@D@2@@std@@0ABVEnumValueOptions@12@PAVEnumValueDescriptor@12@@Z 1001cf70 f i libprotobuf:descriptor.obj
 0001:0001c080       ??$AllocateOptionsImpl@VFieldDescriptor@protobuf@google@@@DescriptorBuilder@protobuf@google@@AAEXABV?$basic_string@DU?$char_traits@D@std@@V?$allocator@D@2@@std@@0ABVFieldOptions@12@PAVFieldDescriptor@12@@Z 1001d080 f i libprotobuf:descriptor.obj
 0001:0001c190       ??$AllocateOptionsImpl@VFileDescriptor@protobuf@google@@@DescriptorBuilder@protobuf@google@@AAEXABV?$basic_string@DU?$char_traits@D@std@@V?$allocator@D@2@@std@@0ABVFileOptions@12@PAVFileDescriptor@12@@Z 1001d190 f i libprotobuf:descriptor.obj
 0001:0001c2a0       ??$AllocateOptionsImpl@VMethodDescriptor@protobuf@google@@@DescriptorBuilder@protobuf@google@@AAEXABV?$basic_string@DU?$char_traits@D@std@@V?$allocator@D@2@@std@@0ABVMethodOptions@12@PAVMethodDescriptor@12@@Z 1001d2a0 f i libprotobuf:descriptor.obj
 0001:0001c3b0       ??$AllocateOptionsImpl@VServiceDescriptor@protobuf@google@@@DescriptorBuilder@protobuf@google@@AAEXABV?$basic_string@DU?$char_traits@D@std@@V?$allocator@D@2@@std@@0ABVServiceOptions@12@PAVServiceDescriptor@12@@Z 1001d3b0 f i libprotobuf:descriptor.obj
 0001:0001c4c0       ??$Join@V?$_Vector_const_iterator@V?$_Vector_val@U?$_Simple_types@V?$basic_string@DU?$char_traits@D@std@@V?$allocator@D@2@@std@@@std@@@std@@@std@@@protobuf@google@@YAXV?$_Vector_const_iterator@V?$_Vector_val@U?$_Simple_types@V?$basic_string@DU?$char_traits@D@std@@V?$allocator@D@2@@std@@@std@@@std@@@std@@0PBDPAV?$basic_string@DU?$char_traits@D@std@@V?$allocator@D@2@@3@@Z 1001d4c0 f i libprotobuf:descriptor.obj
 0001:0001c600       ??$Join@V?$vector@V?$basic_string@DU?$char_traits@D@std@@V?$allocator@D@2@@std@@V?$allocator@V?$basic_string@DU?$char_traits@D@std@@V?$allocator@D@2@@std@@@2@@std@@@protobuf@google@@YA?AV?$basic_string@DU?$char_traits@D@std@@V?$allocator@D@2@@std@@ABV?$vector@V?$basic_string@DU?$char_traits@D@std@@V?$allocator@D@2@@std@@V?$allocator@V?$basic_string@DU?$char_traits@D@std@@V?$allocator@D@2@@std@@@2@@3@PBD@Z 1001d600 f i libprotobuf:descriptor.obj
 0001:0001c6a0       ??$STLDeleteContainerPointers@V?$_Vector_iterator@V?$_Vector_val@U?$_Simple_types@PAV?$basic_string@DU?$char_traits@D@std@@V?$allocator@D@2@@std@@@std@@@std@@@std@@@protobuf@google@@YAXV?$_Vector_iterator@V?$_Vector_val@U?$_Simple_types@PAV?$basic_string@DU?$char_traits@D@std@@V?$allocator@D@2@@std@@@std@@@std@@@std@@0@Z 1001d6a0 f i libprotobuf:descriptor.obj
 0001:0001c740       ??$_Buynode@ABU?$pair@$$CBU?$pair@PBXPBD@std@@USymbol@?A0x0ecadf1d@protobuf@google@@@std@@@?$_Tree_comp_alloc@V?$_Tmap_traits@U?$pair@PBXPBD@std@@USymbol@?A0x0ecadf1d@protobuf@google@@UPointerStringPairHash@456@V?$allocator@U?$pair@$$CBU?$pair@PBXPBD@std@@USymbol@?A0x0ecadf1d@protobuf@google@@@std@@@2@$0A@@std@@@std@@QAEPAU?$_Tree_node@U?$pair@$$CBU?$pair@PBXPBD@std@@USymbol@?A0x0ecadf1d@protobuf@google@@@std@@PAX@1@ABU?$pair@$$CBU?$pair@PBXPBD@std@@USymbol@?A0x0ecadf1d@protobuf@google@@@1@@Z 1001d740 f i libprotobuf:descriptor.obj
 0001:0001c770       ??$_Buynode@ABU?$pair@$$CBU?$pair@PBVDescriptor@protobuf@google@@H@std@@PBVFieldDescriptor@protobuf@google@@@std@@@?$_Tree_comp_alloc@V?$_Tmap_traits@U?$pair@PBVDescriptor@protobuf@google@@H@std@@PBVFieldDescriptor@protobuf@google@@U?$PointerIntegerPairHash@U?$pair@PBVDescriptor@protobuf@google@@H@std@@@?A0x0ecadf1d@45@V?$allocator@U?$pair@$$CBU?$pair@PBVDescriptor@protobuf@google@@H@std@@PBVFieldDescriptor@protobuf@google@@@std@@@2@$0A@@std@@@std@@QAEPAU?$_Tree_node@U?$pair@$$CBU?$pair@PBVDescriptor@protobuf@google@@H@std@@PBVFieldDescriptor@protobuf@google@@@std@@PAX@1@ABU?$pair@$$CBU?$pair@PBVDescriptor@protobuf@google@@H@std@@PBVFieldDescriptor@protobuf@google@@@1@@Z 1001d770 f i libprotobuf:descriptor.obj
 0001:0001c770       ??$_Buynode@ABU?$pair@$$CBU?$pair@PBXPBD@std@@PBVFieldDescriptor@protobuf@google@@@std@@@?$_Tree_comp_alloc@V?$_Tmap_traits@U?$pair@PBXPBD@std@@PBVFieldDescriptor@protobuf@google@@UPointerStringPairHash@?A0x0ecadf1d@45@V?$allocator@U?$pair@$$CBU?$pair@PBXPBD@std@@PBVFieldDescriptor@protobuf@google@@@std@@@2@$0A@@std@@@std@@QAEPAU?$_Tree_node@U?$pair@$$CBU?$pair@PBXPBD@std@@PBVFieldDescriptor@protobuf@google@@@std@@PAX@1@ABU?$pair@$$CBU?$pair@PBXPBD@std@@PBVFieldDescriptor@protobuf@google@@@1@@Z 1001d770 f i libprotobuf:descriptor.obj
 0001:0001c770       ??$_Buynode@ABU?$pair@$$CBU?$pair@PBVDescriptor@protobuf@google@@H@std@@PBVFieldDescriptor@protobuf@google@@@std@@@?$_Tree_comp_alloc@V?$_Tmap_traits@U?$pair@PBVDescriptor@protobuf@google@@H@std@@PBVFieldDescriptor@protobuf@google@@U?$less@U?$pair@PBVDescriptor@protobuf@google@@H@std@@@2@V?$allocator@U?$pair@$$CBU?$pair@PBVDescriptor@protobuf@google@@H@std@@PBVFieldDescriptor@protobuf@google@@@std@@@2@$0A@@std@@@std@@QAEPAU?$_Tree_node@U?$pair@$$CBU?$pair@PBVDescriptor@protobuf@google@@H@std@@PBVFieldDescriptor@protobuf@google@@@std@@PAX@1@ABU?$pair@$$CBU?$pair@PBVDescriptor@protobuf@google@@H@std@@PBVFieldDescriptor@protobuf@google@@@1@@Z 1001d770 f i libprotobuf:descriptor.obj
 0001:0001c770       ??$_Buynode@ABU?$pair@$$CBU?$pair@PBVEnumDescriptor@protobuf@google@@H@std@@PBVEnumValueDescriptor@protobuf@google@@@std@@@?$_Tree_comp_alloc@V?$_Tmap_traits@U?$pair@PBVEnumDescriptor@protobuf@google@@H@std@@PBVEnumValueDescriptor@protobuf@google@@U?$PointerIntegerPairHash@U?$pair@PBVEnumDescriptor@protobuf@google@@H@std@@@?A0x0ecadf1d@45@V?$allocator@U?$pair@$$CBU?$pair@PBVEnumDescriptor@protobuf@google@@H@std@@PBVEnumValueDescriptor@protobuf@google@@@std@@@2@$0A@@std@@@std@@QAEPAU?$_Tree_node@U?$pair@$$CBU?$pair@PBVEnumDescriptor@protobuf@google@@H@std@@PBVEnumValueDescriptor@protobuf@google@@@std@@PAX@1@ABU?$pair@$$CBU?$pair@PBVEnumDescriptor@protobuf@google@@H@std@@PBVEnumValueDescriptor@protobuf@google@@@1@@Z 1001d770 f i libprotobuf:descriptor.obj
 0001:0001c770       ??$_Buynode@ABU?$pair@QBDUSymbol@?A0x0ecadf1d@protobuf@google@@@std@@@?$_Tree_comp_alloc@V?$_Tmap_traits@PBDUSymbol@?A0x0ecadf1d@protobuf@google@@U?$hash@PBD@34@V?$allocator@U?$pair@QBDUSymbol@?A0x0ecadf1d@protobuf@google@@@std@@@std@@$0A@@std@@@std@@QAEPAU?$_Tree_node@U?$pair@QBDUSymbol@?A0x0ecadf1d@protobuf@google@@@std@@PAX@1@ABU?$pair@QBDUSymbol@?A0x0ecadf1d@protobuf@google@@@1@@Z 1001d770 f i libprotobuf:descriptor.obj
 0001:0001c7a0       ??$_Buynode@ABUpiecewise_construct_t@std@@V?$tuple@$$QAH@2@V?$tuple@$$V@2@@?$_Tree_comp_alloc@V?$_Tmap_traits@HV?$basic_string@DU?$char_traits@D@std@@V?$allocator@D@2@@std@@U?$less@H@2@V?$allocator@U?$pair@$$CBHV?$basic_string@DU?$char_traits@D@std@@V?$allocator@D@2@@std@@@std@@@2@$0A@@std@@@std@@QAEPAU?$_Tree_node@U?$pair@$$CBHV?$basic_string@DU?$char_traits@D@std@@V?$allocator@D@2@@std@@@std@@PAX@1@ABUpiecewise_construct_t@1@$$QAV?$tuple@$$QAH@1@$$QAV?$tuple@$$V@1@@Z 1001d7a0 f i libprotobuf:descriptor.obj
 0001:0001c7e0       ??$_Buynode@ABV?$basic_string@DU?$char_traits@D@std@@V?$allocator@D@2@@std@@@?$_Tree_comp_alloc@V?$_Tset_traits@V?$basic_string@DU?$char_traits@D@std@@V?$allocator@D@2@@std@@U?$less@V?$basic_string@DU?$char_traits@D@std@@V?$allocator@D@2@@std@@@2@V?$allocator@V?$basic_string@DU?$char_traits@D@std@@V?$allocator@D@2@@std@@@2@$0A@@std@@@std@@QAEPAU?$_Tree_node@V?$basic_string@DU?$char_traits@D@std@@V?$allocator@D@2@@std@@PAX@1@ABV?$basic_string@DU?$char_traits@D@std@@V?$allocator@D@2@@1@@Z 1001d7e0 f i libprotobuf:descriptor.obj
 0001:0001c7e0       ??$_Buynode@ABV?$basic_string@DU?$char_traits@D@std@@V?$allocator@D@2@@std@@@?$_Tree_comp_alloc@V?$_Tset_traits@V?$basic_string@DU?$char_traits@D@std@@V?$allocator@D@2@@std@@U?$hash@V?$basic_string@DU?$char_traits@D@std@@V?$allocator@D@2@@std@@@protobuf@google@@V?$allocator@V?$basic_string@DU?$char_traits@D@std@@V?$allocator@D@2@@std@@@2@$0A@@std@@@std@@QAEPAU?$_Tree_node@V?$basic_string@DU?$char_traits@D@std@@V?$allocator@D@2@@std@@PAX@1@ABV?$basic_string@DU?$char_traits@D@std@@V?$allocator@D@2@@1@@Z 1001d7e0 f i libprotobuf:descriptor.obj
 0001:0001c8a0       ??$_Buynode@ABQBVFileDescriptor@protobuf@google@@@?$_Tree_comp_alloc@V?$_Tset_traits@PBVFileDescriptor@protobuf@google@@U?$less@PBVFileDescriptor@protobuf@google@@@std@@V?$allocator@PBVFileDescriptor@protobuf@google@@@5@$0A@@std@@@std@@QAEPAU?$_Tree_node@PBVFileDescriptor@protobuf@google@@PAX@1@ABQBVFileDescriptor@protobuf@google@@@Z 1001d8a0 f i libprotobuf:descriptor.obj
 0001:0001c8a0       ??$_Buynode@PBVDescriptor@protobuf@google@@@?$_Tree_comp_alloc@V?$_Tset_traits@PBVDescriptor@protobuf@google@@U?$less@PBVDescriptor@protobuf@google@@@std@@V?$allocator@PBVDescriptor@protobuf@google@@@5@$0A@@std@@@std@@QAEPAU?$_Tree_node@PBVDescriptor@protobuf@google@@PAX@1@$$QAPBVDescriptor@protobuf@google@@@Z 1001d8a0 f i libprotobuf:descriptor.obj
 0001:0001c8a0       ??$_Buynode@ABH@?$_Tree_comp_alloc@V?$_Tset_traits@HU?$less@H@std@@V?$allocator@H@2@$0A@@std@@@std@@QAEPAU?$_Tree_node@HPAX@1@ABH@Z 1001d8a0 f i libprotobuf:generated_message_reflection.obj
 0001:0001c8a0       ??$_Buynode@H@?$_Tree_comp_alloc@V?$_Tset_traits@HU?$less@H@std@@V?$allocator@H@2@$0A@@std@@@std@@QAEPAU?$_Tree_node@HPAX@1@$$QAH@Z 1001d8a0 f i libprotobuf:descriptor.obj
 0001:0001c8c0       ??$_Buynode@V?$basic_string@DU?$char_traits@D@std@@V?$allocator@D@2@@std@@@?$_Tree_comp_alloc@V?$_Tset_traits@V?$basic_string@DU?$char_traits@D@std@@V?$allocator@D@2@@std@@U?$less@V?$basic_string@DU?$char_traits@D@std@@V?$allocator@D@2@@std@@@2@V?$allocator@V?$basic_string@DU?$char_traits@D@std@@V?$allocator@D@2@@std@@@2@$0A@@std@@@std@@QAEPAU?$_Tree_node@V?$basic_string@DU?$char_traits@D@std@@V?$allocator@D@2@@std@@PAX@1@$$QAV?$basic_string@DU?$char_traits@D@std@@V?$allocator@D@2@@1@@Z 1001d8c0 f i libprotobuf:descriptor.obj
 0001:0001c930       ??$_Deallocate@UCheckPoint@Tables@DescriptorPool@protobuf@google@@@std@@YAXPAUCheckPoint@Tables@DescriptorPool@protobuf@google@@I@Z 1001d930 f i libprotobuf:descriptor.obj
 0001:0001c990       ??$_Deallocate@UOptionsToInterpret@?A0x0ecadf1d@protobuf@google@@@std@@YAXPAUOptionsToInterpret@?A0x0ecadf1d@protobuf@google@@I@Z 1001d990 f i libprotobuf:descriptor.obj
 0001:0001c9f0       ??$_Destroy_range@U?$_Wrap_alloc@V?$allocator@UOptionsToInterpret@?A0x0ecadf1d@protobuf@google@@@std@@@std@@@std@@YAXPAUOptionsToInterpret@?A0x0ecadf1d@protobuf@google@@0AAU?$_Wrap_alloc@V?$allocator@UOptionsToInterpret@?A0x0ecadf1d@protobuf@google@@@std@@@0@U_Nonscalar_ptr_iterator_tag@0@@Z 1001d9f0 f i libprotobuf:descriptor.obj
 0001:0001caf0       ??$_Distance2@V?$_Tree_iterator@V?$_Tree_val@U?$_Tree_simple_types@U?$pair@$$CBHUExtension@ExtensionSet@internal@protobuf@google@@@std@@@std@@@std@@@std@@I@std@@YAXV?$_Tree_iterator@V?$_Tree_val@U?$_Tree_simple_types@U?$pair@$$CBHUExtension@ExtensionSet@internal@protobuf@google@@@std@@@std@@@std@@@0@0AAIUbidirectional_iterator_tag@0@@Z 1001daf0 f i libprotobuf:extension_set.obj
 0001:0001caf0       ??$_Distance2@V?$_Tree_const_iterator@V?$_Tree_val@U?$_Tree_simple_types@PBVFileDescriptor@protobuf@google@@@std@@@std@@@std@@I@std@@YAXV?$_Tree_const_iterator@V?$_Tree_val@U?$_Tree_simple_types@PBVFileDescriptor@protobuf@google@@@std@@@std@@@0@0AAIUbidirectional_iterator_tag@0@@Z 1001daf0 f i libprotobuf:descriptor.obj
 0001:0001caf0       ??$_Distance2@V?$_Tree_const_iterator@V?$_Tree_val@U?$_Tree_simple_types@V?$basic_string@DU?$char_traits@D@std@@V?$allocator@D@2@@std@@@std@@@std@@@std@@I@std@@YAXV?$_Tree_const_iterator@V?$_Tree_val@U?$_Tree_simple_types@V?$basic_string@DU?$char_traits@D@std@@V?$allocator@D@2@@std@@@std@@@std@@@0@0AAIUbidirectional_iterator_tag@0@@Z 1001daf0 f i libprotobuf:descriptor.obj
 0001:0001caf0       ??$_Distance2@V?$_Tree_const_iterator@V?$_Tree_val@U?$_Tree_simple_types@PBVDescriptor@protobuf@google@@@std@@@std@@@std@@I@std@@YAXV?$_Tree_const_iterator@V?$_Tree_val@U?$_Tree_simple_types@PBVDescriptor@protobuf@google@@@std@@@std@@@0@0AAIUbidirectional_iterator_tag@0@@Z 1001daf0 f i libprotobuf:descriptor.obj
 0001:0001cb60       ??$_Eqrange@PBD@?$_Tree@V?$_Tmap_traits@PBDPBVFileDescriptor@protobuf@google@@U?$hash@PBD@23@V?$allocator@U?$pair@QBDPBVFileDescriptor@protobuf@google@@@std@@@std@@$0A@@std@@@std@@IBE?AU?$pair@V?$_Tree_const_iterator@V?$_Tree_val@U?$_Tree_simple_types@U?$pair@QBDPBVFileDescriptor@protobuf@google@@@std@@@std@@@std@@@std@@V12@@1@ABQBD@Z 1001db60 f i libprotobuf:descriptor.obj
 0001:0001cb60       ??$_Eqrange@PBD@?$_Tree@V?$_Tmap_traits@PBDUSymbol@?A0x0ecadf1d@protobuf@google@@U?$hash@PBD@34@V?$allocator@U?$pair@QBDUSymbol@?A0x0ecadf1d@protobuf@google@@@std@@@std@@$0A@@std@@@std@@IBE?AU?$pair@V?$_Tree_const_iterator@V?$_Tree_val@U?$_Tree_simple_types@U?$pair@QBDUSymbol@?A0x0ecadf1d@protobuf@google@@@std@@@std@@@std@@@std@@V12@@1@ABQBD@Z 1001db60 f i libprotobuf:descriptor.obj
 0001:0001cc80       ??$_Eqrange@PBVDescriptor@protobuf@google@@@?$_Tree@V?$_Tset_traits@PBVDescriptor@protobuf@google@@U?$less@PBVDescriptor@protobuf@google@@@std@@V?$allocator@PBVDescriptor@protobuf@google@@@5@$0A@@std@@@std@@IBE?AU?$pair@V?$_Tree_const_iterator@V?$_Tree_val@U?$_Tree_simple_types@PBVDescriptor@protobuf@google@@@std@@@std@@@std@@V12@@1@ABQBVDescriptor@protobuf@google@@@Z 1001dc80 f i libprotobuf:descriptor.obj
 0001:0001cc80       ??$_Eqrange@PBVFileDescriptor@protobuf@google@@@?$_Tree@V?$_Tset_traits@PBVFileDescriptor@protobuf@google@@U?$less@PBVFileDescriptor@protobuf@google@@@std@@V?$allocator@PBVFileDescriptor@protobuf@google@@@5@$0A@@std@@@std@@IBE?AU?$pair@V?$_Tree_const_iterator@V?$_Tree_val@U?$_Tree_simple_types@PBVFileDescriptor@protobuf@google@@@std@@@std@@@std@@V12@@1@ABQBVFileDescriptor@protobuf@google@@@Z 1001dc80 f i libprotobuf:descriptor.obj
 0001:0001cd00       ??$_Eqrange@U?$pair@PBVDescriptor@protobuf@google@@H@std@@@?$_Tree@V?$_Tmap_traits@U?$pair@PBVDescriptor@protobuf@google@@H@std@@PBVFieldDescriptor@protobuf@google@@U?$less@U?$pair@PBVDescriptor@protobuf@google@@H@std@@@2@V?$allocator@U?$pair@$$CBU?$pair@PBVDescriptor@protobuf@google@@H@std@@PBVFieldDescriptor@protobuf@google@@@std@@@2@$0A@@std@@@std@@IBE?AU?$pair@V?$_Tree_const_iterator@V?$_Tree_val@U?$_Tree_simple_types@U?$pair@$$CBU?$pair@PBVDescriptor@protobuf@google@@H@std@@PBVFieldDescriptor@protobuf@google@@@std@@@std@@@std@@@std@@V12@@1@ABU?$pair@PBVDescriptor@protobuf@google@@H@1@@Z 1001dd00 f i libprotobuf:descriptor.obj
 0001:0001cdb0       ??$_Eqrange@V?$basic_string@DU?$char_traits@D@std@@V?$allocator@D@2@@std@@@?$_Tree@V?$_Tset_traits@V?$basic_string@DU?$char_traits@D@std@@V?$allocator@D@2@@std@@U?$hash@V?$basic_string@DU?$char_traits@D@std@@V?$allocator@D@2@@std@@@protobuf@google@@V?$allocator@V?$basic_string@DU?$char_traits@D@std@@V?$allocator@D@2@@std@@@2@$0A@@std@@@std@@IBE?AU?$pair@V?$_Tree_const_iterator@V?$_Tree_val@U?$_Tree_simple_types@V?$basic_string@DU?$char_traits@D@std@@V?$allocator@D@2@@std@@@std@@@std@@@std@@V12@@1@ABV?$basic_string@DU?$char_traits@D@std@@V?$allocator@D@2@@1@@Z 1001ddb0 f i libprotobuf:descriptor.obj
 0001:0001d020       ??$_Insert_at@AAU?$pair@$$CBHV?$basic_string@DU?$char_traits@D@std@@V?$allocator@D@2@@std@@@std@@PAU?$_Tree_node@U?$pair@$$CBHV?$basic_string@DU?$char_traits@D@std@@V?$allocator@D@2@@std@@@std@@PAX@2@@?$_Tree@V?$_Tmap_traits@HV?$basic_string@DU?$char_traits@D@std@@V?$allocator@D@2@@std@@U?$less@H@2@V?$allocator@U?$pair@$$CBHV?$basic_string@DU?$char_traits@D@std@@V?$allocator@D@2@@std@@@std@@@2@$0A@@std@@@std@@IAE?AV?$_Tree_iterator@V?$_Tree_val@U?$_Tree_simple_types@U?$pair@$$CBHV?$basic_string@DU?$char_traits@D@std@@V?$allocator@D@2@@std@@@std@@@std@@@std@@@1@_NPAU?$_Tree_node@U?$pair@$$CBHV?$basic_string@DU?$char_traits@D@std@@V?$allocator@D@2@@std@@@std@@PAX@1@AAU?$pair@$$CBHV?$basic_string@DU?$char_traits@D@std@@V?$allocator@D@2@@std@@@1@1@Z 1001e020 f i libprotobuf:descriptor.obj
 0001:0001d1f0       ??$_Insert_at@ABU?$pair@$$CBU?$pair@PBXPBD@std@@USymbol@?A0x0ecadf1d@protobuf@google@@@std@@U_Nil@2@@?$_Tree@V?$_Tmap_traits@U?$pair@PBXPBD@std@@USymbol@?A0x0ecadf1d@protobuf@google@@UPointerStringPairHash@456@V?$allocator@U?$pair@$$CBU?$pair@PBXPBD@std@@USymbol@?A0x0ecadf1d@protobuf@google@@@std@@@2@$0A@@std@@@std@@IAE?AV?$_Tree_iterator@V?$_Tree_val@U?$_Tree_simple_types@U?$pair@$$CBU?$pair@PBXPBD@std@@USymbol@?A0x0ecadf1d@protobuf@google@@@std@@@std@@@std@@@1@_NPAU?$_Tree_node@U?$pair@$$CBU?$pair@PBXPBD@std@@USymbol@?A0x0ecadf1d@protobuf@google@@@std@@PAX@1@ABU?$pair@$$CBU?$pair@PBXPBD@std@@USymbol@?A0x0ecadf1d@protobuf@google@@@1@U_Nil@1@@Z 1001e1f0 f i libprotobuf:descriptor.obj
 0001:0001d390       ??$_Insert_at@ABU?$pair@$$CBU?$pair@PBXPBD@std@@PBVFieldDescriptor@protobuf@google@@@std@@U_Nil@2@@?$_Tree@V?$_Tmap_traits@U?$pair@PBXPBD@std@@PBVFieldDescriptor@protobuf@google@@UPointerStringPairHash@?A0x0ecadf1d@45@V?$allocator@U?$pair@$$CBU?$pair@PBXPBD@std@@PBVFieldDescriptor@protobuf@google@@@std@@@2@$0A@@std@@@std@@IAE?AV?$_Tree_iterator@V?$_Tree_val@U?$_Tree_simple_types@U?$pair@$$CBU?$pair@PBXPBD@std@@PBVFieldDescriptor@protobuf@google@@@std@@@std@@@std@@@1@_NPAU?$_Tree_node@U?$pair@$$CBU?$pair@PBXPBD@std@@PBVFieldDescriptor@protobuf@google@@@std@@PAX@1@ABU?$pair@$$CBU?$pair@PBXPBD@std@@PBVFieldDescriptor@protobuf@google@@@1@U_Nil@1@@Z 1001e390 f i libprotobuf:descriptor.obj
 0001:0001d390       ??$_Insert_at@ABU?$pair@$$CBU?$pair@PBVEnumDescriptor@protobuf@google@@H@std@@PBVEnumValueDescriptor@protobuf@google@@@std@@U_Nil@2@@?$_Tree@V?$_Tmap_traits@U?$pair@PBVEnumDescriptor@protobuf@google@@H@std@@PBVEnumValueDescriptor@protobuf@google@@U?$PointerIntegerPairHash@U?$pair@PBVEnumDescriptor@protobuf@google@@H@std@@@?A0x0ecadf1d@45@V?$allocator@U?$pair@$$CBU?$pair@PBVEnumDescriptor@protobuf@google@@H@std@@PBVEnumValueDescriptor@protobuf@google@@@std@@@2@$0A@@std@@@std@@IAE?AV?$_Tree_iterator@V?$_Tree_val@U?$_Tree_simple_types@U?$pair@$$CBU?$pair@PBVEnumDescriptor@protobuf@google@@H@std@@PBVEnumValueDescriptor@protobuf@google@@@std@@@std@@@std@@@1@_NPAU?$_Tree_node@U?$pair@$$CBU?$pair@PBVEnumDescriptor@protobuf@google@@H@std@@PBVEnumValueDescriptor@protobuf@google@@@std@@PAX@1@ABU?$pair@$$CBU?$pair@PBVEnumDescriptor@protobuf@google@@H@std@@PBVEnumValueDescriptor@protobuf@google@@@1@U_Nil@1@@Z 1001e390 f i libprotobuf:descriptor.obj
 0001:0001d390       ??$_Insert_at@ABU?$pair@$$CBU?$pair@PBVDescriptor@protobuf@google@@H@std@@PBVFieldDescriptor@protobuf@google@@@std@@U_Nil@2@@?$_Tree@V?$_Tmap_traits@U?$pair@PBVDescriptor@protobuf@google@@H@std@@PBVFieldDescriptor@protobuf@google@@U?$less@U?$pair@PBVDescriptor@protobuf@google@@H@std@@@2@V?$allocator@U?$pair@$$CBU?$pair@PBVDescriptor@protobuf@google@@H@std@@PBVFieldDescriptor@protobuf@google@@@std@@@2@$0A@@std@@@std@@IAE?AV?$_Tree_iterator@V?$_Tree_val@U?$_Tree_simple_types@U?$pair@$$CBU?$pair@PBVDescriptor@protobuf@google@@H@std@@PBVFieldDescriptor@protobuf@google@@@std@@@std@@@std@@@1@_NPAU?$_Tree_node@U?$pair@$$CBU?$pair@PBVDescriptor@protobuf@google@@H@std@@PBVFieldDescriptor@protobuf@google@@@std@@PAX@1@ABU?$pair@$$CBU?$pair@PBVDescriptor@protobuf@google@@H@std@@PBVFieldDescriptor@protobuf@google@@@1@U_Nil@1@@Z 1001e390 f i libprotobuf:descriptor.obj
 0001:0001d390       ??$_Insert_at@ABU?$pair@$$CBU?$pair@PBVDescriptor@protobuf@google@@H@std@@PBVFieldDescriptor@protobuf@google@@@std@@U_Nil@2@@?$_Tree@V?$_Tmap_traits@U?$pair@PBVDescriptor@protobuf@google@@H@std@@PBVFieldDescriptor@protobuf@google@@U?$PointerIntegerPairHash@U?$pair@PBVDescriptor@protobuf@google@@H@std@@@?A0x0ecadf1d@45@V?$allocator@U?$pair@$$CBU?$pair@PBVDescriptor@protobuf@google@@H@std@@PBVFieldDescriptor@protobuf@google@@@std@@@2@$0A@@std@@@std@@IAE?AV?$_Tree_iterator@V?$_Tree_val@U?$_Tree_simple_types@U?$pair@$$CBU?$pair@PBVDescriptor@protobuf@google@@H@std@@PBVFieldDescriptor@protobuf@google@@@std@@@std@@@std@@@1@_NPAU?$_Tree_node@U?$pair@$$CBU?$pair@PBVDescriptor@protobuf@google@@H@std@@PBVFieldDescriptor@protobuf@google@@@std@@PAX@1@ABU?$pair@$$CBU?$pair@PBVDescriptor@protobuf@google@@H@std@@PBVFieldDescriptor@protobuf@google@@@1@U_Nil@1@@Z 1001e390 f i libprotobuf:descriptor.obj
 0001:0001d390       ??$_Insert_at@ABU?$pair@QBDUSymbol@?A0x0ecadf1d@protobuf@google@@@std@@U_Nil@2@@?$_Tree@V?$_Tmap_traits@PBDUSymbol@?A0x0ecadf1d@protobuf@google@@U?$hash@PBD@34@V?$allocator@U?$pair@QBDUSymbol@?A0x0ecadf1d@protobuf@google@@@std@@@std@@$0A@@std@@@std@@IAE?AV?$_Tree_iterator@V?$_Tree_val@U?$_Tree_simple_types@U?$pair@QBDUSymbol@?A0x0ecadf1d@protobuf@google@@@std@@@std@@@std@@@1@_NPAU?$_Tree_node@U?$pair@QBDUSymbol@?A0x0ecadf1d@protobuf@google@@@std@@PAX@1@ABU?$pair@QBDUSymbol@?A0x0ecadf1d@protobuf@google@@@1@U_Nil@1@@Z 1001e390 f i libprotobuf:descriptor.obj
 0001:0001d530       ??$_Insert_at@ABV?$basic_string@DU?$char_traits@D@std@@V?$allocator@D@2@@std@@U_Nil@2@@?$_Tree@V?$_Tset_traits@V?$basic_string@DU?$char_traits@D@std@@V?$allocator@D@2@@std@@U?$less@V?$basic_string@DU?$char_traits@D@std@@V?$allocator@D@2@@std@@@2@V?$allocator@V?$basic_string@DU?$char_traits@D@std@@V?$allocator@D@2@@std@@@2@$0A@@std@@@std@@IAE?AV?$_Tree_const_iterator@V?$_Tree_val@U?$_Tree_simple_types@V?$basic_string@DU?$char_traits@D@std@@V?$allocator@D@2@@std@@@std@@@std@@@1@_NPAU?$_Tree_node@V?$basic_string@DU?$char_traits@D@std@@V?$allocator@D@2@@std@@PAX@1@ABV?$basic_string@DU?$char_traits@D@std@@V?$allocator@D@2@@1@U_Nil@1@@Z 1001e530 f i libprotobuf:descriptor.obj
 0001:0001d530       ??$_Insert_at@ABV?$basic_string@DU?$char_traits@D@std@@V?$allocator@D@2@@std@@U_Nil@2@@?$_Tree@V?$_Tset_traits@V?$basic_string@DU?$char_traits@D@std@@V?$allocator@D@2@@std@@U?$hash@V?$basic_string@DU?$char_traits@D@std@@V?$allocator@D@2@@std@@@protobuf@google@@V?$allocator@V?$basic_string@DU?$char_traits@D@std@@V?$allocator@D@2@@std@@@2@$0A@@std@@@std@@IAE?AV?$_Tree_const_iterator@V?$_Tree_val@U?$_Tree_simple_types@V?$basic_string@DU?$char_traits@D@std@@V?$allocator@D@2@@std@@@std@@@std@@@1@_NPAU?$_Tree_node@V?$basic_string@DU?$char_traits@D@std@@V?$allocator@D@2@@std@@PAX@1@ABV?$basic_string@DU?$char_traits@D@std@@V?$allocator@D@2@@1@U_Nil@1@@Z 1001e530 f i libprotobuf:descriptor.obj
 0001:0001d6d0       ??$_Insert_at@V?$basic_string@DU?$char_traits@D@std@@V?$allocator@D@2@@std@@U_Nil@2@@?$_Tree@V?$_Tset_traits@V?$basic_string@DU?$char_traits@D@std@@V?$allocator@D@2@@std@@U?$less@V?$basic_string@DU?$char_traits@D@std@@V?$allocator@D@2@@std@@@2@V?$allocator@V?$basic_string@DU?$char_traits@D@std@@V?$allocator@D@2@@std@@@2@$0A@@std@@@std@@IAE?AV?$_Tree_const_iterator@V?$_Tree_val@U?$_Tree_simple_types@V?$basic_string@DU?$char_traits@D@std@@V?$allocator@D@2@@std@@@std@@@std@@@1@_NPAU?$_Tree_node@V?$basic_string@DU?$char_traits@D@std@@V?$allocator@D@2@@std@@PAX@1@$$QAV?$basic_string@DU?$char_traits@D@std@@V?$allocator@D@2@@1@U_Nil@1@@Z 1001e6d0 f i libprotobuf:descriptor.obj
 0001:0001d870       ??$_Insert_hint@AAU?$pair@$$CBHV?$basic_string@DU?$char_traits@D@std@@V?$allocator@D@2@@std@@@std@@PAU?$_Tree_node@U?$pair@$$CBHV?$basic_string@DU?$char_traits@D@std@@V?$allocator@D@2@@std@@@std@@PAX@2@@?$_Tree@V?$_Tmap_traits@HV?$basic_string@DU?$char_traits@D@std@@V?$allocator@D@2@@std@@U?$less@H@2@V?$allocator@U?$pair@$$CBHV?$basic_string@DU?$char_traits@D@std@@V?$allocator@D@2@@std@@@std@@@2@$0A@@std@@@std@@IAE?AV?$_Tree_iterator@V?$_Tree_val@U?$_Tree_simple_types@U?$pair@$$CBHV?$basic_string@DU?$char_traits@D@std@@V?$allocator@D@2@@std@@@std@@@std@@@std@@@1@V?$_Tree_const_iterator@V?$_Tree_val@U?$_Tree_simple_types@U?$pair@$$CBHV?$basic_string@DU?$char_traits@D@std@@V?$allocator@D@2@@std@@@std@@@std@@@std@@@1@AAU?$pair@$$CBHV?$basic_string@DU?$char_traits@D@std@@V?$allocator@D@2@@std@@@1@PAU?$_Tree_node@U?$pair@$$CBHV?$basic_string@DU?$char_traits@D@std@@V?$allocator@D@2@@std@@@std@@PAX@1@@Z 1001e870 f i libprotobuf:descriptor.obj
 0001:0001daa0       ??$_Insert_nohint@AAU?$pair@$$CBHV?$basic_string@DU?$char_traits@D@std@@V?$allocator@D@2@@std@@@std@@PAU?$_Tree_node@U?$pair@$$CBHV?$basic_string@DU?$char_traits@D@std@@V?$allocator@D@2@@std@@@std@@PAX@2@@?$_Tree@V?$_Tmap_traits@HV?$basic_string@DU?$char_traits@D@std@@V?$allocator@D@2@@std@@U?$less@H@2@V?$allocator@U?$pair@$$CBHV?$basic_string@DU?$char_traits@D@std@@V?$allocator@D@2@@std@@@std@@@2@$0A@@std@@@std@@IAE?AU?$pair@V?$_Tree_iterator@V?$_Tree_val@U?$_Tree_simple_types@U?$pair@$$CBHV?$basic_string@DU?$char_traits@D@std@@V?$allocator@D@2@@std@@@std@@@std@@@std@@@std@@_N@1@_NAAU?$pair@$$CBHV?$basic_string@DU?$char_traits@D@std@@V?$allocator@D@2@@std@@@1@PAU?$_Tree_node@U?$pair@$$CBHV?$basic_string@DU?$char_traits@D@std@@V?$allocator@D@2@@std@@@std@@PAX@1@@Z 1001eaa0 f i libprotobuf:descriptor.obj
 0001:0001dbc0       ??$_Insert_nohint@ABU?$pair@$$CBU?$pair@PBVEnumDescriptor@protobuf@google@@H@std@@PBVEnumValueDescriptor@protobuf@google@@@std@@U_Nil@2@@?$_Tree@V?$_Tmap_traits@U?$pair@PBVEnumDescriptor@protobuf@google@@H@std@@PBVEnumValueDescriptor@protobuf@google@@U?$PointerIntegerPairHash@U?$pair@PBVEnumDescriptor@protobuf@google@@H@std@@@?A0x0ecadf1d@45@V?$allocator@U?$pair@$$CBU?$pair@PBVEnumDescriptor@protobuf@google@@H@std@@PBVEnumValueDescriptor@protobuf@google@@@std@@@2@$0A@@std@@@std@@IAE?AU?$pair@V?$_Tree_iterator@V?$_Tree_val@U?$_Tree_simple_types@U?$pair@$$CBU?$pair@PBVEnumDescriptor@protobuf@google@@H@std@@PBVEnumValueDescriptor@protobuf@google@@@std@@@std@@@std@@@std@@_N@1@_NABU?$pair@$$CBU?$pair@PBVEnumDescriptor@protobuf@google@@H@std@@PBVEnumValueDescriptor@protobuf@google@@@1@U_Nil@1@@Z 1001ebc0 f i libprotobuf:descriptor.obj
 0001:0001dbc0       ??$_Insert_nohint@ABU?$pair@$$CBU?$pair@PBVDescriptor@protobuf@google@@H@std@@PBVFieldDescriptor@protobuf@google@@@std@@U_Nil@2@@?$_Tree@V?$_Tmap_traits@U?$pair@PBVDescriptor@protobuf@google@@H@std@@PBVFieldDescriptor@protobuf@google@@U?$PointerIntegerPairHash@U?$pair@PBVDescriptor@protobuf@google@@H@std@@@?A0x0ecadf1d@45@V?$allocator@U?$pair@$$CBU?$pair@PBVDescriptor@protobuf@google@@H@std@@PBVFieldDescriptor@protobuf@google@@@std@@@2@$0A@@std@@@std@@IAE?AU?$pair@V?$_Tree_iterator@V?$_Tree_val@U?$_Tree_simple_types@U?$pair@$$CBU?$pair@PBVDescriptor@protobuf@google@@H@std@@PBVFieldDescriptor@protobuf@google@@@std@@@std@@@std@@@std@@_N@1@_NABU?$pair@$$CBU?$pair@PBVDescriptor@protobuf@google@@H@std@@PBVFieldDescriptor@protobuf@google@@@1@U_Nil@1@@Z 1001ebc0 f i libprotobuf:descriptor.obj
 0001:0001dd00       ??$_Insert_nohint@ABU?$pair@$$CBU?$pair@PBVDescriptor@protobuf@google@@H@std@@PBVFieldDescriptor@protobuf@google@@@std@@U_Nil@2@@?$_Tree@V?$_Tmap_traits@U?$pair@PBVDescriptor@protobuf@google@@H@std@@PBVFieldDescriptor@protobuf@google@@U?$less@U?$pair@PBVDescriptor@protobuf@google@@H@std@@@2@V?$allocator@U?$pair@$$CBU?$pair@PBVDescriptor@protobuf@google@@H@std@@PBVFieldDescriptor@protobuf@google@@@std@@@2@$0A@@std@@@std@@IAE?AU?$pair@V?$_Tree_iterator@V?$_Tree_val@U?$_Tree_simple_types@U?$pair@$$CBU?$pair@PBVDescriptor@protobuf@google@@H@std@@PBVFieldDescriptor@protobuf@google@@@std@@@std@@@std@@@std@@_N@1@_NABU?$pair@$$CBU?$pair@PBVDescriptor@protobuf@google@@H@std@@PBVFieldDescriptor@protobuf@google@@@1@U_Nil@1@@Z 1001ed00 f i libprotobuf:descriptor.obj
 0001:0001de40       ??$_Insert_nohint@ABU?$pair@$$CBU?$pair@PBXPBD@std@@PBVFieldDescriptor@protobuf@google@@@std@@U_Nil@2@@?$_Tree@V?$_Tmap_traits@U?$pair@PBXPBD@std@@PBVFieldDescriptor@protobuf@google@@UPointerStringPairHash@?A0x0ecadf1d@45@V?$allocator@U?$pair@$$CBU?$pair@PBXPBD@std@@PBVFieldDescriptor@protobuf@google@@@std@@@2@$0A@@std@@@std@@IAE?AU?$pair@V?$_Tree_iterator@V?$_Tree_val@U?$_Tree_simple_types@U?$pair@$$CBU?$pair@PBXPBD@std@@PBVFieldDescriptor@protobuf@google@@@std@@@std@@@std@@@std@@_N@1@_NABU?$pair@$$CBU?$pair@PBXPBD@std@@PBVFieldDescriptor@protobuf@google@@@1@U_Nil@1@@Z 1001ee40 f i libprotobuf:descriptor.obj
 0001:0001e010       ??$_Insert_nohint@ABU?$pair@$$CBU?$pair@PBXPBD@std@@USymbol@?A0x0ecadf1d@protobuf@google@@@std@@U_Nil@2@@?$_Tree@V?$_Tmap_traits@U?$pair@PBXPBD@std@@USymbol@?A0x0ecadf1d@protobuf@google@@UPointerStringPairHash@456@V?$allocator@U?$pair@$$CBU?$pair@PBXPBD@std@@USymbol@?A0x0ecadf1d@protobuf@google@@@std@@@2@$0A@@std@@@std@@IAE?AU?$pair@V?$_Tree_iterator@V?$_Tree_val@U?$_Tree_simple_types@U?$pair@$$CBU?$pair@PBXPBD@std@@USymbol@?A0x0ecadf1d@protobuf@google@@@std@@@std@@@std@@@std@@_N@1@_NABU?$pair@$$CBU?$pair@PBXPBD@std@@USymbol@?A0x0ecadf1d@protobuf@google@@@1@U_Nil@1@@Z 1001f010 f i libprotobuf:descriptor.obj
 0001:0001e1e0       ??$_Insert_nohint@ABU?$pair@QBDPBVFileDescriptor@protobuf@google@@@std@@U_Nil@2@@?$_Tree@V?$_Tmap_traits@PBDPBVFileDescriptor@protobuf@google@@U?$hash@PBD@23@V?$allocator@U?$pair@QBDPBVFileDescriptor@protobuf@google@@@std@@@std@@$0A@@std@@@std@@IAE?AU?$pair@V?$_Tree_iterator@V?$_Tree_val@U?$_Tree_simple_types@U?$pair@QBDPBVFileDescriptor@protobuf@google@@@std@@@std@@@std@@@std@@_N@1@_NABU?$pair@QBDPBVFileDescriptor@protobuf@google@@@1@U_Nil@1@@Z 1001f1e0 f i libprotobuf:descriptor.obj
 0001:0001e1e0       ??$_Insert_nohint@ABU?$pair@QBDP6AXABV?$basic_string@DU?$char_traits@D@std@@V?$allocator@D@2@@std@@@Z@std@@U_Nil@2@@?$_Tree@V?$_Tmap_traits@PBDP6AXABV?$basic_string@DU?$char_traits@D@std@@V?$allocator@D@2@@std@@@ZU?$hash@PBD@protobuf@google@@V?$allocator@U?$pair@QBDP6AXABV?$basic_string@DU?$char_traits@D@std@@V?$allocator@D@2@@std@@@Z@std@@@2@$0A@@std@@@std@@IAE?AU?$pair@V?$_Tree_iterator@V?$_Tree_val@U?$_Tree_simple_types@U?$pair@QBDP6AXABV?$basic_string@DU?$char_traits@D@std@@V?$allocator@D@2@@std@@@Z@std@@@std@@@std@@@std@@_N@1@_NABU?$pair@QBDP6AXABV?$basic_string@DU?$char_traits@D@std@@V?$allocator@D@2@@std@@@Z@1@U_Nil@1@@Z 1001f1e0 f i libprotobuf:message.obj
 0001:0001e370       ??$_Insert_nohint@ABU?$pair@QBDUSymbol@?A0x0ecadf1d@protobuf@google@@@std@@U_Nil@2@@?$_Tree@V?$_Tmap_traits@PBDUSymbol@?A0x0ecadf1d@protobuf@google@@U?$hash@PBD@34@V?$allocator@U?$pair@QBDUSymbol@?A0x0ecadf1d@protobuf@google@@@std@@@std@@$0A@@std@@@std@@IAE?AU?$pair@V?$_Tree_iterator@V?$_Tree_val@U?$_Tree_simple_types@U?$pair@QBDUSymbol@?A0x0ecadf1d@protobuf@google@@@std@@@std@@@std@@@std@@_N@1@_NABU?$pair@QBDUSymbol@?A0x0ecadf1d@protobuf@google@@@1@U_Nil@1@@Z 1001f370 f i libprotobuf:descriptor.obj
 0001:0001e500       ??$_Insert_nohint@ABV?$basic_string@DU?$char_traits@D@std@@V?$allocator@D@2@@std@@U_Nil@2@@?$_Tree@V?$_Tset_traits@V?$basic_string@DU?$char_traits@D@std@@V?$allocator@D@2@@std@@U?$hash@V?$basic_string@DU?$char_traits@D@std@@V?$allocator@D@2@@std@@@protobuf@google@@V?$allocator@V?$basic_string@DU?$char_traits@D@std@@V?$allocator@D@2@@std@@@2@$0A@@std@@@std@@IAE?AU?$pair@V?$_Tree_const_iterator@V?$_Tree_val@U?$_Tree_simple_types@V?$basic_string@DU?$char_traits@D@std@@V?$allocator@D@2@@std@@@std@@@std@@@std@@_N@1@_NABV?$basic_string@DU?$char_traits@D@std@@V?$allocator@D@2@@1@U_Nil@1@@Z 1001f500 f i libprotobuf:descriptor.obj
 0001:0001e500       ??$_Insert_nohint@ABV?$basic_string@DU?$char_traits@D@std@@V?$allocator@D@2@@std@@U_Nil@2@@?$_Tree@V?$_Tset_traits@V?$basic_string@DU?$char_traits@D@std@@V?$allocator@D@2@@std@@U?$less@V?$basic_string@DU?$char_traits@D@std@@V?$allocator@D@2@@std@@@2@V?$allocator@V?$basic_string@DU?$char_traits@D@std@@V?$allocator@D@2@@std@@@2@$0A@@std@@@std@@IAE?AU?$pair@V?$_Tree_const_iterator@V?$_Tree_val@U?$_Tree_simple_types@V?$basic_string@DU?$char_traits@D@std@@V?$allocator@D@2@@std@@@std@@@std@@@std@@_N@1@_NABV?$basic_string@DU?$char_traits@D@std@@V?$allocator@D@2@@1@U_Nil@1@@Z 1001f500 f i libprotobuf:descriptor.obj
 0001:0001e770       ??$_Insert_nohint@ABQBVFileDescriptor@protobuf@google@@U_Nil@std@@@?$_Tree@V?$_Tset_traits@PBVFileDescriptor@protobuf@google@@U?$less@PBVFileDescriptor@protobuf@google@@@std@@V?$allocator@PBVFileDescriptor@protobuf@google@@@5@$0A@@std@@@std@@IAE?AU?$pair@V?$_Tree_const_iterator@V?$_Tree_val@U?$_Tree_simple_types@PBVFileDescriptor@protobuf@google@@@std@@@std@@@std@@_N@1@_NABQBVFileDescriptor@protobuf@google@@U_Nil@1@@Z 1001f770 f i libprotobuf:descriptor.obj
 0001:0001e770       ??$_Insert_nohint@PBVDescriptor@protobuf@google@@U_Nil@std@@@?$_Tree@V?$_Tset_traits@PBVDescriptor@protobuf@google@@U?$less@PBVDescriptor@protobuf@google@@@std@@V?$allocator@PBVDescriptor@protobuf@google@@@5@$0A@@std@@@std@@IAE?AU?$pair@V?$_Tree_const_iterator@V?$_Tree_val@U?$_Tree_simple_types@PBVDescriptor@protobuf@google@@@std@@@std@@@std@@_N@1@_N$$QAPBVDescriptor@protobuf@google@@U_Nil@1@@Z 1001f770 f i libprotobuf:descriptor.obj
 0001:0001e880       ??$_Insert_nohint@V?$basic_string@DU?$char_traits@D@std@@V?$allocator@D@2@@std@@U_Nil@2@@?$_Tree@V?$_Tset_traits@V?$basic_string@DU?$char_traits@D@std@@V?$allocator@D@2@@std@@U?$less@V?$basic_string@DU?$char_traits@D@std@@V?$allocator@D@2@@std@@@2@V?$allocator@V?$basic_string@DU?$char_traits@D@std@@V?$allocator@D@2@@std@@@2@$0A@@std@@@std@@IAE?AU?$pair@V?$_Tree_const_iterator@V?$_Tree_val@U?$_Tree_simple_types@V?$basic_string@DU?$char_traits@D@std@@V?$allocator@D@2@@std@@@std@@@std@@@std@@_N@1@_N$$QAV?$basic_string@DU?$char_traits@D@std@@V?$allocator@D@2@@1@U_Nil@1@@Z 1001f880 f i libprotobuf:descriptor.obj
 0001:0001eaf0       ??$_Lbound@PBD@?$_Tree@V?$_Tmap_traits@PBDP6AXABV?$basic_string@DU?$char_traits@D@std@@V?$allocator@D@2@@std@@@ZU?$hash@PBD@protobuf@google@@V?$allocator@U?$pair@QBDP6AXABV?$basic_string@DU?$char_traits@D@std@@V?$allocator@D@2@@std@@@Z@std@@@2@$0A@@std@@@std@@IBEPAU?$_Tree_node@U?$pair@QBDP6AXABV?$basic_string@DU?$char_traits@D@std@@V?$allocator@D@2@@std@@@Z@std@@PAX@1@ABQBD@Z 1001faf0 f i libprotobuf:message.obj
 0001:0001eaf0       ??$_Lbound@PBD@?$_Tree@V?$_Tmap_traits@PBDUSymbol@?A0x0ecadf1d@protobuf@google@@U?$hash@PBD@34@V?$allocator@U?$pair@QBDUSymbol@?A0x0ecadf1d@protobuf@google@@@std@@@std@@$0A@@std@@@std@@IBEPAU?$_Tree_node@U?$pair@QBDUSymbol@?A0x0ecadf1d@protobuf@google@@@std@@PAX@1@ABQBD@Z 1001faf0 f i libprotobuf:descriptor.obj
 0001:0001eaf0       ??$_Lbound@PBD@?$_Tree@V?$_Tmap_traits@PBDPBVFileDescriptor@protobuf@google@@U?$hash@PBD@23@V?$allocator@U?$pair@QBDPBVFileDescriptor@protobuf@google@@@std@@@std@@$0A@@std@@@std@@IBEPAU?$_Tree_node@U?$pair@QBDPBVFileDescriptor@protobuf@google@@@std@@PAX@1@ABQBD@Z 1001faf0 f i libprotobuf:descriptor.obj
 0001:0001eb60       ??$_Lbound@U?$pair@PBVDescriptor@protobuf@google@@H@std@@@?$_Tree@V?$_Tmap_traits@U?$pair@PBVDescriptor@protobuf@google@@H@std@@PBVFieldDescriptor@protobuf@google@@U?$less@U?$pair@PBVDescriptor@protobuf@google@@H@std@@@2@V?$allocator@U?$pair@$$CBU?$pair@PBVDescriptor@protobuf@google@@H@std@@PBVFieldDescriptor@protobuf@google@@@std@@@2@$0A@@std@@@std@@IBEPAU?$_Tree_node@U?$pair@$$CBU?$pair@PBVDescriptor@protobuf@google@@H@std@@PBVFieldDescriptor@protobuf@google@@@std@@PAX@1@ABU?$pair@PBVDescriptor@protobuf@google@@H@1@@Z 1001fb60 f i libprotobuf:descriptor.obj
 0001:0001eb60       ??$_Lbound@U?$pair@PBVMessageLite@protobuf@google@@H@std@@@?$_Tree@V?$_Tmap_traits@U?$pair@PBVMessageLite@protobuf@google@@H@std@@UExtensionInfo@internal@protobuf@google@@U?$hash@U?$pair@PBVMessageLite@protobuf@google@@H@std@@@56@V?$allocator@U?$pair@$$CBU?$pair@PBVMessageLite@protobuf@google@@H@std@@UExtensionInfo@internal@protobuf@google@@@std@@@2@$0A@@std@@@std@@IBEPAU?$_Tree_node@U?$pair@$$CBU?$pair@PBVMessageLite@protobuf@google@@H@std@@UExtensionInfo@internal@protobuf@google@@@std@@PAX@1@ABU?$pair@PBVMessageLite@protobuf@google@@H@1@@Z 1001fb60 f i libprotobuf:extension_set.obj
 0001:0001eba0       ??$_Lbound@U?$pair@PBXPBD@std@@@?$_Tree@V?$_Tmap_traits@U?$pair@PBXPBD@std@@PBVFieldDescriptor@protobuf@google@@UPointerStringPairHash@?A0x0ecadf1d@45@V?$allocator@U?$pair@$$CBU?$pair@PBXPBD@std@@PBVFieldDescriptor@protobuf@google@@@std@@@2@$0A@@std@@@std@@IBEPAU?$_Tree_node@U?$pair@$$CBU?$pair@PBXPBD@std@@PBVFieldDescriptor@protobuf@google@@@std@@PAX@1@ABU?$pair@PBXPBD@1@@Z 1001fba0 f i libprotobuf:descriptor.obj
 0001:0001eba0       ??$_Lbound@U?$pair@PBXPBD@std@@@?$_Tree@V?$_Tmap_traits@U?$pair@PBXPBD@std@@USymbol@?A0x0ecadf1d@protobuf@google@@UPointerStringPairHash@456@V?$allocator@U?$pair@$$CBU?$pair@PBXPBD@std@@USymbol@?A0x0ecadf1d@protobuf@google@@@std@@@2@$0A@@std@@@std@@IBEPAU?$_Tree_node@U?$pair@$$CBU?$pair@PBXPBD@std@@USymbol@?A0x0ecadf1d@protobuf@google@@@std@@PAX@1@ABU?$pair@PBXPBD@1@@Z 1001fba0 f i libprotobuf:descriptor.obj
 0001:0001ec10       ??$_Uninit_def_fill_n@PAU?$pair@PBVDescriptor@protobuf@google@@H@std@@IV?$allocator@U?$pair@PBVDescriptor@protobuf@google@@H@std@@@2@U12@@std@@YAXPAU?$pair@PBVDescriptor@protobuf@google@@H@0@IAAU?$_Wrap_alloc@V?$allocator@U?$pair@PBVDescriptor@protobuf@google@@H@std@@@std@@@0@0U_Nonscalar_ptr_iterator_tag@0@@Z 1001fc10 f i libprotobuf:descriptor.obj
 0001:0001ec40       ??$_Uninit_move@PAUParseLocation@TextFormat@protobuf@google@@PAU1234@V?$allocator@UParseLocation@TextFormat@protobuf@google@@@std@@U1234@@std@@YAPAUParseLocation@TextFormat@protobuf@google@@PAU1234@00AAU?$_Wrap_alloc@V?$allocator@UParseLocation@TextFormat@protobuf@google@@@std@@@0@0U_Nonscalar_ptr_iterator_tag@0@@Z 1001fc40 f i libprotobuf:text_format.obj
 0001:0001ec40       ??$_Uninit_move@PAU?$pair@PBVDescriptor@protobuf@google@@H@std@@PAU12@V?$allocator@U?$pair@PBVDescriptor@protobuf@google@@H@std@@@2@U12@@std@@YAPAU?$pair@PBVDescriptor@protobuf@google@@H@0@PAU10@00AAU?$_Wrap_alloc@V?$allocator@U?$pair@PBVDescriptor@protobuf@google@@H@std@@@std@@@0@0U_Nonscalar_ptr_iterator_tag@0@@Z 1001fc40 f i libprotobuf:descriptor.obj
 0001:0001ec80       ??$_Uninit_move@PAUCheckPoint@Tables@DescriptorPool@protobuf@google@@PAU12345@V?$allocator@UCheckPoint@Tables@DescriptorPool@protobuf@google@@@std@@U12345@@std@@YAPAUCheckPoint@Tables@DescriptorPool@protobuf@google@@PAU12345@00AAU?$_Wrap_alloc@V?$allocator@UCheckPoint@Tables@DescriptorPool@protobuf@google@@@std@@@0@0U_Nonscalar_ptr_iterator_tag@0@@Z 1001fc80 f i libprotobuf:descriptor.obj
 0001:0001ecc0       ??$_Uninit_move@PAUOptionsToInterpret@?A0x0ecadf1d@protobuf@google@@PAU1234@V?$allocator@UOptionsToInterpret@?A0x0ecadf1d@protobuf@google@@@std@@U1234@@std@@YAPAUOptionsToInterpret@?A0x0ecadf1d@protobuf@google@@PAU1234@00AAU?$_Wrap_alloc@V?$allocator@UOptionsToInterpret@?A0x0ecadf1d@protobuf@google@@@std@@@0@0U_Nonscalar_ptr_iterator_tag@0@@Z 1001fcc0 f i libprotobuf:descriptor.obj
 0001:0001ee00       ??$construct@UOptionsToInterpret@?A0x0ecadf1d@protobuf@google@@U1234@@?$_Wrap_alloc@V?$allocator@UOptionsToInterpret@?A0x0ecadf1d@protobuf@google@@@std@@@std@@QAEXPAUOptionsToInterpret@?A0x0ecadf1d@protobuf@google@@$$QAU2345@@Z 1001fe00 f i libprotobuf:descriptor.obj
 0001:0001ee60       ??0DescriptorBuilder@protobuf@google@@QAE@PBVDescriptorPool@12@PAVTables@312@PAVErrorCollector@312@@Z 1001fe60 f   libprotobuf:descriptor.obj
 0001:0001ef80       ??0DescriptorPool@protobuf@google@@QAE@PAVDescriptorDatabase@12@PAVErrorCollector@012@@Z 1001ff80 f   libprotobuf:descriptor.obj
 0001:0001f060       ??0DescriptorPool@protobuf@google@@QAE@XZ 10020060 f   libprotobuf:descriptor.obj
 0001:0001f110       ??0FileDescriptorTables@protobuf@google@@QAE@XZ 10020110 f   libprotobuf:descriptor.obj
 0001:0001f210       ??0OptionInterpreter@DescriptorBuilder@protobuf@google@@QAE@PAV123@@Z 10020210 f   libprotobuf:descriptor.obj
 0001:0001f370       ??0SubstituteArg@internal@strings@protobuf@google@@QAE@ABV?$basic_string@DU?$char_traits@D@std@@V?$allocator@D@2@@std@@@Z 10020370 f i libprotobuf:descriptor.obj
 0001:0001f3a0       ??0SubstituteArg@internal@strings@protobuf@google@@QAE@H@Z 100203a0 f i libprotobuf:descriptor.obj
 0001:0001f3e0       ??0Tables@DescriptorPool@protobuf@google@@QAE@XZ 100203e0 f   libprotobuf:descriptor.obj
 0001:0001f5c0       ??1?$hash_set@V?$basic_string@DU?$char_traits@D@std@@V?$allocator@D@2@@std@@U?$hash@V?$basic_string@DU?$char_traits@D@std@@V?$allocator@D@2@@std@@@protobuf@google@@H@protobuf@google@@QAE@XZ 100205c0 f i libprotobuf:descriptor.obj
 0001:0001f620       ??1?$map@HV?$basic_string@DU?$char_traits@D@std@@V?$allocator@D@2@@std@@U?$less@H@2@V?$allocator@U?$pair@$$CBHV?$basic_string@DU?$char_traits@D@std@@V?$allocator@D@2@@std@@@std@@@2@@std@@QAE@XZ 10020620 f i libprotobuf:descriptor.obj
 0001:0001f680       ??1?$scoped_ptr@$$CBVFieldValuePrinter@TextFormat@protobuf@google@@@internal@protobuf@google@@QAE@XZ 10020680 f i libprotobuf:text_format.obj
 0001:0001f680       ??1?$scoped_ptr@VMessage@protobuf@google@@@internal@protobuf@google@@QAE@XZ 10020680 f i libprotobuf:descriptor.obj
 0001:0001f690       ??1?$scoped_ptr@VTables@DescriptorPool@protobuf@google@@@internal@protobuf@google@@QAE@XZ 10020690 f i libprotobuf:descriptor.obj
 0001:0001f6b0       ??1?$scoped_ptr@VUnknownFieldSet@protobuf@google@@@internal@protobuf@google@@QAE@XZ 100206b0 f i libprotobuf:descriptor.obj
 0001:0001f6d0       ??1?$set@V?$basic_string@DU?$char_traits@D@std@@V?$allocator@D@2@@std@@U?$less@V?$basic_string@DU?$char_traits@D@std@@V?$allocator@D@2@@std@@@2@V?$allocator@V?$basic_string@DU?$char_traits@D@std@@V?$allocator@D@2@@std@@@2@@std@@QAE@XZ 100206d0 f i libprotobuf:descriptor.obj
 0001:0001f730       ??1?$vector@PAVMessage@protobuf@google@@V?$allocator@PAVMessage@protobuf@google@@@std@@@std@@QAE@XZ 10020730 f i libprotobuf:descriptor.obj
 0001:0001f730       ??1?$vector@PBVFieldDescriptor@protobuf@google@@V?$allocator@PBVFieldDescriptor@protobuf@google@@@std@@@std@@QAE@XZ 10020730 f i libprotobuf:descriptor.obj
 0001:0001f730       ??1?$vector@PAXV?$allocator@PAX@std@@@std@@QAE@XZ 10020730 f i libprotobuf:descriptor.obj
 0001:0001f730       ??1?$vector@PAV?$basic_string@DU?$char_traits@D@std@@V?$allocator@D@2@@std@@V?$allocator@PAV?$basic_string@DU?$char_traits@D@std@@V?$allocator@D@2@@std@@@2@@std@@QAE@XZ 10020730 f i libprotobuf:descriptor.obj
 0001:0001f730       ??1?$vector@PAVFileDescriptorTables@protobuf@google@@V?$allocator@PAVFileDescriptorTables@protobuf@google@@@std@@@std@@QAE@XZ 10020730 f i libprotobuf:descriptor.obj
 0001:0001f760       ??1?$vector@UOptionsToInterpret@?A0x0ecadf1d@protobuf@google@@V?$allocator@UOptionsToInterpret@?A0x0ecadf1d@protobuf@google@@@std@@@std@@QAE@XZ 10020760 f i libprotobuf:descriptor.obj
 0001:0001f800       ??1AggregateOptionFinder@OptionInterpreter@DescriptorBuilder@protobuf@google@@UAE@XZ 10020800 f i libprotobuf:descriptor.obj
 0001:0001f810       ??1DescriptorBuilder@protobuf@google@@QAE@XZ 10020810 f   libprotobuf:descriptor.obj
 0001:0001f940       ??1DescriptorPool@protobuf@google@@QAE@XZ 10020940 f   libprotobuf:descriptor.obj
 0001:0001f9d0       ??1FileDescriptorTables@protobuf@google@@QAE@XZ 100209d0 f   libprotobuf:descriptor.obj
 0001:0001fac0       ??1MutexLockMaybe@internal@protobuf@google@@QAE@XZ 10020ac0 f i libprotobuf:descriptor.obj
 0001:0001fb00       ??1OptionInterpreter@DescriptorBuilder@protobuf@google@@QAE@XZ 10020b00 f   libprotobuf:descriptor.obj
 0001:0001fb80       ??1Tables@DescriptorPool@protobuf@google@@QAE@XZ 10020b80 f   libprotobuf:descriptor.obj
 0001:00020000       ??A?$map@HV?$basic_string@DU?$char_traits@D@std@@V?$allocator@D@2@@std@@U?$less@H@2@V?$allocator@U?$pair@$$CBHV?$basic_string@DU?$char_traits@D@std@@V?$allocator@D@2@@std@@@std@@@2@@std@@QAEAAV?$basic_string@DU?$char_traits@D@std@@V?$allocator@D@2@@1@$$QAH@Z 10021000 f i libprotobuf:descriptor.obj
 0001:00020100       ??_GAggregateErrorCollector@?A0x0ecadf1d@protobuf@google@@UAEPAXI@Z 10021100 f i libprotobuf:descriptor.obj
 0001:00020100       ??_EAggregateErrorCollector@?A0x0ecadf1d@protobuf@google@@UAEPAXI@Z 10021100 f i libprotobuf:descriptor.obj
 0001:00020160       ??_GAggregateOptionFinder@OptionInterpreter@DescriptorBuilder@protobuf@google@@UAEPAXI@Z 10021160 f i libprotobuf:descriptor.obj
 0001:00020160       ??_EAggregateOptionFinder@OptionInterpreter@DescriptorBuilder@protobuf@google@@UAEPAXI@Z 10021160 f i libprotobuf:descriptor.obj
 0001:00020190       ??_GErrorCollector@io@protobuf@google@@UAEPAXI@Z 10021190 f i libprotobuf:descriptor.obj
 0001:00020190       ??_EErrorCollector@io@protobuf@google@@UAEPAXI@Z 10021190 f i libprotobuf:descriptor.obj
 0001:000201c0       ??_GFinder@TextFormat@protobuf@google@@UAEPAXI@Z 100211c0 f i libprotobuf:descriptor.obj
 0001:000201c0       ??_EFinder@TextFormat@protobuf@google@@UAEPAXI@Z 100211c0 f i libprotobuf:descriptor.obj
 0001:00020220       ?AddError@DescriptorBuilder@protobuf@google@@AAEXABV?$basic_string@DU?$char_traits@D@std@@V?$allocator@D@2@@std@@ABVMessage@23@W4ErrorLocation@ErrorCollector@DescriptorPool@23@0@Z 10021220 f   libprotobuf:descriptor.obj
 0001:00020350       ?AddError@DescriptorBuilder@protobuf@google@@AAEXABV?$basic_string@DU?$char_traits@D@std@@V?$allocator@D@2@@std@@ABVMessage@23@W4ErrorLocation@ErrorCollector@DescriptorPool@23@PBD@Z 10021350 f   libprotobuf:descriptor.obj
 0001:00020410       ?AddExtension@Tables@DescriptorPool@protobuf@google@@QAE_NPBVFieldDescriptor@34@@Z 10021410 f   libprotobuf:descriptor.obj
 0001:00020470       ?AddFieldByStylizedNames@FileDescriptorTables@protobuf@google@@QAEXPBVFieldDescriptor@23@@Z 10021470 f   libprotobuf:descriptor.obj
 0001:000204f0       ?AddFile@Tables@DescriptorPool@protobuf@google@@QAE_NPBVFileDescriptor@34@@Z 100214f0 f   libprotobuf:descriptor.obj
 0001:00020560       ?AddImportError@DescriptorBuilder@protobuf@google@@AAEXABVFileDescriptorProto@23@H@Z 10021560 f   libprotobuf:descriptor.obj
 0001:000206d0       ?AddLengthDelimited@UnknownFieldSet@protobuf@google@@QAEXHABV?$basic_string@DU?$char_traits@D@std@@V?$allocator@D@2@@std@@@Z 100216d0 f i libprotobuf:descriptor.obj
 0001:000206f0       ?AddNameError@OptionInterpreter@DescriptorBuilder@protobuf@google@@AAE_NABV?$basic_string@DU?$char_traits@D@std@@V?$allocator@D@2@@std@@@Z 100216f0 f i libprotobuf:descriptor.obj
 0001:00020710       ?AddNotDefinedError@DescriptorBuilder@protobuf@google@@AAEXABV?$basic_string@DU?$char_traits@D@std@@V?$allocator@D@2@@std@@ABVMessage@23@W4ErrorLocation@ErrorCollector@DescriptorPool@23@0@Z 10021710 f   libprotobuf:descriptor.obj
 0001:00020b80       ?AddPackage@DescriptorBuilder@protobuf@google@@AAEXABV?$basic_string@DU?$char_traits@D@std@@V?$allocator@D@2@@std@@ABVMessage@23@PBVFileDescriptor@23@@Z 10021b80 f   libprotobuf:descriptor.obj
 0001:00020df0       ?AddRecursiveImportError@DescriptorBuilder@protobuf@google@@AAEXABVFileDescriptorProto@23@H@Z 10021df0 f   libprotobuf:descriptor.obj
 0001:00020f50       ?AddSymbol@DescriptorBuilder@protobuf@google@@AAE_NABV?$basic_string@DU?$char_traits@D@std@@V?$allocator@D@2@@std@@PBX0ABVMessage@23@USymbol@?A0x0ecadf1d@23@@Z 10021f50 f   libprotobuf:descriptor.obj
 0001:000212e0       ?AddSymbol@Tables@DescriptorPool@protobuf@google@@QAE_NABV?$basic_string@DU?$char_traits@D@std@@V?$allocator@D@2@@std@@USymbol@?A0x0ecadf1d@34@@Z 100222e0 f   libprotobuf:descriptor.obj
 0001:00021350       ?AddTwiceListedError@DescriptorBuilder@protobuf@google@@AAEXABVFileDescriptorProto@23@H@Z 10022350 f   libprotobuf:descriptor.obj
 0001:00021430       ?AddValueError@OptionInterpreter@DescriptorBuilder@protobuf@google@@AAE_NABV?$basic_string@DU?$char_traits@D@std@@V?$allocator@D@2@@std@@@Z 10022430 f i libprotobuf:descriptor.obj
 0001:00021450       ?AddWarning@ErrorCollector@io@protobuf@google@@UAEXHHABV?$basic_string@DU?$char_traits@D@std@@V?$allocator@D@2@@std@@@Z 10022450 f   libprotobuf:descriptor.obj
 0001:00021460       ?AddWarning@DescriptorBuilder@protobuf@google@@AAEXABV?$basic_string@DU?$char_traits@D@std@@V?$allocator@D@2@@std@@ABVMessage@23@W4ErrorLocation@ErrorCollector@DescriptorPool@23@0@Z 10022460 f   libprotobuf:descriptor.obj
 0001:00021530       ?AddWithoutInterpreting@OptionInterpreter@DescriptorBuilder@protobuf@google@@AAEXABVUninterpretedOption@34@PAVMessage@34@@Z 10022530 f   libprotobuf:descriptor.obj
 0001:00021690       ?AllocateOptions@DescriptorBuilder@protobuf@google@@AAEXABVFileOptions@23@PAVFileDescriptor@23@@Z 10022690 f   libprotobuf:descriptor.obj
 0001:00021720       ?AllocateString@Tables@DescriptorPool@protobuf@google@@QAEPAV?$basic_string@DU?$char_traits@D@std@@V?$allocator@D@2@@std@@ABV56@@Z 10022720 f   libprotobuf:descriptor.obj
 0001:000217d0       ?BuildEnum@DescriptorBuilder@protobuf@google@@AAEXABVEnumDescriptorProto@23@PBVDescriptor@23@PAVEnumDescriptor@23@@Z 100227d0 f   libprotobuf:descriptor.obj
 0001:00021940       ?BuildEnumValue@DescriptorBuilder@protobuf@google@@AAEXABVEnumValueDescriptorProto@23@PBVEnumDescriptor@23@PAVEnumValueDescriptor@23@@Z 10022940 f   libprotobuf:descriptor.obj
 0001:00021d50       ?BuildFieldOrExtension@DescriptorBuilder@protobuf@google@@AAEXABVFieldDescriptorProto@23@PBVDescriptor@23@PAVFieldDescriptor@23@_N@Z 10022d50 f   libprotobuf:descriptor.obj
 0001:000228a0       ?BuildFile@DescriptorBuilder@protobuf@google@@QAEPBVFileDescriptor@23@ABVFileDescriptorProto@23@@Z 100238a0 f   libprotobuf:descriptor.obj
 0001:00023590       ?BuildFile@DescriptorPool@protobuf@google@@QAEPBVFileDescriptor@23@ABVFileDescriptorProto@23@@Z 10024590 f   libprotobuf:descriptor.obj
 0001:00023740       ?BuildFileFromDatabase@DescriptorPool@protobuf@google@@ABEPBVFileDescriptor@23@ABVFileDescriptorProto@23@@Z 10024740 f   libprotobuf:descriptor.obj
 0001:00023840       ?BuildMessage@DescriptorBuilder@protobuf@google@@AAEXABVDescriptorProto@23@PBVDescriptor@23@PAV523@@Z 10024840 f   libprotobuf:descriptor.obj
 0001:00024460       ?BuildMethod@DescriptorBuilder@protobuf@google@@AAEXABVMethodDescriptorProto@23@PBVServiceDescriptor@23@PAVMethodDescriptor@23@@Z 10025460 f   libprotobuf:descriptor.obj
 0001:00024520       ?BuildService@DescriptorBuilder@protobuf@google@@AAEXABVServiceDescriptorProto@23@PBXPAVServiceDescriptor@23@@Z 10025520 f   libprotobuf:descriptor.obj
 0001:00024660       ?CopyTo@Descriptor@protobuf@google@@QBEXPAVDescriptorProto@23@@Z 10025660 f   libprotobuf:descriptor.obj
 0001:00024b20       ?CopyTo@EnumDescriptor@protobuf@google@@QBEXPAVEnumDescriptorProto@23@@Z 10025b20 f   libprotobuf:descriptor.obj
 0001:00024cb0       ?CopyTo@EnumValueDescriptor@protobuf@google@@QBEXPAVEnumValueDescriptorProto@23@@Z 10025cb0 f   libprotobuf:descriptor.obj
 0001:00024da0       ?CopyTo@FieldDescriptor@protobuf@google@@QBEXPAVFieldDescriptorProto@23@@Z 10025da0 f   libprotobuf:descriptor.obj
 0001:000250b0       ?CopyTo@FileDescriptor@protobuf@google@@QBEXPAVFileDescriptorProto@23@@Z 100260b0 f   libprotobuf:descriptor.obj
 0001:00025630       ?CopyTo@MethodDescriptor@protobuf@google@@QBEXPAVMethodDescriptorProto@23@@Z 10026630 f   libprotobuf:descriptor.obj
 0001:000257f0       ?CopyTo@ServiceDescriptor@protobuf@google@@QBEXPAVServiceDescriptorProto@23@@Z 100267f0 f   libprotobuf:descriptor.obj
 0001:00025980       ?CrossLinkField@DescriptorBuilder@protobuf@google@@AAEXPAVFieldDescriptor@23@ABVFieldDescriptorProto@23@@Z 10026980 f   libprotobuf:descriptor.obj
 0001:000263e0       ?CrossLinkFile@DescriptorBuilder@protobuf@google@@AAEXPAVFileDescriptor@23@ABVFileDescriptorProto@23@@Z 100273e0 f   libprotobuf:descriptor.obj
 0001:00026570       ?CrossLinkMessage@DescriptorBuilder@protobuf@google@@AAEXPAVDescriptor@23@ABVDescriptorProto@23@@Z 10027570 f   libprotobuf:descriptor.obj
 0001:00026a90       ?CrossLinkMethod@DescriptorBuilder@protobuf@google@@AAEXPAVMethodDescriptor@23@ABVMethodDescriptorProto@23@@Z 10027a90 f   libprotobuf:descriptor.obj
 0001:00026cb0       ?DebugString@Descriptor@protobuf@google@@ABEXHPAV?$basic_string@DU?$char_traits@D@std@@V?$allocator@D@2@@std@@@Z 10027cb0 f   libprotobuf:descriptor.obj
 0001:00027740       ?DebugString@EnumDescriptor@protobuf@google@@ABEXHPAV?$basic_string@DU?$char_traits@D@std@@V?$allocator@D@2@@std@@@Z 10028740 f   libprotobuf:descriptor.obj
 0001:00027a90       ?DebugString@EnumValueDescriptor@protobuf@google@@ABEXHPAV?$basic_string@DU?$char_traits@D@std@@V?$allocator@D@2@@std@@@Z 10028a90 f   libprotobuf:descriptor.obj
 0001:00027dd0       ?DebugString@FieldDescriptor@protobuf@google@@ABEXHW4PrintLabelFlag@123@PAV?$basic_string@DU?$char_traits@D@std@@V?$allocator@D@2@@std@@@Z 10028dd0 f   libprotobuf:descriptor.obj
 0001:00028380       ?DebugString@FieldDescriptor@protobuf@google@@QBE?AV?$basic_string@DU?$char_traits@D@std@@V?$allocator@D@2@@std@@XZ 10029380 f   libprotobuf:descriptor.obj
 0001:00028570       ?DebugString@OneofDescriptor@protobuf@google@@ABEXHPAV?$basic_string@DU?$char_traits@D@std@@V?$allocator@D@2@@std@@@Z 10029570 f   libprotobuf:descriptor.obj
 0001:000288a0       ?DefaultValueAsString@FieldDescriptor@protobuf@google@@ABE?AV?$basic_string@DU?$char_traits@D@std@@V?$allocator@D@2@@std@@_N@Z 100298a0 f   libprotobuf:descriptor.obj
 0001:00028b90       ?ExamineIfOptionIsSet@OptionInterpreter@DescriptorBuilder@protobuf@google@@AAE_NV?$_Vector_const_iterator@V?$_Vector_val@U?$_Simple_types@PBVFieldDescriptor@protobuf@google@@@std@@@std@@@std@@0PBVFieldDescriptor@34@ABV?$basic_string@DU?$char_traits@D@std@@V?$allocator@D@2@@6@ABVUnknownFieldSet@34@@Z 10029b90 f   libprotobuf:descriptor.obj
 0001:00028f20       ?FindByNameHelper@Tables@DescriptorPool@protobuf@google@@QAE?AUSymbol@?A0x0ecadf1d@34@PBV234@ABV?$basic_string@DU?$char_traits@D@std@@V?$allocator@D@2@@std@@@Z 10029f20 f   libprotobuf:descriptor.obj
 0001:00029050       ?FindEnumValueByNumber@FileDescriptorTables@protobuf@google@@QBEPBVEnumValueDescriptor@23@PBVEnumDescriptor@23@H@Z 1002a050 f i libprotobuf:descriptor.obj
 0001:000290c0       ?FindExtension@AggregateOptionFinder@OptionInterpreter@DescriptorBuilder@protobuf@google@@UBEPBVFieldDescriptor@45@PAVMessage@45@ABV?$basic_string@DU?$char_traits@D@std@@V?$allocator@D@2@@std@@@Z 1002a0c0 f i libprotobuf:descriptor.obj
 0001:00029160       ?FindExtension@Tables@DescriptorPool@protobuf@google@@QAEPBVFieldDescriptor@34@PBVDescriptor@34@H@Z 1002a160 f i libprotobuf:descriptor.obj
 0001:000291c0       ?FindExtensionByName@DescriptorPool@protobuf@google@@QBEPBVFieldDescriptor@23@ABV?$basic_string@DU?$char_traits@D@std@@V?$allocator@D@2@@std@@@Z 1002a1c0 f   libprotobuf:descriptor.obj
 0001:000291f0       ?FindExtensionByNumber@DescriptorPool@protobuf@google@@QBEPBVFieldDescriptor@23@PBVDescriptor@23@H@Z 1002a1f0 f   libprotobuf:descriptor.obj
 0001:00029350       ?FindExtensionRangeContainingNumber@Descriptor@protobuf@google@@QBEPBUExtensionRange@123@H@Z 1002a350 f   libprotobuf:descriptor.obj
 0001:00029390       ?FindFieldByLowercaseName@Descriptor@protobuf@google@@QBEPBVFieldDescriptor@23@ABV?$basic_string@DU?$char_traits@D@std@@V?$allocator@D@2@@std@@@Z 1002a390 f   libprotobuf:descriptor.obj
 0001:00029400       ?FindFieldByName@Descriptor@protobuf@google@@QBEPBVFieldDescriptor@23@ABV?$basic_string@DU?$char_traits@D@std@@V?$allocator@D@2@@std@@@Z 1002a400 f   libprotobuf:descriptor.obj
 0001:00029450       ?FindFieldByNumber@Descriptor@protobuf@google@@QBEPBVFieldDescriptor@23@H@Z 1002a450 f   libprotobuf:descriptor.obj
 0001:00029480       ?FindFieldByNumber@FileDescriptorTables@protobuf@google@@QBEPBVFieldDescriptor@23@PBVDescriptor@23@H@Z 1002a480 f i libprotobuf:descriptor.obj
 0001:000294f0       ?FindFile@Tables@DescriptorPool@protobuf@google@@QBEPBVFileDescriptor@34@ABV?$basic_string@DU?$char_traits@D@std@@V?$allocator@D@2@@std@@@Z 1002a4f0 f i libprotobuf:descriptor.obj
 0001:00029560       ?FindFileByName@DescriptorPool@protobuf@google@@QBEPBVFileDescriptor@23@ABV?$basic_string@DU?$char_traits@D@std@@V?$allocator@D@2@@std@@@Z 1002a560 f   libprotobuf:descriptor.obj
 0001:00029670       ?FindMessageTypeByName@DescriptorPool@protobuf@google@@QBEPBVDescriptor@23@ABV?$basic_string@DU?$char_traits@D@std@@V?$allocator@D@2@@std@@@Z 1002a670 f   libprotobuf:descriptor.obj
 0001:000296a0       ?FindNestedSymbol@FileDescriptorTables@protobuf@google@@QBE?AUSymbol@?A0x0ecadf1d@23@PBXABV?$basic_string@DU?$char_traits@D@std@@V?$allocator@D@2@@std@@@Z 1002a6a0 f i libprotobuf:descriptor.obj
 0001:00029730       ?FindSymbol@DescriptorBuilder@protobuf@google@@AAE?AUSymbol@?A0x0ecadf1d@23@ABV?$basic_string@DU?$char_traits@D@std@@V?$allocator@D@2@@std@@@Z 1002a730 f   libprotobuf:descriptor.obj
 0001:00029890       ?FindSymbol@Tables@DescriptorPool@protobuf@google@@QBE?AUSymbol@?A0x0ecadf1d@34@ABV?$basic_string@DU?$char_traits@D@std@@V?$allocator@D@2@@std@@@Z 1002a890 f i libprotobuf:descriptor.obj
 0001:00029930       ?FindSymbolNotEnforcingDepsHelper@DescriptorBuilder@protobuf@google@@AAE?AUSymbol@?A0x0ecadf1d@23@PBVDescriptorPool@23@ABV?$basic_string@DU?$char_traits@D@std@@V?$allocator@D@2@@std@@@Z 1002a930 f   libprotobuf:descriptor.obj
 0001:00029a10       ?FindValueByName@EnumDescriptor@protobuf@google@@QBEPBVEnumValueDescriptor@23@ABV?$basic_string@DU?$char_traits@D@std@@V?$allocator@D@2@@std@@@Z 1002aa10 f   libprotobuf:descriptor.obj
 0001:00029a60       ?FindValueByNumber@EnumDescriptor@protobuf@google@@QBEPBVEnumValueDescriptor@23@H@Z 1002aa60 f   libprotobuf:descriptor.obj
 0001:00029fa0       ?InternalAddGeneratedFile@DescriptorPool@protobuf@google@@SAXPBXH@Z 1002afa0 f   libprotobuf:descriptor.obj
 0001:0002a090       ?InterpretOptions@OptionInterpreter@DescriptorBuilder@protobuf@google@@QAE_NPAUOptionsToInterpret@?A0x0ecadf1d@34@@Z 1002b090 f   libprotobuf:descriptor.obj
 0001:0002a4b0       ?InterpretSingleOption@OptionInterpreter@DescriptorBuilder@protobuf@google@@AAE_NPAVMessage@34@@Z 1002b4b0 f   libprotobuf:descriptor.obj
 0001:0002afa0       ?IsInPackage@DescriptorBuilder@protobuf@google@@AAE_NPBVFileDescriptor@23@ABV?$basic_string@DU?$char_traits@D@std@@V?$allocator@D@2@@std@@@Z 1002bfa0 f   libprotobuf:descriptor.obj
 0001:0002b010       ?IsSubSymbolOfBuiltType@DescriptorPool@protobuf@google@@ABE_NABV?$basic_string@DU?$char_traits@D@std@@V?$allocator@D@2@@std@@@Z 1002c010 f   libprotobuf:descriptor.obj
 0001:0002b270       ?LogUnusedDependency@DescriptorBuilder@protobuf@google@@AAEXPBVFileDescriptor@23@@Z 1002c270 f   libprotobuf:descriptor.obj
 0001:0002b6b0       ?LookupSymbolNoPlaceholder@DescriptorBuilder@protobuf@google@@AAE?AUSymbol@?A0x0ecadf1d@23@ABV?$basic_string@DU?$char_traits@D@std@@V?$allocator@D@2@@std@@0W4ResolveMode@123@@Z 1002c6b0 f   libprotobuf:descriptor.obj
 0001:0002ba80       ?LowerString@protobuf@google@@YAXPAV?$basic_string@DU?$char_traits@D@std@@V?$allocator@D@2@@std@@@Z 1002ca80 f i libprotobuf:descriptor.obj
 0001:0002bad0       ?NewPlaceholder@DescriptorBuilder@protobuf@google@@AAE?AUSymbol@?A0x0ecadf1d@23@ABV?$basic_string@DU?$char_traits@D@std@@V?$allocator@D@2@@std@@W4PlaceholderType@123@@Z 1002cad0 f   libprotobuf:descriptor.obj
 0001:0002bf40       ?NewPlaceholderFile@DescriptorBuilder@protobuf@google@@AAEPBVFileDescriptor@23@ABV?$basic_string@DU?$char_traits@D@std@@V?$allocator@D@2@@std@@@Z 1002cf40 f   libprotobuf:descriptor.obj
 0001:0002c020       ?RecordPublicDependencies@DescriptorBuilder@protobuf@google@@AAEXPBVFileDescriptor@23@@Z 1002d020 f   libprotobuf:descriptor.obj
 0001:0002c550       ?RollbackToLastCheckpoint@Tables@DescriptorPool@protobuf@google@@QAEXXZ 1002d550 f   libprotobuf:descriptor.obj
 0001:0002c790       ?SetAggregateOption@OptionInterpreter@DescriptorBuilder@protobuf@google@@AAE_NPBVFieldDescriptor@34@PAVUnknownFieldSet@34@@Z 1002d790 f   libprotobuf:descriptor.obj
 0001:0002ccc0       ?SetInt32@OptionInterpreter@DescriptorBuilder@protobuf@google@@AAEXHHW4Type@FieldDescriptor@34@PAVUnknownFieldSet@34@@Z 1002dcc0 f   libprotobuf:descriptor.obj
 0001:0002cd90       ?SetInt64@OptionInterpreter@DescriptorBuilder@protobuf@google@@AAEXH_JW4Type@FieldDescriptor@34@PAVUnknownFieldSet@34@@Z 1002dd90 f   libprotobuf:descriptor.obj
 0001:0002ce70       ?SetOptionValue@OptionInterpreter@DescriptorBuilder@protobuf@google@@AAE_NPBVFieldDescriptor@34@PAVUnknownFieldSet@34@@Z 1002de70 f   libprotobuf:descriptor.obj
 0001:0002d730       ?SetUInt32@OptionInterpreter@DescriptorBuilder@protobuf@google@@AAEXHIW4Type@FieldDescriptor@34@PAVUnknownFieldSet@34@@Z 1002e730 f   libprotobuf:descriptor.obj
 0001:0002d7f0       ?SetUInt64@OptionInterpreter@DescriptorBuilder@protobuf@google@@AAEXH_KW4Type@FieldDescriptor@34@PAVUnknownFieldSet@34@@Z 1002e7f0 f   libprotobuf:descriptor.obj
 0001:0002dad0       ?ToString@internal@protobuf@google@@YA?AV?$basic_string@DU?$char_traits@D@std@@V?$allocator@D@2@@std@@V45@@Z 1002ead0 f i libprotobuf:descriptor.obj
 0001:0002db20       ?TryFindExtensionInFallbackDatabase@DescriptorPool@protobuf@google@@ABE_NPBVDescriptor@23@H@Z 1002eb20 f   libprotobuf:descriptor.obj
 0001:0002dbe0       ?TryFindFileInFallbackDatabase@DescriptorPool@protobuf@google@@ABE_NABV?$basic_string@DU?$char_traits@D@std@@V?$allocator@D@2@@std@@@Z 1002ebe0 f   libprotobuf:descriptor.obj
 0001:0002dcf0       ?TryFindSymbolInFallbackDatabase@DescriptorPool@protobuf@google@@ABE_NABV?$basic_string@DU?$char_traits@D@std@@V?$allocator@D@2@@std@@@Z 1002ecf0 f   libprotobuf:descriptor.obj
 0001:0002de20       ?ValidateEnumOptions@DescriptorBuilder@protobuf@google@@AAEXPAVEnumDescriptor@23@ABVEnumDescriptorProto@23@@Z 1002ee20 f   libprotobuf:descriptor.obj
 0001:0002e200       ?ValidateFieldOptions@DescriptorBuilder@protobuf@google@@AAEXPAVFieldDescriptor@23@ABVFieldDescriptorProto@23@@Z 1002f200 f   libprotobuf:descriptor.obj
 0001:0002e330       ?ValidateFileOptions@DescriptorBuilder@protobuf@google@@AAEXPAVFileDescriptor@23@ABVFileDescriptorProto@23@@Z 1002f330 f   libprotobuf:descriptor.obj
 0001:0002e690       ?ValidateMapKey@DescriptorBuilder@protobuf@google@@AAEXPAVFieldDescriptor@23@ABVFieldDescriptorProto@23@@Z 1002f690 f   libprotobuf:descriptor.obj
 0001:0002e8f0       ?ValidateMessageOptions@DescriptorBuilder@protobuf@google@@AAEXPAVDescriptor@23@ABVDescriptorProto@23@@Z 1002f8f0 f   libprotobuf:descriptor.obj
 0001:0002ec20       ?ValidateQualifiedName@DescriptorBuilder@protobuf@google@@AAE_NABV?$basic_string@DU?$char_traits@D@std@@V?$allocator@D@2@@std@@@Z 1002fc20 f   libprotobuf:descriptor.obj
 0001:0002ed10       ?ValidateSymbolName@DescriptorBuilder@protobuf@google@@AAEXABV?$basic_string@DU?$char_traits@D@std@@V?$allocator@D@2@@std@@0ABVMessage@23@@Z 1002fd10 f   libprotobuf:descriptor.obj
 0001:0002eeb0       ?_Buyheadnode@?$_Tree_comp_alloc@V?$_Tmap_traits@V?$basic_string@DU?$char_traits@D@std@@V?$allocator@D@2@@std@@PBVSourceCodeInfo_Location@protobuf@google@@U?$hash@V?$basic_string@DU?$char_traits@D@std@@V?$allocator@D@2@@std@@@45@V?$allocator@U?$pair@$$CBV?$basic_string@DU?$char_traits@D@std@@V?$allocator@D@2@@std@@PBVSourceCodeInfo_Location@protobuf@google@@@std@@@2@$0A@@std@@@std@@QAEPAU?$_Tree_node@U?$pair@$$CBV?$basic_string@DU?$char_traits@D@std@@V?$allocator@D@2@@std@@PBVSourceCodeInfo_Location@protobuf@google@@@std@@PAX@2@XZ 1002feb0 f i libprotobuf:descriptor.obj
 0001:0002eeb0       ?_Buyheadnode@?$_Tree_comp_alloc@V?$_Tmap_traits@HV?$basic_string@DU?$char_traits@D@std@@V?$allocator@D@2@@std@@U?$less@H@2@V?$allocator@U?$pair@$$CBHV?$basic_string@DU?$char_traits@D@std@@V?$allocator@D@2@@std@@@std@@@2@$0A@@std@@@std@@QAEPAU?$_Tree_node@U?$pair@$$CBHV?$basic_string@DU?$char_traits@D@std@@V?$allocator@D@2@@std@@@std@@PAX@2@XZ 1002feb0 f i libprotobuf:descriptor.obj
 0001:0002eee0       ?_Buyheadnode@?$_Tree_comp_alloc@V?$_Tmap_traits@U?$pair@PBVDescriptor@protobuf@google@@H@std@@PBVFieldDescriptor@protobuf@google@@U?$less@U?$pair@PBVDescriptor@protobuf@google@@H@std@@@2@V?$allocator@U?$pair@$$CBU?$pair@PBVDescriptor@protobuf@google@@H@std@@PBVFieldDescriptor@protobuf@google@@@std@@@2@$0A@@std@@@std@@QAEPAU?$_Tree_node@U?$pair@$$CBU?$pair@PBVDescriptor@protobuf@google@@H@std@@PBVFieldDescriptor@protobuf@google@@@std@@PAX@2@XZ 1002fee0 f i libprotobuf:descriptor.obj
 0001:0002eee0       ?_Buyheadnode@?$_Tree_comp_alloc@V?$_Tmap_traits@U?$pair@PBXPBD@std@@PBVFieldDescriptor@protobuf@google@@UPointerStringPairHash@?A0x0ecadf1d@45@V?$allocator@U?$pair@$$CBU?$pair@PBXPBD@std@@PBVFieldDescriptor@protobuf@google@@@std@@@2@$0A@@std@@@std@@QAEPAU?$_Tree_node@U?$pair@$$CBU?$pair@PBXPBD@std@@PBVFieldDescriptor@protobuf@google@@@std@@PAX@2@XZ 1002fee0 f i libprotobuf:descriptor.obj
 0001:0002eee0       ?_Buyheadnode@?$_Tree_comp_alloc@V?$_Tmap_traits@PBDUSymbol@?A0x0ecadf1d@protobuf@google@@U?$hash@PBD@34@V?$allocator@U?$pair@QBDUSymbol@?A0x0ecadf1d@protobuf@google@@@std@@@std@@$0A@@std@@@std@@QAEPAU?$_Tree_node@U?$pair@QBDUSymbol@?A0x0ecadf1d@protobuf@google@@@std@@PAX@2@XZ 1002fee0 f i libprotobuf:descriptor.obj
 0001:0002eee0       ?_Buyheadnode@?$_Tree_comp_alloc@V?$_Tmap_traits@U?$pair@PBVEnumDescriptor@protobuf@google@@H@std@@PBVEnumValueDescriptor@protobuf@google@@U?$PointerIntegerPairHash@U?$pair@PBVEnumDescriptor@protobuf@google@@H@std@@@?A0x0ecadf1d@45@V?$allocator@U?$pair@$$CBU?$pair@PBVEnumDescriptor@protobuf@google@@H@std@@PBVEnumValueDescriptor@protobuf@google@@@std@@@2@$0A@@std@@@std@@QAEPAU?$_Tree_node@U?$pair@$$CBU?$pair@PBVEnumDescriptor@protobuf@google@@H@std@@PBVEnumValueDescriptor@protobuf@google@@@std@@PAX@2@XZ 1002fee0 f i libprotobuf:descriptor.obj
 0001:0002eee0       ?_Buyheadnode@?$_Tree_comp_alloc@V?$_Tmap_traits@U?$pair@PBVDescriptor@protobuf@google@@H@std@@PBVFieldDescriptor@protobuf@google@@U?$PointerIntegerPairHash@U?$pair@PBVDescriptor@protobuf@google@@H@std@@@?A0x0ecadf1d@45@V?$allocator@U?$pair@$$CBU?$pair@PBVDescriptor@protobuf@google@@H@std@@PBVFieldDescriptor@protobuf@google@@@std@@@2@$0A@@std@@@std@@QAEPAU?$_Tree_node@U?$pair@$$CBU?$pair@PBVDescriptor@protobuf@google@@H@std@@PBVFieldDescriptor@protobuf@google@@@std@@PAX@2@XZ 1002fee0 f i libprotobuf:descriptor.obj
 0001:0002ef10       ?_Buyheadnode@?$_Tree_comp_alloc@V?$_Tset_traits@HU?$less@H@std@@V?$allocator@H@2@$0A@@std@@@std@@QAEPAU?$_Tree_node@HPAX@2@XZ 1002ff10 f i libprotobuf:descriptor.obj
 0001:0002ef10       ?_Buyheadnode@?$_Tree_comp_alloc@V?$_Tset_traits@PBVFileDescriptor@protobuf@google@@U?$less@PBVFileDescriptor@protobuf@google@@@std@@V?$allocator@PBVFileDescriptor@protobuf@google@@@5@$0A@@std@@@std@@QAEPAU?$_Tree_node@PBVFileDescriptor@protobuf@google@@PAX@2@XZ 1002ff10 f i libprotobuf:descriptor.obj
 0001:0002ef10       ?_Buyheadnode@?$_Tree_comp_alloc@V?$_Tset_traits@PBVDescriptor@protobuf@google@@U?$hash@PBVDescriptor@protobuf@google@@@23@V?$allocator@PBVDescriptor@protobuf@google@@@std@@$0A@@std@@@std@@QAEPAU?$_Tree_node@PBVDescriptor@protobuf@google@@PAX@2@XZ 1002ff10 f i libprotobuf:descriptor.obj
 0001:0002ef10       ?_Buyheadnode@?$_Tree_comp_alloc@V?$_Tset_traits@PBVDescriptor@protobuf@google@@U?$less@PBVDescriptor@protobuf@google@@@std@@V?$allocator@PBVDescriptor@protobuf@google@@@5@$0A@@std@@@std@@QAEPAU?$_Tree_node@PBVDescriptor@protobuf@google@@PAX@2@XZ 1002ff10 f i libprotobuf:descriptor.obj
 0001:0002ef40       ?_Buyheadnode@?$_Tree_comp_alloc@V?$_Tset_traits@V?$basic_string@DU?$char_traits@D@std@@V?$allocator@D@2@@std@@U?$hash@V?$basic_string@DU?$char_traits@D@std@@V?$allocator@D@2@@std@@@protobuf@google@@V?$allocator@V?$basic_string@DU?$char_traits@D@std@@V?$allocator@D@2@@std@@@2@$0A@@std@@@std@@QAEPAU?$_Tree_node@V?$basic_string@DU?$char_traits@D@std@@V?$allocator@D@2@@std@@PAX@2@XZ 1002ff40 f i libprotobuf:descriptor.obj
 0001:0002ef40       ?_Buyheadnode@?$_Tree_comp_alloc@V?$_Tset_traits@V?$basic_string@DU?$char_traits@D@std@@V?$allocator@D@2@@std@@U?$less@V?$basic_string@DU?$char_traits@D@std@@V?$allocator@D@2@@std@@@2@V?$allocator@V?$basic_string@DU?$char_traits@D@std@@V?$allocator@D@2@@std@@@2@$0A@@std@@@std@@QAEPAU?$_Tree_node@V?$basic_string@DU?$char_traits@D@std@@V?$allocator@D@2@@std@@PAX@2@XZ 1002ff40 f i libprotobuf:descriptor.obj
 0001:0002ef70       ?_Buynode0@?$_Tree_comp_alloc@V?$_Tmap_traits@HV?$basic_string@DU?$char_traits@D@std@@V?$allocator@D@2@@std@@U?$less@H@2@V?$allocator@U?$pair@$$CBHV?$basic_string@DU?$char_traits@D@std@@V?$allocator@D@2@@std@@@std@@@2@$0A@@std@@@std@@QAEPAU?$_Tree_node@U?$pair@$$CBHV?$basic_string@DU?$char_traits@D@std@@V?$allocator@D@2@@std@@@std@@PAX@2@XZ 1002ff70 f i libprotobuf:descriptor.obj
 0001:0002efb0       ?_Buynode0@?$_Tree_comp_alloc@V?$_Tmap_traits@U?$pair@PBVEnumDescriptor@protobuf@google@@H@std@@PBVEnumValueDescriptor@protobuf@google@@U?$PointerIntegerPairHash@U?$pair@PBVEnumDescriptor@protobuf@google@@H@std@@@?A0x0ecadf1d@45@V?$allocator@U?$pair@$$CBU?$pair@PBVEnumDescriptor@protobuf@google@@H@std@@PBVEnumValueDescriptor@protobuf@google@@@std@@@2@$0A@@std@@@std@@QAEPAU?$_Tree_node@U?$pair@$$CBU?$pair@PBVEnumDescriptor@protobuf@google@@H@std@@PBVEnumValueDescriptor@protobuf@google@@@std@@PAX@2@XZ 1002ffb0 f i libprotobuf:descriptor.obj
 0001:0002efb0       ?_Buynode0@?$_Tree_comp_alloc@V?$_Tmap_traits@PBDUSymbol@?A0x0ecadf1d@protobuf@google@@U?$hash@PBD@34@V?$allocator@U?$pair@QBDUSymbol@?A0x0ecadf1d@protobuf@google@@@std@@@std@@$0A@@std@@@std@@QAEPAU?$_Tree_node@U?$pair@QBDUSymbol@?A0x0ecadf1d@protobuf@google@@@std@@PAX@2@XZ 1002ffb0 f i libprotobuf:descriptor.obj
 0001:0002efb0       ?_Buynode0@?$_Tree_comp_alloc@V?$_Tmap_traits@U?$pair@PBVDescriptor@protobuf@google@@H@std@@PBVFieldDescriptor@protobuf@google@@U?$PointerIntegerPairHash@U?$pair@PBVDescriptor@protobuf@google@@H@std@@@?A0x0ecadf1d@45@V?$allocator@U?$pair@$$CBU?$pair@PBVDescriptor@protobuf@google@@H@std@@PBVFieldDescriptor@protobuf@google@@@std@@@2@$0A@@std@@@std@@QAEPAU?$_Tree_node@U?$pair@$$CBU?$pair@PBVDescriptor@protobuf@google@@H@std@@PBVFieldDescriptor@protobuf@google@@@std@@PAX@2@XZ 1002ffb0 f i libprotobuf:descriptor.obj
 0001:0002efb0       ?_Buynode0@?$_Tree_comp_alloc@V?$_Tmap_traits@U?$pair@PBVDescriptor@protobuf@google@@H@std@@PBVFieldDescriptor@protobuf@google@@U?$less@U?$pair@PBVDescriptor@protobuf@google@@H@std@@@2@V?$allocator@U?$pair@$$CBU?$pair@PBVDescriptor@protobuf@google@@H@std@@PBVFieldDescriptor@protobuf@google@@@std@@@2@$0A@@std@@@std@@QAEPAU?$_Tree_node@U?$pair@$$CBU?$pair@PBVDescriptor@protobuf@google@@H@std@@PBVFieldDescriptor@protobuf@google@@@std@@PAX@2@XZ 1002ffb0 f i libprotobuf:descriptor.obj
 0001:0002efb0       ?_Buynode0@?$_Tree_comp_alloc@V?$_Tmap_traits@U?$pair@PBXPBD@std@@PBVFieldDescriptor@protobuf@google@@UPointerStringPairHash@?A0x0ecadf1d@45@V?$allocator@U?$pair@$$CBU?$pair@PBXPBD@std@@PBVFieldDescriptor@protobuf@google@@@std@@@2@$0A@@std@@@std@@QAEPAU?$_Tree_node@U?$pair@$$CBU?$pair@PBXPBD@std@@PBVFieldDescriptor@protobuf@google@@@std@@PAX@2@XZ 1002ffb0 f i libprotobuf:descriptor.obj
 0001:0002eff0       ?_Buynode0@?$_Tree_comp_alloc@V?$_Tmap_traits@PBVFieldDescriptor@protobuf@google@@V?$vector@PAVParseInfoTree@TextFormat@protobuf@google@@V?$allocator@PAVParseInfoTree@TextFormat@protobuf@google@@@std@@@std@@U?$less@PBVFieldDescriptor@protobuf@google@@@5@V?$allocator@U?$pair@QBVFieldDescriptor@protobuf@google@@V?$vector@PAVParseInfoTree@TextFormat@protobuf@google@@V?$allocator@PAVParseInfoTree@TextFormat@protobuf@google@@@std@@@std@@@std@@@5@$0A@@std@@@std@@QAEPAU?$_Tree_node@U?$pair@QBVFieldDescriptor@protobuf@google@@V?$vector@PAVParseInfoTree@TextFormat@protobuf@google@@V?$allocator@PAVParseInfoTree@TextFormat@protobuf@google@@@std@@@std@@@std@@PAX@2@XZ 1002fff0 f i libprotobuf:text_format.obj
 0001:0002eff0       ?_Buynode0@?$_Tree_comp_alloc@V?$_Tmap_traits@PBVFieldDescriptor@protobuf@google@@V?$vector@UParseLocation@TextFormat@protobuf@google@@V?$allocator@UParseLocation@TextFormat@protobuf@google@@@std@@@std@@U?$less@PBVFieldDescriptor@protobuf@google@@@5@V?$allocator@U?$pair@QBVFieldDescriptor@protobuf@google@@V?$vector@UParseLocation@TextFormat@protobuf@google@@V?$allocator@UParseLocation@TextFormat@protobuf@google@@@std@@@std@@@std@@@5@$0A@@std@@@std@@QAEPAU?$_Tree_node@U?$pair@QBVFieldDescriptor@protobuf@google@@V?$vector@UParseLocation@TextFormat@protobuf@google@@V?$allocator@UParseLocation@TextFormat@protobuf@google@@@std@@@std@@@std@@PAX@2@XZ 1002fff0 f i libprotobuf:text_format.obj
 0001:0002eff0       ?_Buynode0@?$_Tree_comp_alloc@V?$_Tmap_traits@U?$pair@PBXPBD@std@@USymbol@?A0x0ecadf1d@protobuf@google@@UPointerStringPairHash@456@V?$allocator@U?$pair@$$CBU?$pair@PBXPBD@std@@USymbol@?A0x0ecadf1d@protobuf@google@@@std@@@2@$0A@@std@@@std@@QAEPAU?$_Tree_node@U?$pair@$$CBU?$pair@PBXPBD@std@@USymbol@?A0x0ecadf1d@protobuf@google@@@std@@PAX@2@XZ 1002fff0 f i libprotobuf:descriptor.obj
 0001:0002f030       ?_Buynode0@?$_Tree_comp_alloc@V?$_Tset_traits@HU?$less@H@std@@V?$allocator@H@2@$0A@@std@@@std@@QAEPAU?$_Tree_node@HPAX@2@XZ 10030030 f i libprotobuf:descriptor.obj
 0001:0002f030       ?_Buynode0@?$_Tree_comp_alloc@V?$_Tset_traits@PBVFileDescriptor@protobuf@google@@U?$less@PBVFileDescriptor@protobuf@google@@@std@@V?$allocator@PBVFileDescriptor@protobuf@google@@@5@$0A@@std@@@std@@QAEPAU?$_Tree_node@PBVFileDescriptor@protobuf@google@@PAX@2@XZ 10030030 f i libprotobuf:descriptor.obj
 0001:0002f030       ?_Buynode0@?$_Tree_comp_alloc@V?$_Tset_traits@PBVDescriptor@protobuf@google@@U?$less@PBVDescriptor@protobuf@google@@@std@@V?$allocator@PBVDescriptor@protobuf@google@@@5@$0A@@std@@@std@@QAEPAU?$_Tree_node@PBVDescriptor@protobuf@google@@PAX@2@XZ 10030030 f i libprotobuf:descriptor.obj
 0001:0002f070       ?_Buynode0@?$_Tree_comp_alloc@V?$_Tset_traits@V?$basic_string@DU?$char_traits@D@std@@V?$allocator@D@2@@std@@U?$less@V?$basic_string@DU?$char_traits@D@std@@V?$allocator@D@2@@std@@@2@V?$allocator@V?$basic_string@DU?$char_traits@D@std@@V?$allocator@D@2@@std@@@2@$0A@@std@@@std@@QAEPAU?$_Tree_node@V?$basic_string@DU?$char_traits@D@std@@V?$allocator@D@2@@std@@PAX@2@XZ 10030070 f i libprotobuf:descriptor.obj
 0001:0002f070       ?_Buynode0@?$_Tree_comp_alloc@V?$_Tset_traits@V?$basic_string@DU?$char_traits@D@std@@V?$allocator@D@2@@std@@U?$hash@V?$basic_string@DU?$char_traits@D@std@@V?$allocator@D@2@@std@@@protobuf@google@@V?$allocator@V?$basic_string@DU?$char_traits@D@std@@V?$allocator@D@2@@std@@@2@$0A@@std@@@std@@QAEPAU?$_Tree_node@V?$basic_string@DU?$char_traits@D@std@@V?$allocator@D@2@@std@@PAX@2@XZ 10030070 f i libprotobuf:descriptor.obj
 0001:0002f0b0       ?_Destroy_if_not_nil@?$_Tree@V?$_Tmap_traits@HV?$basic_string@DU?$char_traits@D@std@@V?$allocator@D@2@@std@@U?$less@H@2@V?$allocator@U?$pair@$$CBHV?$basic_string@DU?$char_traits@D@std@@V?$allocator@D@2@@std@@@std@@@2@$0A@@std@@@std@@IAEXPAU?$_Tree_node@U?$pair@$$CBHV?$basic_string@DU?$char_traits@D@std@@V?$allocator@D@2@@std@@@std@@PAX@2@@Z 100300b0 f i libprotobuf:descriptor.obj
 0001:0002f100       ?_Erase@?$_Tree@V?$_Tmap_traits@HV?$basic_string@DU?$char_traits@D@std@@V?$allocator@D@2@@std@@U?$less@H@2@V?$allocator@U?$pair@$$CBHV?$basic_string@DU?$char_traits@D@std@@V?$allocator@D@2@@std@@@std@@@2@$0A@@std@@@std@@IAEXPAU?$_Tree_node@U?$pair@$$CBHV?$basic_string@DU?$char_traits@D@std@@V?$allocator@D@2@@std@@@std@@PAX@2@@Z 10030100 f i libprotobuf:descriptor.obj
 0001:0002f1b0       ?_Erase@?$_Tree@V?$_Tmap_traits@V?$basic_string@DU?$char_traits@D@std@@V?$allocator@D@2@@std@@PBVSourceCodeInfo_Location@protobuf@google@@U?$hash@V?$basic_string@DU?$char_traits@D@std@@V?$allocator@D@2@@std@@@45@V?$allocator@U?$pair@$$CBV?$basic_string@DU?$char_traits@D@std@@V?$allocator@D@2@@std@@PBVSourceCodeInfo_Location@protobuf@google@@@std@@@2@$0A@@std@@@std@@IAEXPAU?$_Tree_node@U?$pair@$$CBV?$basic_string@DU?$char_traits@D@std@@V?$allocator@D@2@@std@@PBVSourceCodeInfo_Location@protobuf@google@@@std@@PAX@2@@Z 100301b0 f i libprotobuf:descriptor.obj
 0001:0002f1b0       ?_Erase@?$_Tree@V?$_Tmap_traits@U?$pair@V?$basic_string@DU?$char_traits@D@std@@V?$allocator@D@2@@std@@H@std@@U?$pair@PBXH@2@U?$less@U?$pair@V?$basic_string@DU?$char_traits@D@std@@V?$allocator@D@2@@std@@H@std@@@2@V?$allocator@U?$pair@$$CBU?$pair@V?$basic_string@DU?$char_traits@D@std@@V?$allocator@D@2@@std@@H@std@@U?$pair@PBXH@2@@std@@@2@$0A@@std@@@std@@IAEXPAU?$_Tree_node@U?$pair@$$CBU?$pair@V?$basic_string@DU?$char_traits@D@std@@V?$allocator@D@2@@std@@H@std@@U?$pair@PBXH@2@@std@@PAX@2@@Z 100301b0 f i libprotobuf:descriptor_database.obj
 0001:0002f1b0       ?_Erase@?$_Tree@V?$_Tmap_traits@V?$basic_string@DU?$char_traits@D@std@@V?$allocator@D@2@@std@@U?$pair@PBXH@2@U?$less@V?$basic_string@DU?$char_traits@D@std@@V?$allocator@D@2@@std@@@2@V?$allocator@U?$pair@$$CBV?$basic_string@DU?$char_traits@D@std@@V?$allocator@D@2@@std@@U?$pair@PBXH@2@@std@@@2@$0A@@std@@@std@@IAEXPAU?$_Tree_node@U?$pair@$$CBV?$basic_string@DU?$char_traits@D@std@@V?$allocator@D@2@@std@@U?$pair@PBXH@2@@std@@PAX@2@@Z 100301b0 f i libprotobuf:descriptor_database.obj
 0001:0002f260       ?_Erase@?$_Tree@V?$_Tset_traits@V?$basic_string@DU?$char_traits@D@std@@V?$allocator@D@2@@std@@U?$less@V?$basic_string@DU?$char_traits@D@std@@V?$allocator@D@2@@std@@@2@V?$allocator@V?$basic_string@DU?$char_traits@D@std@@V?$allocator@D@2@@std@@@2@$0A@@std@@@std@@IAEXPAU?$_Tree_node@V?$basic_string@DU?$char_traits@D@std@@V?$allocator@D@2@@std@@PAX@2@@Z 10030260 f i libprotobuf:descriptor.obj
 0001:0002f260       ?_Erase@?$_Tree@V?$_Tset_traits@V?$basic_string@DU?$char_traits@D@std@@V?$allocator@D@2@@std@@U?$hash@V?$basic_string@DU?$char_traits@D@std@@V?$allocator@D@2@@std@@@protobuf@google@@V?$allocator@V?$basic_string@DU?$char_traits@D@std@@V?$allocator@D@2@@std@@@2@$0A@@std@@@std@@IAEXPAU?$_Tree_node@V?$basic_string@DU?$char_traits@D@std@@V?$allocator@D@2@@std@@PAX@2@@Z 10030260 f i libprotobuf:descriptor.obj
 0001:0002f310       ?_Lrotate@?$_Tree@V?$_Tmap_traits@PBVFieldDescriptor@protobuf@google@@PBVFieldValuePrinter@TextFormat@23@U?$less@PBVFieldDescriptor@protobuf@google@@@std@@V?$allocator@U?$pair@QBVFieldDescriptor@protobuf@google@@PBVFieldValuePrinter@TextFormat@23@@std@@@7@$0A@@std@@@std@@IAEXPAU?$_Tree_node@U?$pair@QBVFieldDescriptor@protobuf@google@@PBVFieldValuePrinter@TextFormat@23@@std@@PAX@2@@Z 10030310 f i libprotobuf:text_format.obj
 0001:0002f310       ?_Lrotate@?$_Tree@V?$_Tmap_traits@HV?$basic_string@DU?$char_traits@D@std@@V?$allocator@D@2@@std@@U?$less@H@2@V?$allocator@U?$pair@$$CBHV?$basic_string@DU?$char_traits@D@std@@V?$allocator@D@2@@std@@@std@@@2@$0A@@std@@@std@@IAEXPAU?$_Tree_node@U?$pair@$$CBHV?$basic_string@DU?$char_traits@D@std@@V?$allocator@D@2@@std@@@std@@PAX@2@@Z 10030310 f i libprotobuf:descriptor.obj
 0001:0002f310       ?_Lrotate@?$_Tree@V?$_Tmap_traits@PBVFieldDescriptor@protobuf@google@@V?$vector@PAVParseInfoTree@TextFormat@protobuf@google@@V?$allocator@PAVParseInfoTree@TextFormat@protobuf@google@@@std@@@std@@U?$less@PBVFieldDescriptor@protobuf@google@@@5@V?$allocator@U?$pair@QBVFieldDescriptor@protobuf@google@@V?$vector@PAVParseInfoTree@TextFormat@protobuf@google@@V?$allocator@PAVParseInfoTree@TextFormat@protobuf@google@@@std@@@std@@@std@@@5@$0A@@std@@@std@@IAEXPAU?$_Tree_node@U?$pair@QBVFieldDescriptor@protobuf@google@@V?$vector@PAVParseInfoTree@TextFormat@protobuf@google@@V?$allocator@PAVParseInfoTree@TextFormat@protobuf@google@@@std@@@std@@@std@@PAX@2@@Z 10030310 f i libprotobuf:text_format.obj
 0001:0002f310       ?_Lrotate@?$_Tree@V?$_Tmap_traits@PBDP6AXABV?$basic_string@DU?$char_traits@D@std@@V?$allocator@D@2@@std@@@ZU?$hash@PBD@protobuf@google@@V?$allocator@U?$pair@QBDP6AXABV?$basic_string@DU?$char_traits@D@std@@V?$allocator@D@2@@std@@@Z@std@@@2@$0A@@std@@@std@@IAEXPAU?$_Tree_node@U?$pair@QBDP6AXABV?$basic_string@DU?$char_traits@D@std@@V?$allocator@D@2@@std@@@Z@std@@PAX@2@@Z 10030310 f i libprotobuf:message.obj
 0001:0002f310       ?_Lrotate@?$_Tree@V?$_Tmap_traits@PBDPBVFileDescriptor@protobuf@google@@U?$hash@PBD@23@V?$allocator@U?$pair@QBDPBVFileDescriptor@protobuf@google@@@std@@@std@@$0A@@std@@@std@@IAEXPAU?$_Tree_node@U?$pair@QBDPBVFileDescriptor@protobuf@google@@@std@@PAX@2@@Z 10030310 f i libprotobuf:descriptor.obj
 0001:0002f310       ?_Lrotate@?$_Tree@V?$_Tmap_traits@U?$pair@PBVDescriptor@protobuf@google@@H@std@@PBVFieldDescriptor@protobuf@google@@U?$less@U?$pair@PBVDescriptor@protobuf@google@@H@std@@@2@V?$allocator@U?$pair@$$CBU?$pair@PBVDescriptor@protobuf@google@@H@std@@PBVFieldDescriptor@protobuf@google@@@std@@@2@$0A@@std@@@std@@IAEXPAU?$_Tree_node@U?$pair@$$CBU?$pair@PBVDescriptor@protobuf@google@@H@std@@PBVFieldDescriptor@protobuf@google@@@std@@PAX@2@@Z 10030310 f i libprotobuf:descriptor.obj
 0001:0002f310       ?_Lrotate@?$_Tree@V?$_Tmap_traits@U?$pair@PBXPBD@std@@PBVFieldDescriptor@protobuf@google@@UPointerStringPairHash@?A0x0ecadf1d@45@V?$allocator@U?$pair@$$CBU?$pair@PBXPBD@std@@PBVFieldDescriptor@protobuf@google@@@std@@@2@$0A@@std@@@std@@IAEXPAU?$_Tree_node@U?$pair@$$CBU?$pair@PBXPBD@std@@PBVFieldDescriptor@protobuf@google@@@std@@PAX@2@@Z 10030310 f i libprotobuf:descriptor.obj
 0001:0002f310       ?_Lrotate@?$_Tree@V?$_Tset_traits@V?$basic_string@DU?$char_traits@D@std@@V?$allocator@D@2@@std@@U?$less@V?$basic_string@DU?$char_traits@D@std@@V?$allocator@D@2@@std@@@2@V?$allocator@V?$basic_string@DU?$char_traits@D@std@@V?$allocator@D@2@@std@@@2@$0A@@std@@@std@@IAEXPAU?$_Tree_node@V?$basic_string@DU?$char_traits@D@std@@V?$allocator@D@2@@std@@PAX@2@@Z 10030310 f i libprotobuf:descriptor.obj
 0001:0002f310       ?_Lrotate@?$_Tree@V?$_Tmap_traits@PBDUSymbol@?A0x0ecadf1d@protobuf@google@@U?$hash@PBD@34@V?$allocator@U?$pair@QBDUSymbol@?A0x0ecadf1d@protobuf@google@@@std@@@std@@$0A@@std@@@std@@IAEXPAU?$_Tree_node@U?$pair@QBDUSymbol@?A0x0ecadf1d@protobuf@google@@@std@@PAX@2@@Z 10030310 f i libprotobuf:descriptor.obj
 0001:0002f310       ?_Lrotate@?$_Tree@V?$_Tmap_traits@HUExtension@ExtensionSet@internal@protobuf@google@@U?$less@H@std@@V?$allocator@U?$pair@$$CBHUExtension@ExtensionSet@internal@protobuf@google@@@std@@@7@$0A@@std@@@std@@IAEXPAU?$_Tree_node@U?$pair@$$CBHUExtension@ExtensionSet@internal@protobuf@google@@@std@@PAX@2@@Z 10030310 f i libprotobuf:extension_set.obj
 0001:0002f310       ?_Lrotate@?$_Tree@V?$_Tmap_traits@V?$basic_string@DU?$char_traits@D@std@@V?$allocator@D@2@@std@@PBVSourceCodeInfo_Location@protobuf@google@@U?$hash@V?$basic_string@DU?$char_traits@D@std@@V?$allocator@D@2@@std@@@45@V?$allocator@U?$pair@$$CBV?$basic_string@DU?$char_traits@D@std@@V?$allocator@D@2@@std@@PBVSourceCodeInfo_Location@protobuf@google@@@std@@@2@$0A@@std@@@std@@IAEXPAU?$_Tree_node@U?$pair@$$CBV?$basic_string@DU?$char_traits@D@std@@V?$allocator@D@2@@std@@PBVSourceCodeInfo_Location@protobuf@google@@@std@@PAX@2@@Z 10030310 f i libprotobuf:descriptor.obj
 0001:0002f310       ?_Lrotate@?$_Tree@V?$_Tset_traits@HU?$less@H@std@@V?$allocator@H@2@$0A@@std@@@std@@IAEXPAU?$_Tree_node@HPAX@2@@Z 10030310 f i libprotobuf:descriptor.obj
 0001:0002f310       ?_Lrotate@?$_Tree@V?$_Tset_traits@PBVDescriptor@protobuf@google@@U?$hash@PBVDescriptor@protobuf@google@@@23@V?$allocator@PBVDescriptor@protobuf@google@@@std@@$0A@@std@@@std@@IAEXPAU?$_Tree_node@PBVDescriptor@protobuf@google@@PAX@2@@Z 10030310 f i libprotobuf:descriptor.obj
 0001:0002f310       ?_Lrotate@?$_Tree@V?$_Tmap_traits@PBVDescriptor@protobuf@google@@PBVMessage@23@U?$hash@PBVDescriptor@protobuf@google@@@23@V?$allocator@U?$pair@QBVDescriptor@protobuf@google@@PBVMessage@23@@std@@@std@@$0A@@std@@@std@@IAEXPAU?$_Tree_node@U?$pair@QBVDescriptor@protobuf@google@@PBVMessage@23@@std@@PAX@2@@Z 10030310 f i libprotobuf:message.obj
 0001:0002f310       ?_Lrotate@?$_Tree@V?$_Tset_traits@PBVDescriptor@protobuf@google@@U?$less@PBVDescriptor@protobuf@google@@@std@@V?$allocator@PBVDescriptor@protobuf@google@@@5@$0A@@std@@@std@@IAEXPAU?$_Tree_node@PBVDescriptor@protobuf@google@@PAX@2@@Z 10030310 f i libprotobuf:descriptor.obj
 0001:0002f310       ?_Lrotate@?$_Tree@V?$_Tset_traits@PBVFileDescriptor@protobuf@google@@U?$less@PBVFileDescriptor@protobuf@google@@@std@@V?$allocator@PBVFileDescriptor@protobuf@google@@@5@$0A@@std@@@std@@IAEXPAU?$_Tree_node@PBVFileDescriptor@protobuf@google@@PAX@2@@Z 10030310 f i libprotobuf:descriptor.obj
 0001:0002f310       ?_Lrotate@?$_Tree@V?$_Tmap_traits@V?$basic_string@DU?$char_traits@D@std@@V?$allocator@D@2@@std@@U?$pair@PBXH@2@U?$less@V?$basic_string@DU?$char_traits@D@std@@V?$allocator@D@2@@std@@@2@V?$allocator@U?$pair@$$CBV?$basic_string@DU?$char_traits@D@std@@V?$allocator@D@2@@std@@U?$pair@PBXH@2@@std@@@2@$0A@@std@@@std@@IAEXPAU?$_Tree_node@U?$pair@$$CBV?$basic_string@DU?$char_traits@D@std@@V?$allocator@D@2@@std@@U?$pair@PBXH@2@@std@@PAX@2@@Z 10030310 f i libprotobuf:descriptor_database.obj
 0001:0002f310       ?_Lrotate@?$_Tree@V?$_Tmap_traits@PBVFieldDescriptor@protobuf@google@@V?$vector@UParseLocation@TextFormat@protobuf@google@@V?$allocator@UParseLocation@TextFormat@protobuf@google@@@std@@@std@@U?$less@PBVFieldDescriptor@protobuf@google@@@5@V?$allocator@U?$pair@QBVFieldDescriptor@protobuf@google@@V?$vector@UParseLocation@TextFormat@protobuf@google@@V?$allocator@UParseLocation@TextFormat@protobuf@google@@@std@@@std@@@std@@@5@$0A@@std@@@std@@IAEXPAU?$_Tree_node@U?$pair@QBVFieldDescriptor@protobuf@google@@V?$vector@UParseLocation@TextFormat@protobuf@google@@V?$allocator@UParseLocation@TextFormat@protobuf@google@@@std@@@std@@@std@@PAX@2@@Z 10030310 f i libprotobuf:text_format.obj
 0001:0002f310       ?_Lrotate@?$_Tree@V?$_Tmap_traits@U?$pair@PBVDescriptor@protobuf@google@@H@std@@PBVFieldDescriptor@protobuf@google@@U?$PointerIntegerPairHash@U?$pair@PBVDescriptor@protobuf@google@@H@std@@@?A0x0ecadf1d@45@V?$allocator@U?$pair@$$CBU?$pair@PBVDescriptor@protobuf@google@@H@std@@PBVFieldDescriptor@protobuf@google@@@std@@@2@$0A@@std@@@std@@IAEXPAU?$_Tree_node@U?$pair@$$CBU?$pair@PBVDescriptor@protobuf@google@@H@std@@PBVFieldDescriptor@protobuf@google@@@std@@PAX@2@@Z 10030310 f i libprotobuf:descriptor.obj
 0001:0002f310       ?_Lrotate@?$_Tree@V?$_Tmap_traits@PBVDescriptor@protobuf@google@@PBUTypeInfo@DynamicMessage@23@U?$hash@PBVDescriptor@protobuf@google@@@23@V?$allocator@U?$pair@QBVDescriptor@protobuf@google@@PBUTypeInfo@DynamicMessage@23@@std@@@std@@$0A@@std@@@std@@IAEXPAU?$_Tree_node@U?$pair@QBVDescriptor@protobuf@google@@PBUTypeInfo@DynamicMessage@23@@std@@PAX@2@@Z 10030310 f i libprotobuf:dynamic_message.obj
 0001:0002f310       ?_Lrotate@?$_Tree@V?$_Tmap_traits@U?$pair@V?$basic_string@DU?$char_traits@D@std@@V?$allocator@D@2@@std@@H@std@@U?$pair@PBXH@2@U?$less@U?$pair@V?$basic_string@DU?$char_traits@D@std@@V?$allocator@D@2@@std@@H@std@@@2@V?$allocator@U?$pair@$$CBU?$pair@V?$basic_string@DU?$char_traits@D@std@@V?$allocator@D@2@@std@@H@std@@U?$pair@PBXH@2@@std@@@2@$0A@@std@@@std@@IAEXPAU?$_Tree_node@U?$pair@$$CBU?$pair@V?$basic_string@DU?$char_traits@D@std@@V?$allocator@D@2@@std@@H@std@@U?$pair@PBXH@2@@std@@PAX@2@@Z 10030310 f i libprotobuf:descriptor_database.obj
 0001:0002f310       ?_Lrotate@?$_Tree@V?$_Tset_traits@V?$basic_string@DU?$char_traits@D@std@@V?$allocator@D@2@@std@@U?$hash@V?$basic_string@DU?$char_traits@D@std@@V?$allocator@D@2@@std@@@protobuf@google@@V?$allocator@V?$basic_string@DU?$char_traits@D@std@@V?$allocator@D@2@@std@@@2@$0A@@std@@@std@@IAEXPAU?$_Tree_node@V?$basic_string@DU?$char_traits@D@std@@V?$allocator@D@2@@std@@PAX@2@@Z 10030310 f i libprotobuf:descriptor.obj
 0001:0002f310       ?_Lrotate@?$_Tree@V?$_Tmap_traits@U?$pair@PBXPBD@std@@USymbol@?A0x0ecadf1d@protobuf@google@@UPointerStringPairHash@456@V?$allocator@U?$pair@$$CBU?$pair@PBXPBD@std@@USymbol@?A0x0ecadf1d@protobuf@google@@@std@@@2@$0A@@std@@@std@@IAEXPAU?$_Tree_node@U?$pair@$$CBU?$pair@PBXPBD@std@@USymbol@?A0x0ecadf1d@protobuf@google@@@std@@PAX@2@@Z 10030310 f i libprotobuf:descriptor.obj
 0001:0002f310       ?_Lrotate@?$_Tree@V?$_Tmap_traits@U?$pair@PBVEnumDescriptor@protobuf@google@@H@std@@PBVEnumValueDescriptor@protobuf@google@@U?$PointerIntegerPairHash@U?$pair@PBVEnumDescriptor@protobuf@google@@H@std@@@?A0x0ecadf1d@45@V?$allocator@U?$pair@$$CBU?$pair@PBVEnumDescriptor@protobuf@google@@H@std@@PBVEnumValueDescriptor@protobuf@google@@@std@@@2@$0A@@std@@@std@@IAEXPAU?$_Tree_node@U?$pair@$$CBU?$pair@PBVEnumDescriptor@protobuf@google@@H@std@@PBVEnumValueDescriptor@protobuf@google@@@std@@PAX@2@@Z 10030310 f i libprotobuf:descriptor.obj
 0001:0002f370       ?_Reallocate@?$vector@PAVMessage@protobuf@google@@V?$allocator@PAVMessage@protobuf@google@@@std@@@std@@IAEXI@Z 10030370 f i libprotobuf:descriptor.obj
 0001:0002f370       ?_Reallocate@?$vector@HV?$allocator@H@std@@@std@@IAEXI@Z 10030370 f i libprotobuf:descriptor.obj
 0001:0002f370       ?_Reallocate@?$vector@PAVParseInfoTree@TextFormat@protobuf@google@@V?$allocator@PAVParseInfoTree@TextFormat@protobuf@google@@@std@@@std@@IAEXI@Z 10030370 f i libprotobuf:text_format.obj
 0001:0002f370       ?_Reallocate@?$vector@PBDV?$allocator@PBD@std@@@std@@IAEXI@Z 10030370 f i libprotobuf:descriptor.obj
 0001:0002f370       ?_Reallocate@?$vector@PAVFileDescriptorTables@protobuf@google@@V?$allocator@PAVFileDescriptorTables@protobuf@google@@@std@@@std@@IAEXI@Z 10030370 f i libprotobuf:descriptor.obj
 0001:0002f370       ?_Reallocate@?$vector@PAXV?$allocator@PAX@std@@@std@@IAEXI@Z 10030370 f i libprotobuf:descriptor.obj
 0001:0002f370       ?_Reallocate@?$vector@PAV?$basic_string@DU?$char_traits@D@std@@V?$allocator@D@2@@std@@V?$allocator@PAV?$basic_string@DU?$char_traits@D@std@@V?$allocator@D@2@@std@@@2@@std@@IAEXI@Z 10030370 f i libprotobuf:descriptor.obj
 0001:0002f370       ?_Reallocate@?$vector@PBVFieldDescriptor@protobuf@google@@V?$allocator@PBVFieldDescriptor@protobuf@google@@@std@@@std@@IAEXI@Z 10030370 f i libprotobuf:descriptor.obj
 0001:0002f370       ?_Reallocate@?$vector@P6AXXZV?$allocator@P6AXXZ@std@@@std@@IAEXI@Z 10030370 f i libprotobuf:common.obj
 0001:0002f3d0       ?_Reallocate@?$vector@UCheckPoint@Tables@DescriptorPool@protobuf@google@@V?$allocator@UCheckPoint@Tables@DescriptorPool@protobuf@google@@@std@@@std@@IAEXI@Z 100303d0 f i libprotobuf:descriptor.obj
 0001:0002f4c0       ?_Reallocate@?$vector@UOptionsToInterpret@?A0x0ecadf1d@protobuf@google@@V?$allocator@UOptionsToInterpret@?A0x0ecadf1d@protobuf@google@@@std@@@std@@IAEXI@Z 100304c0 f i libprotobuf:descriptor.obj
 0001:0002f5c0       ?_Reserve@?$vector@PBDV?$allocator@PBD@std@@@std@@IAEXI@Z 100305c0 f i libprotobuf:descriptor.obj
 0001:0002f5c0       ?_Reserve@?$vector@PAXV?$allocator@PAX@std@@@std@@IAEXI@Z 100305c0 f i libprotobuf:descriptor.obj
 0001:0002f5c0       ?_Reserve@?$vector@PAVMessage@protobuf@google@@V?$allocator@PAVMessage@protobuf@google@@@std@@@std@@IAEXI@Z 100305c0 f i libprotobuf:descriptor.obj
 0001:0002f5c0       ?_Reserve@?$vector@P6AXXZV?$allocator@P6AXXZ@std@@@std@@IAEXI@Z 100305c0 f i libprotobuf:common.obj
 0001:0002f5c0       ?_Reserve@?$vector@PAVFileDescriptorTables@protobuf@google@@V?$allocator@PAVFileDescriptorTables@protobuf@google@@@std@@@std@@IAEXI@Z 100305c0 f i libprotobuf:descriptor.obj
 0001:0002f5c0       ?_Reserve@?$vector@PAV?$basic_string@DU?$char_traits@D@std@@V?$allocator@D@2@@std@@V?$allocator@PAV?$basic_string@DU?$char_traits@D@std@@V?$allocator@D@2@@std@@@2@@std@@IAEXI@Z 100305c0 f i libprotobuf:descriptor.obj
 0001:0002f5c0       ?_Reserve@?$vector@HV?$allocator@H@std@@@std@@IAEXI@Z 100305c0 f i libprotobuf:descriptor.obj
 0001:0002f5c0       ?_Reserve@?$vector@PBVFieldDescriptor@protobuf@google@@V?$allocator@PBVFieldDescriptor@protobuf@google@@@std@@@std@@IAEXI@Z 100305c0 f i libprotobuf:descriptor.obj
 0001:0002f5c0       ?_Reserve@?$vector@PAVParseInfoTree@TextFormat@protobuf@google@@V?$allocator@PAVParseInfoTree@TextFormat@protobuf@google@@@std@@@std@@IAEXI@Z 100305c0 f i libprotobuf:text_format.obj
 0001:0002f630       ?_Reserve@?$vector@UCheckPoint@Tables@DescriptorPool@protobuf@google@@V?$allocator@UCheckPoint@Tables@DescriptorPool@protobuf@google@@@std@@@std@@IAEXI@Z 10030630 f i libprotobuf:descriptor.obj
 0001:0002f6e0       ?_Reserve@?$vector@UOptionsToInterpret@?A0x0ecadf1d@protobuf@google@@V?$allocator@UOptionsToInterpret@?A0x0ecadf1d@protobuf@google@@@std@@@std@@IAEXI@Z 100306e0 f i libprotobuf:descriptor.obj
 0001:0002f790       ?_Rrotate@?$_Tree@V?$_Tmap_traits@U?$pair@PBXPBD@std@@PBVFieldDescriptor@protobuf@google@@UPointerStringPairHash@?A0x0ecadf1d@45@V?$allocator@U?$pair@$$CBU?$pair@PBXPBD@std@@PBVFieldDescriptor@protobuf@google@@@std@@@2@$0A@@std@@@std@@IAEXPAU?$_Tree_node@U?$pair@$$CBU?$pair@PBXPBD@std@@PBVFieldDescriptor@protobuf@google@@@std@@PAX@2@@Z 10030790 f i libprotobuf:descriptor.obj
 0001:0002f790       ?_Rrotate@?$_Tree@V?$_Tmap_traits@V?$basic_string@DU?$char_traits@D@std@@V?$allocator@D@2@@std@@U?$pair@PBXH@2@U?$less@V?$basic_string@DU?$char_traits@D@std@@V?$allocator@D@2@@std@@@2@V?$allocator@U?$pair@$$CBV?$basic_string@DU?$char_traits@D@std@@V?$allocator@D@2@@std@@U?$pair@PBXH@2@@std@@@2@$0A@@std@@@std@@IAEXPAU?$_Tree_node@U?$pair@$$CBV?$basic_string@DU?$char_traits@D@std@@V?$allocator@D@2@@std@@U?$pair@PBXH@2@@std@@PAX@2@@Z 10030790 f i libprotobuf:descriptor_database.obj
 0001:0002f790       ?_Rrotate@?$_Tree@V?$_Tset_traits@PBVFileDescriptor@protobuf@google@@U?$less@PBVFileDescriptor@protobuf@google@@@std@@V?$allocator@PBVFileDescriptor@protobuf@google@@@5@$0A@@std@@@std@@IAEXPAU?$_Tree_node@PBVFileDescriptor@protobuf@google@@PAX@2@@Z 10030790 f i libprotobuf:descriptor.obj
 0001:0002f790       ?_Rrotate@?$_Tree@V?$_Tmap_traits@V?$basic_string@DU?$char_traits@D@std@@V?$allocator@D@2@@std@@PBVSourceCodeInfo_Location@protobuf@google@@U?$hash@V?$basic_string@DU?$char_traits@D@std@@V?$allocator@D@2@@std@@@45@V?$allocator@U?$pair@$$CBV?$basic_string@DU?$char_traits@D@std@@V?$allocator@D@2@@std@@PBVSourceCodeInfo_Location@protobuf@google@@@std@@@2@$0A@@std@@@std@@IAEXPAU?$_Tree_node@U?$pair@$$CBV?$basic_string@DU?$char_traits@D@std@@V?$allocator@D@2@@std@@PBVSourceCodeInfo_Location@protobuf@google@@@std@@PAX@2@@Z 10030790 f i libprotobuf:descriptor.obj
 0001:0002f790       ?_Rrotate@?$_Tree@V?$_Tmap_traits@HUExtension@ExtensionSet@internal@protobuf@google@@U?$less@H@std@@V?$allocator@U?$pair@$$CBHUExtension@ExtensionSet@internal@protobuf@google@@@std@@@7@$0A@@std@@@std@@IAEXPAU?$_Tree_node@U?$pair@$$CBHUExtension@ExtensionSet@internal@protobuf@google@@@std@@PAX@2@@Z 10030790 f i libprotobuf:extension_set.obj
 0001:0002f790       ?_Rrotate@?$_Tree@V?$_Tmap_traits@U?$pair@PBXPBD@std@@USymbol@?A0x0ecadf1d@protobuf@google@@UPointerStringPairHash@456@V?$allocator@U?$pair@$$CBU?$pair@PBXPBD@std@@USymbol@?A0x0ecadf1d@protobuf@google@@@std@@@2@$0A@@std@@@std@@IAEXPAU?$_Tree_node@U?$pair@$$CBU?$pair@PBXPBD@std@@USymbol@?A0x0ecadf1d@protobuf@google@@@std@@PAX@2@@Z 10030790 f i libprotobuf:descriptor.obj
 0001:0002f790       ?_Rrotate@?$_Tree@V?$_Tset_traits@PBVDescriptor@protobuf@google@@U?$hash@PBVDescriptor@protobuf@google@@@23@V?$allocator@PBVDescriptor@protobuf@google@@@std@@$0A@@std@@@std@@IAEXPAU?$_Tree_node@PBVDescriptor@protobuf@google@@PAX@2@@Z 10030790 f i libprotobuf:descriptor.obj
 0001:0002f790       ?_Rrotate@?$_Tree@V?$_Tmap_traits@U?$pair@PBVDescriptor@protobuf@google@@H@std@@PBVFieldDescriptor@protobuf@google@@U?$PointerIntegerPairHash@U?$pair@PBVDescriptor@protobuf@google@@H@std@@@?A0x0ecadf1d@45@V?$allocator@U?$pair@$$CBU?$pair@PBVDescriptor@protobuf@google@@H@std@@PBVFieldDescriptor@protobuf@google@@@std@@@2@$0A@@std@@@std@@IAEXPAU?$_Tree_node@U?$pair@$$CBU?$pair@PBVDescriptor@protobuf@google@@H@std@@PBVFieldDescriptor@protobuf@google@@@std@@PAX@2@@Z 10030790 f i libprotobuf:descriptor.obj
 0001:0002f790       ?_Rrotate@?$_Tree@V?$_Tmap_traits@PBVFieldDescriptor@protobuf@google@@V?$vector@PAVParseInfoTree@TextFormat@protobuf@google@@V?$allocator@PAVParseInfoTree@TextFormat@protobuf@google@@@std@@@std@@U?$less@PBVFieldDescriptor@protobuf@google@@@5@V?$allocator@U?$pair@QBVFieldDescriptor@protobuf@google@@V?$vector@PAVParseInfoTree@TextFormat@protobuf@google@@V?$allocator@PAVParseInfoTree@TextFormat@protobuf@google@@@std@@@std@@@std@@@5@$0A@@std@@@std@@IAEXPAU?$_Tree_node@U?$pair@QBVFieldDescriptor@protobuf@google@@V?$vector@PAVParseInfoTree@TextFormat@protobuf@google@@V?$allocator@PAVParseInfoTree@TextFormat@protobuf@google@@@std@@@std@@@std@@PAX@2@@Z 10030790 f i libprotobuf:text_format.obj
 0001:0002f790       ?_Rrotate@?$_Tree@V?$_Tmap_traits@PBDUSymbol@?A0x0ecadf1d@protobuf@google@@U?$hash@PBD@34@V?$allocator@U?$pair@QBDUSymbol@?A0x0ecadf1d@protobuf@google@@@std@@@std@@$0A@@std@@@std@@IAEXPAU?$_Tree_node@U?$pair@QBDUSymbol@?A0x0ecadf1d@protobuf@google@@@std@@PAX@2@@Z 10030790 f i libprotobuf:descriptor.obj
 0001:0002f790       ?_Rrotate@?$_Tree@V?$_Tmap_traits@PBDP6AXABV?$basic_string@DU?$char_traits@D@std@@V?$allocator@D@2@@std@@@ZU?$hash@PBD@protobuf@google@@V?$allocator@U?$pair@QBDP6AXABV?$basic_string@DU?$char_traits@D@std@@V?$allocator@D@2@@std@@@Z@std@@@2@$0A@@std@@@std@@IAEXPAU?$_Tree_node@U?$pair@QBDP6AXABV?$basic_string@DU?$char_traits@D@std@@V?$allocator@D@2@@std@@@Z@std@@PAX@2@@Z 10030790 f i libprotobuf:message.obj
 0001:0002f790       ?_Rrotate@?$_Tree@V?$_Tmap_traits@PBVDescriptor@protobuf@google@@PBVMessage@23@U?$hash@PBVDescriptor@protobuf@google@@@23@V?$allocator@U?$pair@QBVDescriptor@protobuf@google@@PBVMessage@23@@std@@@std@@$0A@@std@@@std@@IAEXPAU?$_Tree_node@U?$pair@QBVDescriptor@protobuf@google@@PBVMessage@23@@std@@PAX@2@@Z 10030790 f i libprotobuf:message.obj
 0001:0002f790       ?_Rrotate@?$_Tree@V?$_Tmap_traits@U?$pair@V?$basic_string@DU?$char_traits@D@std@@V?$allocator@D@2@@std@@H@std@@U?$pair@PBXH@2@U?$less@U?$pair@V?$basic_string@DU?$char_traits@D@std@@V?$allocator@D@2@@std@@H@std@@@2@V?$allocator@U?$pair@$$CBU?$pair@V?$basic_string@DU?$char_traits@D@std@@V?$allocator@D@2@@std@@H@std@@U?$pair@PBXH@2@@std@@@2@$0A@@std@@@std@@IAEXPAU?$_Tree_node@U?$pair@$$CBU?$pair@V?$basic_string@DU?$char_traits@D@std@@V?$allocator@D@2@@std@@H@std@@U?$pair@PBXH@2@@std@@PAX@2@@Z 10030790 f i libprotobuf:descriptor_database.obj
 0001:0002f790       ?_Rrotate@?$_Tree@V?$_Tmap_traits@PBDPBVFileDescriptor@protobuf@google@@U?$hash@PBD@23@V?$allocator@U?$pair@QBDPBVFileDescriptor@protobuf@google@@@std@@@std@@$0A@@std@@@std@@IAEXPAU?$_Tree_node@U?$pair@QBDPBVFileDescriptor@protobuf@google@@@std@@PAX@2@@Z 10030790 f i libprotobuf:descriptor.obj
 0001:0002f790       ?_Rrotate@?$_Tree@V?$_Tmap_traits@PBVFieldDescriptor@protobuf@google@@V?$vector@UParseLocation@TextFormat@protobuf@google@@V?$allocator@UParseLocation@TextFormat@protobuf@google@@@std@@@std@@U?$less@PBVFieldDescriptor@protobuf@google@@@5@V?$allocator@U?$pair@QBVFieldDescriptor@protobuf@google@@V?$vector@UParseLocation@TextFormat@protobuf@google@@V?$allocator@UParseLocation@TextFormat@protobuf@google@@@std@@@std@@@std@@@5@$0A@@std@@@std@@IAEXPAU?$_Tree_node@U?$pair@QBVFieldDescriptor@protobuf@google@@V?$vector@UParseLocation@TextFormat@protobuf@google@@V?$allocator@UParseLocation@TextFormat@protobuf@google@@@std@@@std@@@std@@PAX@2@@Z 10030790 f i libprotobuf:text_format.obj
 0001:0002f790       ?_Rrotate@?$_Tree@V?$_Tmap_traits@PBVDescriptor@protobuf@google@@PBUTypeInfo@DynamicMessage@23@U?$hash@PBVDescriptor@protobuf@google@@@23@V?$allocator@U?$pair@QBVDescriptor@protobuf@google@@PBUTypeInfo@DynamicMessage@23@@std@@@std@@$0A@@std@@@std@@IAEXPAU?$_Tree_node@U?$pair@QBVDescriptor@protobuf@google@@PBUTypeInfo@DynamicMessage@23@@std@@PAX@2@@Z 10030790 f i libprotobuf:dynamic_message.obj
 0001:0002f790       ?_Rrotate@?$_Tree@V?$_Tset_traits@PBVDescriptor@protobuf@google@@U?$less@PBVDescriptor@protobuf@google@@@std@@V?$allocator@PBVDescriptor@protobuf@google@@@5@$0A@@std@@@std@@IAEXPAU?$_Tree_node@PBVDescriptor@protobuf@google@@PAX@2@@Z 10030790 f i libprotobuf:descriptor.obj
 0001:0002f790       ?_Rrotate@?$_Tree@V?$_Tmap_traits@U?$pair@PBVEnumDescriptor@protobuf@google@@H@std@@PBVEnumValueDescriptor@protobuf@google@@U?$PointerIntegerPairHash@U?$pair@PBVEnumDescriptor@protobuf@google@@H@std@@@?A0x0ecadf1d@45@V?$allocator@U?$pair@$$CBU?$pair@PBVEnumDescriptor@protobuf@google@@H@std@@PBVEnumValueDescriptor@protobuf@google@@@std@@@2@$0A@@std@@@std@@IAEXPAU?$_Tree_node@U?$pair@$$CBU?$pair@PBVEnumDescriptor@protobuf@google@@H@std@@PBVEnumValueDescriptor@protobuf@google@@@std@@PAX@2@@Z 10030790 f i libprotobuf:descriptor.obj
 0001:0002f790       ?_Rrotate@?$_Tree@V?$_Tmap_traits@U?$pair@PBVDescriptor@protobuf@google@@H@std@@PBVFieldDescriptor@protobuf@google@@U?$less@U?$pair@PBVDescriptor@protobuf@google@@H@std@@@2@V?$allocator@U?$pair@$$CBU?$pair@PBVDescriptor@protobuf@google@@H@std@@PBVFieldDescriptor@protobuf@google@@@std@@@2@$0A@@std@@@std@@IAEXPAU?$_Tree_node@U?$pair@$$CBU?$pair@PBVDescriptor@protobuf@google@@H@std@@PBVFieldDescriptor@protobuf@google@@@std@@PAX@2@@Z 10030790 f i libprotobuf:descriptor.obj
 0001:0002f790       ?_Rrotate@?$_Tree@V?$_Tset_traits@V?$basic_string@DU?$char_traits@D@std@@V?$allocator@D@2@@std@@U?$less@V?$basic_string@DU?$char_traits@D@std@@V?$allocator@D@2@@std@@@2@V?$allocator@V?$basic_string@DU?$char_traits@D@std@@V?$allocator@D@2@@std@@@2@$0A@@std@@@std@@IAEXPAU?$_Tree_node@V?$basic_string@DU?$char_traits@D@std@@V?$allocator@D@2@@std@@PAX@2@@Z 10030790 f i libprotobuf:descriptor.obj
 0001:0002f790       ?_Rrotate@?$_Tree@V?$_Tset_traits@V?$basic_string@DU?$char_traits@D@std@@V?$allocator@D@2@@std@@U?$hash@V?$basic_string@DU?$char_traits@D@std@@V?$allocator@D@2@@std@@@protobuf@google@@V?$allocator@V?$basic_string@DU?$char_traits@D@std@@V?$allocator@D@2@@std@@@2@$0A@@std@@@std@@IAEXPAU?$_Tree_node@V?$basic_string@DU?$char_traits@D@std@@V?$allocator@D@2@@std@@PAX@2@@Z 10030790 f i libprotobuf:descriptor.obj
 0001:0002f790       ?_Rrotate@?$_Tree@V?$_Tmap_traits@PBVFieldDescriptor@protobuf@google@@PBVFieldValuePrinter@TextFormat@23@U?$less@PBVFieldDescriptor@protobuf@google@@@std@@V?$allocator@U?$pair@QBVFieldDescriptor@protobuf@google@@PBVFieldValuePrinter@TextFormat@23@@std@@@7@$0A@@std@@@std@@IAEXPAU?$_Tree_node@U?$pair@QBVFieldDescriptor@protobuf@google@@PBVFieldValuePrinter@TextFormat@23@@std@@PAX@2@@Z 10030790 f i libprotobuf:text_format.obj
 0001:0002f790       ?_Rrotate@?$_Tree@V?$_Tmap_traits@HV?$basic_string@DU?$char_traits@D@std@@V?$allocator@D@2@@std@@U?$less@H@2@V?$allocator@U?$pair@$$CBHV?$basic_string@DU?$char_traits@D@std@@V?$allocator@D@2@@std@@@std@@@2@$0A@@std@@@std@@IAEXPAU?$_Tree_node@U?$pair@$$CBHV?$basic_string@DU?$char_traits@D@std@@V?$allocator@D@2@@std@@@std@@PAX@2@@Z 10030790 f i libprotobuf:descriptor.obj
 0001:0002f790       ?_Rrotate@?$_Tree@V?$_Tset_traits@HU?$less@H@std@@V?$allocator@H@2@$0A@@std@@@std@@IAEXPAU?$_Tree_node@HPAX@2@@Z 10030790 f i libprotobuf:descriptor.obj
 0001:0002f7f0       ?_Tidy@?$vector@U?$pair@PBVDescriptor@protobuf@google@@H@std@@V?$allocator@U?$pair@PBVDescriptor@protobuf@google@@H@std@@@2@@std@@IAEXXZ 100307f0 f i libprotobuf:descriptor.obj
 0001:0002f820       ?allocate@?$allocator@PBD@std@@QAEPAPBDI@Z 10030820 f i libprotobuf:descriptor.obj
 0001:0002f820       ?allocate@?$allocator@PAV?$basic_string@DU?$char_traits@D@std@@V?$allocator@D@2@@std@@@std@@QAEPAPAV?$basic_string@DU?$char_traits@D@std@@V?$allocator@D@2@@2@I@Z 10030820 f i libprotobuf:descriptor.obj
 0001:0002f820       ?allocate@?$allocator@PBVFieldDescriptor@protobuf@google@@@std@@QAEPAPBVFieldDescriptor@protobuf@google@@I@Z 10030820 f i libprotobuf:descriptor.obj
 0001:0002f820       ?allocate@?$allocator@PAVMessage@protobuf@google@@@std@@QAEPAPAVMessage@protobuf@google@@I@Z 10030820 f i libprotobuf:descriptor.obj
 0001:0002f820       ?allocate@?$allocator@PAVFileDescriptorTables@protobuf@google@@@std@@QAEPAPAVFileDescriptorTables@protobuf@google@@I@Z 10030820 f i libprotobuf:descriptor.obj
 0001:0002f820       ?allocate@?$allocator@PAVParseInfoTree@TextFormat@protobuf@google@@@std@@QAEPAPAVParseInfoTree@TextFormat@protobuf@google@@I@Z 10030820 f i libprotobuf:text_format.obj
 0001:0002f820       ?allocate@?$allocator@H@std@@QAEPAHI@Z 10030820 f i libprotobuf:descriptor.obj
 0001:0002f820       ?allocate@?$allocator@P6AXXZ@std@@QAEPAP6AXXZI@Z 10030820 f i libprotobuf:common.obj
 0001:0002f820       ?allocate@?$allocator@PAX@std@@QAEPAPAXI@Z 10030820 f i libprotobuf:descriptor.obj
 0001:0002f890       ?allocate@?$allocator@UCheckPoint@Tables@DescriptorPool@protobuf@google@@@std@@QAEPAUCheckPoint@Tables@DescriptorPool@protobuf@google@@I@Z 10030890 f i libprotobuf:descriptor.obj
 0001:0002f910       ?allocate@?$allocator@UOptionsToInterpret@?A0x0ecadf1d@protobuf@google@@@std@@QAEPAUOptionsToInterpret@?A0x0ecadf1d@protobuf@google@@I@Z 10030910 f i libprotobuf:descriptor.obj
 0001:0002f990       ?assign@?$basic_string@DU?$char_traits@D@std@@V?$allocator@D@2@@std@@QAEAAV12@ID@Z 10030990 f i libprotobuf:descriptor.obj
 0001:0002fa60       ?compare@?$basic_string@DU?$char_traits@D@std@@V?$allocator@D@2@@std@@QBEHIIPBDI@Z 10030a60 f i libprotobuf:descriptor.obj
 0001:0002fad0       ?compare@?$char_traits@D@std@@SAHPBD0I@Z 10030ad0 f i libprotobuf:descriptor.obj
 0001:0002fb40       ?deallocate@?$_Wrap_alloc@V?$allocator@PBVFieldDescriptor@protobuf@google@@@std@@@std@@QAEXPAPBVFieldDescriptor@protobuf@google@@I@Z 10030b40 f i libprotobuf:descriptor.obj
 0001:0002fb40       ?deallocate@?$_Wrap_alloc@V?$allocator@PAVMessage@protobuf@google@@@std@@@std@@QAEXPAPAVMessage@protobuf@google@@I@Z 10030b40 f i libprotobuf:descriptor.obj
 0001:0002fb40       ?deallocate@?$_Wrap_alloc@V?$allocator@PAX@std@@@std@@QAEXPAPAXI@Z 10030b40 f i libprotobuf:descriptor.obj
 0001:0002fb40       ?deallocate@?$_Wrap_alloc@V?$allocator@PAVFileDescriptorTables@protobuf@google@@@std@@@std@@QAEXPAPAVFileDescriptorTables@protobuf@google@@I@Z 10030b40 f i libprotobuf:descriptor.obj
 0001:0002fb40       ?deallocate@?$_Wrap_alloc@V?$allocator@PAV?$basic_string@DU?$char_traits@D@std@@V?$allocator@D@2@@std@@@std@@@std@@QAEXPAPAV?$basic_string@DU?$char_traits@D@std@@V?$allocator@D@2@@2@I@Z 10030b40 f i libprotobuf:descriptor.obj
 0001:0002fb40       ?deallocate@?$_Wrap_alloc@V?$allocator@H@std@@@std@@QAEXPAHI@Z 10030b40 f i libprotobuf:descriptor.obj
 0001:0002fb40       ?deallocate@?$_Wrap_alloc@V?$allocator@P6AXXZ@std@@@std@@QAEXPAP6AXXZI@Z 10030b40 f i libprotobuf:common.obj
 0001:0002fb40       ?deallocate@?$_Wrap_alloc@V?$allocator@PAVParseInfoTree@TextFormat@protobuf@google@@@std@@@std@@QAEXPAPAVParseInfoTree@TextFormat@protobuf@google@@I@Z 10030b40 f i libprotobuf:text_format.obj
 0001:0002fb40       ?deallocate@?$_Wrap_alloc@V?$allocator@PBD@std@@@std@@QAEXPAPBDI@Z 10030b40 f i libprotobuf:descriptor.obj
 0001:0002fba0       ?deallocate@?$allocator@U?$_Tree_node@HPAX@std@@@std@@QAEXPAU?$_Tree_node@HPAX@2@I@Z 10030ba0 f i libprotobuf:descriptor.obj
 0001:0002fc00       ?deallocate@?$allocator@U?$_Tree_node@V?$basic_string@DU?$char_traits@D@std@@V?$allocator@D@2@@std@@PAX@std@@@std@@QAEXPAU?$_Tree_node@V?$basic_string@DU?$char_traits@D@std@@V?$allocator@D@2@@std@@PAX@2@I@Z 10030c00 f i libprotobuf:descriptor.obj
 0001:0002fc60       ?erase@?$_Tree@V?$_Tmap_traits@HV?$basic_string@DU?$char_traits@D@std@@V?$allocator@D@2@@std@@U?$less@H@2@V?$allocator@U?$pair@$$CBHV?$basic_string@DU?$char_traits@D@std@@V?$allocator@D@2@@std@@@std@@@2@$0A@@std@@@std@@QAE?AV?$_Tree_iterator@V?$_Tree_val@U?$_Tree_simple_types@U?$pair@$$CBHV?$basic_string@DU?$char_traits@D@std@@V?$allocator@D@2@@std@@@std@@@std@@@std@@@2@V?$_Tree_const_iterator@V?$_Tree_val@U?$_Tree_simple_types@U?$pair@$$CBHV?$basic_string@DU?$char_traits@D@std@@V?$allocator@D@2@@std@@@std@@@std@@@std@@@2@0@Z 10030c60 f i libprotobuf:descriptor.obj
 0001:0002fd50       ?erase@?$_Tree@V?$_Tmap_traits@HV?$basic_string@DU?$char_traits@D@std@@V?$allocator@D@2@@std@@U?$less@H@2@V?$allocator@U?$pair@$$CBHV?$basic_string@DU?$char_traits@D@std@@V?$allocator@D@2@@std@@@std@@@2@$0A@@std@@@std@@QAE?AV?$_Tree_iterator@V?$_Tree_val@U?$_Tree_simple_types@U?$pair@$$CBHV?$basic_string@DU?$char_traits@D@std@@V?$allocator@D@2@@std@@@std@@@std@@@std@@@2@V?$_Tree_const_iterator@V?$_Tree_val@U?$_Tree_simple_types@U?$pair@$$CBHV?$basic_string@DU?$char_traits@D@std@@V?$allocator@D@2@@std@@@std@@@std@@@std@@@2@@Z 10030d50 f i libprotobuf:descriptor.obj
 0001:00030030       ?erase@?$_Tree@V?$_Tset_traits@V?$basic_string@DU?$char_traits@D@std@@V?$allocator@D@2@@std@@U?$hash@V?$basic_string@DU?$char_traits@D@std@@V?$allocator@D@2@@std@@@protobuf@google@@V?$allocator@V?$basic_string@DU?$char_traits@D@std@@V?$allocator@D@2@@std@@@2@$0A@@std@@@std@@QAE?AV?$_Tree_const_iterator@V?$_Tree_val@U?$_Tree_simple_types@V?$basic_string@DU?$char_traits@D@std@@V?$allocator@D@2@@std@@@std@@@std@@@2@V32@0@Z 10031030 f i libprotobuf:descriptor.obj
 0001:00030030       ?erase@?$_Tree@V?$_Tset_traits@V?$basic_string@DU?$char_traits@D@std@@V?$allocator@D@2@@std@@U?$less@V?$basic_string@DU?$char_traits@D@std@@V?$allocator@D@2@@std@@@2@V?$allocator@V?$basic_string@DU?$char_traits@D@std@@V?$allocator@D@2@@std@@@2@$0A@@std@@@std@@QAE?AV?$_Tree_const_iterator@V?$_Tree_val@U?$_Tree_simple_types@V?$basic_string@DU?$char_traits@D@std@@V?$allocator@D@2@@std@@@std@@@std@@@2@V32@0@Z 10031030 f i libprotobuf:descriptor.obj
 0001:00030120       ?field_count@UnknownFieldSet@protobuf@google@@QBEHXZ 10031120 f i libprotobuf:descriptor.obj
 0001:00030140       ?find@?$_Tree@V?$_Tmap_traits@HUExtension@ExtensionSet@internal@protobuf@google@@U?$less@H@std@@V?$allocator@U?$pair@$$CBHUExtension@ExtensionSet@internal@protobuf@google@@@std@@@7@$0A@@std@@@std@@QAE?AV?$_Tree_iterator@V?$_Tree_val@U?$_Tree_simple_types@U?$pair@$$CBHUExtension@ExtensionSet@internal@protobuf@google@@@std@@@std@@@std@@@2@ABH@Z 10031140 f i libprotobuf:extension_set.obj
 0001:00030140       ?find@?$_Tree@V?$_Tset_traits@HU?$less@H@std@@V?$allocator@H@2@$0A@@std@@@std@@QAE?AV?$_Tree_const_iterator@V?$_Tree_val@U?$_Tree_simple_types@H@std@@@std@@@2@ABH@Z 10031140 f i libprotobuf:descriptor.obj
 0001:00030190       ?find@?$_Tree@V?$_Tset_traits@V?$basic_string@DU?$char_traits@D@std@@V?$allocator@D@2@@std@@U?$less@V?$basic_string@DU?$char_traits@D@std@@V?$allocator@D@2@@std@@@2@V?$allocator@V?$basic_string@DU?$char_traits@D@std@@V?$allocator@D@2@@std@@@2@$0A@@std@@@std@@QBE?AV?$_Tree_const_iterator@V?$_Tree_val@U?$_Tree_simple_types@V?$basic_string@DU?$char_traits@D@std@@V?$allocator@D@2@@std@@@std@@@std@@@2@ABV?$basic_string@DU?$char_traits@D@std@@V?$allocator@D@2@@2@@Z 10031190 f i libprotobuf:descriptor.obj
 0001:00030220       ?find@?$basic_string@DU?$char_traits@D@std@@V?$allocator@D@2@@std@@QBEIPBDII@Z 10031220 f i libprotobuf:descriptor.obj
 0001:000302c0       ?generated_pool@DescriptorPool@protobuf@google@@SAPBV123@XZ 100312c0 f   libprotobuf:descriptor.obj
 0001:00030340       ?insert@?$basic_string@DU?$char_traits@D@std@@V?$allocator@D@2@@std@@QAEAAV12@IABV12@II@Z 10031340 f i libprotobuf:descriptor.obj
 0001:00030470       ?insert@?$basic_string@DU?$char_traits@D@std@@V?$allocator@D@2@@std@@QAEAAV12@IID@Z 10031470 f i libprotobuf:descriptor.obj
 0001:00030580       ?insert@?$basic_string@DU?$char_traits@D@std@@V?$allocator@D@2@@std@@QAEAAV12@IPBDI@Z 10031580 f i libprotobuf:descriptor.obj
 0001:00030690       ?is_packed@FieldDescriptor@protobuf@google@@QBE_NXZ 10031690 f   libprotobuf:descriptor.obj
 0001:000306c0       ?push_back@?$vector@P6AXXZV?$allocator@P6AXXZ@std@@@std@@QAEXABQ6AXXZ@Z 100316c0 f i libprotobuf:common.obj
 0001:000306c0       ?push_back@?$vector@PAVMessage@protobuf@google@@V?$allocator@PAVMessage@protobuf@google@@@std@@@std@@QAEXABQAVMessage@protobuf@google@@@Z 100316c0 f i libprotobuf:descriptor.obj
 0001:000306c0       ?push_back@?$vector@PBVFieldDescriptor@protobuf@google@@V?$allocator@PBVFieldDescriptor@protobuf@google@@@std@@@std@@QAEXABQBVFieldDescriptor@protobuf@google@@@Z 100316c0 f i libprotobuf:descriptor.obj
 0001:000306c0       ?push_back@?$vector@PBDV?$allocator@PBD@std@@@std@@QAEX$$QAPBD@Z 100316c0 f i libprotobuf:descriptor.obj
 0001:000306c0       ?push_back@?$vector@PAXV?$allocator@PAX@std@@@std@@QAEXABQAX@Z 100316c0 f i libprotobuf:descriptor.obj
 0001:000306c0       ?push_back@?$vector@PAVFileDescriptorTables@protobuf@google@@V?$allocator@PAVFileDescriptorTables@protobuf@google@@@std@@@std@@QAEXABQAVFileDescriptorTables@protobuf@google@@@Z 100316c0 f i libprotobuf:descriptor.obj
 0001:000306c0       ?push_back@?$vector@PAVParseInfoTree@TextFormat@protobuf@google@@V?$allocator@PAVParseInfoTree@TextFormat@protobuf@google@@@std@@@std@@QAEXABQAVParseInfoTree@TextFormat@protobuf@google@@@Z 100316c0 f i libprotobuf:text_format.obj
 0001:000306c0       ?push_back@?$vector@PAV?$basic_string@DU?$char_traits@D@std@@V?$allocator@D@2@@std@@V?$allocator@PAV?$basic_string@DU?$char_traits@D@std@@V?$allocator@D@2@@std@@@2@@std@@QAEXABQAV?$basic_string@DU?$char_traits@D@std@@V?$allocator@D@2@@2@@Z 100316c0 f i libprotobuf:descriptor.obj
 0001:00030730       ?push_back@?$vector@UCheckPoint@Tables@DescriptorPool@protobuf@google@@V?$allocator@UCheckPoint@Tables@DescriptorPool@protobuf@google@@@std@@@std@@QAEX$$QAUCheckPoint@Tables@DescriptorPool@protobuf@google@@@Z 10031730 f i libprotobuf:descriptor.obj
 0001:000307e0       ?push_back@?$vector@UOptionsToInterpret@?A0x0ecadf1d@protobuf@google@@V?$allocator@UOptionsToInterpret@?A0x0ecadf1d@protobuf@google@@@std@@@std@@QAEX$$QAUOptionsToInterpret@?A0x0ecadf1d@protobuf@google@@@Z 100317e0 f i libprotobuf:descriptor.obj
 0001:00030860       ?push_back@?$vector@V?$basic_string@DU?$char_traits@D@std@@V?$allocator@D@2@@std@@V?$allocator@V?$basic_string@DU?$char_traits@D@std@@V?$allocator@D@2@@std@@@2@@std@@QAEX$$QAV?$basic_string@DU?$char_traits@D@std@@V?$allocator@D@2@@2@@Z 10031860 f i libprotobuf:descriptor.obj
 0001:000308e0       ?resize@?$basic_string@DU?$char_traits@D@std@@V?$allocator@D@2@@std@@QAEXI@Z 100318e0 f i libprotobuf:descriptor.obj
 0001:00030910       ?resize@?$vector@PAVMessage@protobuf@google@@V?$allocator@PAVMessage@protobuf@google@@@std@@@std@@QAEXI@Z 10031910 f i libprotobuf:descriptor.obj
 0001:00030910       ?resize@?$vector@PAXV?$allocator@PAX@std@@@std@@QAEXI@Z 10031910 f i libprotobuf:descriptor.obj
 0001:00030910       ?resize@?$vector@PAVFileDescriptorTables@protobuf@google@@V?$allocator@PAVFileDescriptorTables@protobuf@google@@@std@@@std@@QAEXI@Z 10031910 f i libprotobuf:descriptor.obj
 0001:00030910       ?resize@?$vector@PBDV?$allocator@PBD@std@@@std@@QAEXI@Z 10031910 f i libprotobuf:descriptor.obj
 0001:00030910       ?resize@?$vector@PAV?$basic_string@DU?$char_traits@D@std@@V?$allocator@D@2@@std@@V?$allocator@PAV?$basic_string@DU?$char_traits@D@std@@V?$allocator@D@2@@std@@@2@@std@@QAEXI@Z 10031910 f i libprotobuf:descriptor.obj
 0001:00030970       ?resize@?$vector@U?$pair@PBVDescriptor@protobuf@google@@H@std@@V?$allocator@U?$pair@PBVDescriptor@protobuf@google@@H@std@@@2@@std@@QAEXI@Z 10031970 f i libprotobuf:descriptor.obj
 0001:00030a40       ?rfind@?$basic_string@DU?$char_traits@D@std@@V?$allocator@D@2@@std@@QBEIPBDII@Z 10031a40 f i libprotobuf:descriptor.obj
 0001:00030ad0       ?set_extendee@FieldDescriptorProto@protobuf@google@@QAEXPBD@Z 10031ad0 f i libprotobuf:descriptor.obj
 0001:00030b50       ?set_input_type@MethodDescriptorProto@protobuf@google@@QAEXPBD@Z 10031b50 f i libprotobuf:descriptor.obj
 0001:00030bd0       ?set_output_type@MethodDescriptorProto@protobuf@google@@QAEXPBD@Z 10031bd0 f i libprotobuf:descriptor.obj
 0001:00030c50       ?set_type_name@FieldDescriptorProto@protobuf@google@@QAEXPBD@Z 10031c50 f i libprotobuf:descriptor.obj
 0001:00030cd0       ?substr@?$basic_string@DU?$char_traits@D@std@@V?$allocator@D@2@@std@@QBE?AV12@II@Z 10031cd0 f i libprotobuf:descriptor.obj
 0001:00030d10       ?GoogleOnceInitImpl@protobuf@google@@YAXPAHPAVClosure@12@@Z 10031d10 f   libprotobuf:once.obj
 0001:00030d60       ?DeleteEmptyString@internal@protobuf@google@@YAXXZ 10031d60 f   libprotobuf:generated_message_util.obj
 0001:00030dc0       ?InitEmptyString@internal@protobuf@google@@YAXXZ 10031dc0 f   libprotobuf:generated_message_util.obj
 0001:00030e10       ??$FindPtrOrNull@V?$hash_map@PBDP6AXABV?$basic_string@DU?$char_traits@D@std@@V?$allocator@D@2@@std@@@ZU?$hash@PBD@protobuf@google@@Ustreq@45@@protobuf@google@@@protobuf@google@@YAP6AXABV?$basic_string@DU?$char_traits@D@std@@V?$allocator@D@2@@std@@@ZAAV?$hash_map@PBDP6AXABV?$basic_string@DU?$char_traits@D@std@@V?$allocator@D@2@@std@@@ZU?$hash@PBD@protobuf@google@@Ustreq@45@@01@ABQBD@Z 10031e10 f i libprotobuf:message.obj
 0001:00030e70       ??$FindPtrOrNull@V?$hash_map@PBVDescriptor@protobuf@google@@PBVMessage@23@U?$hash@PBVDescriptor@protobuf@google@@@23@H@protobuf@google@@@protobuf@google@@YAPBVMessage@01@AAV?$hash_map@PBVDescriptor@protobuf@google@@PBVMessage@23@U?$hash@PBVDescriptor@protobuf@google@@@23@H@01@ABQBVDescriptor@01@@Z 10031e70 f i libprotobuf:message.obj
 0001:00030ec0       ??$_Buynode@ABU?$pair@QBDPBVFileDescriptor@protobuf@google@@@std@@@?$_Tree_comp_alloc@V?$_Tmap_traits@PBDPBVFileDescriptor@protobuf@google@@U?$hash@PBD@23@V?$allocator@U?$pair@QBDPBVFileDescriptor@protobuf@google@@@std@@@std@@$0A@@std@@@std@@QAEPAU?$_Tree_node@U?$pair@QBDPBVFileDescriptor@protobuf@google@@@std@@PAX@1@ABU?$pair@QBDPBVFileDescriptor@protobuf@google@@@1@@Z 10031ec0 f i libprotobuf:descriptor.obj
 0001:00030ec0       ??$_Buynode@ABU?$pair@QBVDescriptor@protobuf@google@@PBVMessage@23@@std@@@?$_Tree_comp_alloc@V?$_Tmap_traits@PBVDescriptor@protobuf@google@@PBVMessage@23@U?$hash@PBVDescriptor@protobuf@google@@@23@V?$allocator@U?$pair@QBVDescriptor@protobuf@google@@PBVMessage@23@@std@@@std@@$0A@@std@@@std@@QAEPAU?$_Tree_node@U?$pair@QBVDescriptor@protobuf@google@@PBVMessage@23@@std@@PAX@1@ABU?$pair@QBVDescriptor@protobuf@google@@PBVMessage@23@@1@@Z 10031ec0 f i libprotobuf:message.obj
 0001:00030ec0       ??$_Buynode@ABU?$pair@QBDP6AXABV?$basic_string@DU?$char_traits@D@std@@V?$allocator@D@2@@std@@@Z@std@@@?$_Tree_comp_alloc@V?$_Tmap_traits@PBDP6AXABV?$basic_string@DU?$char_traits@D@std@@V?$allocator@D@2@@std@@@ZU?$hash@PBD@protobuf@google@@V?$allocator@U?$pair@QBDP6AXABV?$basic_string@DU?$char_traits@D@std@@V?$allocator@D@2@@std@@@Z@std@@@2@$0A@@std@@@std@@QAEPAU?$_Tree_node@U?$pair@QBDP6AXABV?$basic_string@DU?$char_traits@D@std@@V?$allocator@D@2@@std@@@Z@std@@PAX@1@ABU?$pair@QBDP6AXABV?$basic_string@DU?$char_traits@D@std@@V?$allocator@D@2@@std@@@Z@1@@Z 10031ec0 f i libprotobuf:message.obj
 0001:00030ef0       ??$_Insert_at@ABU?$pair@QBDPBVFileDescriptor@protobuf@google@@@std@@U_Nil@2@@?$_Tree@V?$_Tmap_traits@PBDPBVFileDescriptor@protobuf@google@@U?$hash@PBD@23@V?$allocator@U?$pair@QBDPBVFileDescriptor@protobuf@google@@@std@@@std@@$0A@@std@@@std@@IAE?AV?$_Tree_iterator@V?$_Tree_val@U?$_Tree_simple_types@U?$pair@QBDPBVFileDescriptor@protobuf@google@@@std@@@std@@@std@@@1@_NPAU?$_Tree_node@U?$pair@QBDPBVFileDescriptor@protobuf@google@@@std@@PAX@1@ABU?$pair@QBDPBVFileDescriptor@protobuf@google@@@1@U_Nil@1@@Z 10031ef0 f i libprotobuf:descriptor.obj
 0001:00030ef0       ??$_Insert_at@ABU?$pair@QBVDescriptor@protobuf@google@@PBVMessage@23@@std@@U_Nil@2@@?$_Tree@V?$_Tmap_traits@PBVDescriptor@protobuf@google@@PBVMessage@23@U?$hash@PBVDescriptor@protobuf@google@@@23@V?$allocator@U?$pair@QBVDescriptor@protobuf@google@@PBVMessage@23@@std@@@std@@$0A@@std@@@std@@IAE?AV?$_Tree_iterator@V?$_Tree_val@U?$_Tree_simple_types@U?$pair@QBVDescriptor@protobuf@google@@PBVMessage@23@@std@@@std@@@std@@@1@_NPAU?$_Tree_node@U?$pair@QBVDescriptor@protobuf@google@@PBVMessage@23@@std@@PAX@1@ABU?$pair@QBVDescriptor@protobuf@google@@PBVMessage@23@@1@U_Nil@1@@Z 10031ef0 f i libprotobuf:message.obj
 0001:00030ef0       ??$_Insert_at@ABU?$pair@QBDP6AXABV?$basic_string@DU?$char_traits@D@std@@V?$allocator@D@2@@std@@@Z@std@@U_Nil@2@@?$_Tree@V?$_Tmap_traits@PBDP6AXABV?$basic_string@DU?$char_traits@D@std@@V?$allocator@D@2@@std@@@ZU?$hash@PBD@protobuf@google@@V?$allocator@U?$pair@QBDP6AXABV?$basic_string@DU?$char_traits@D@std@@V?$allocator@D@2@@std@@@Z@std@@@2@$0A@@std@@@std@@IAE?AV?$_Tree_iterator@V?$_Tree_val@U?$_Tree_simple_types@U?$pair@QBDP6AXABV?$basic_string@DU?$char_traits@D@std@@V?$allocator@D@2@@std@@@Z@std@@@std@@@std@@@1@_NPAU?$_Tree_node@U?$pair@QBDP6AXABV?$basic_string@DU?$char_traits@D@std@@V?$allocator@D@2@@std@@@Z@std@@PAX@1@ABU?$pair@QBDP6AXABV?$basic_string@DU?$char_traits@D@std@@V?$allocator@D@2@@std@@@Z@1@U_Nil@1@@Z 10031ef0 f i libprotobuf:message.obj
 0001:00031090       ??$_Insert_nohint@ABU?$pair@QBVDescriptor@protobuf@google@@PBVMessage@23@@std@@U_Nil@2@@?$_Tree@V?$_Tmap_traits@PBVDescriptor@protobuf@google@@PBVMessage@23@U?$hash@PBVDescriptor@protobuf@google@@@23@V?$allocator@U?$pair@QBVDescriptor@protobuf@google@@PBVMessage@23@@std@@@std@@$0A@@std@@@std@@IAE?AU?$pair@V?$_Tree_iterator@V?$_Tree_val@U?$_Tree_simple_types@U?$pair@QBVDescriptor@protobuf@google@@PBVMessage@23@@std@@@std@@@std@@@std@@_N@1@_NABU?$pair@QBVDescriptor@protobuf@google@@PBVMessage@23@@1@U_Nil@1@@Z 10032090 f i libprotobuf:message.obj
 0001:00031240       ??1?$hash_map@PBDPBVFileDescriptor@protobuf@google@@U?$hash@PBD@23@Ustreq@23@@protobuf@google@@QAE@XZ 10032240 f i libprotobuf:descriptor.obj
 0001:00031240       ??1?$hash_map@U?$pair@PBXPBD@std@@PBVFieldDescriptor@protobuf@google@@UPointerStringPairHash@?A0x0ecadf1d@45@UPointerStringPairEqual@745@@protobuf@google@@QAE@XZ 10032240 f i libprotobuf:descriptor.obj
 0001:00031240       ??1?$hash_map@U?$pair@PBXPBD@std@@USymbol@?A0x0ecadf1d@protobuf@google@@UPointerStringPairHash@456@UPointerStringPairEqual@456@@protobuf@google@@QAE@XZ 10032240 f i libprotobuf:descriptor.obj
 0001:00031240       ??1?$hash_map@U?$pair@PBVEnumDescriptor@protobuf@google@@H@std@@PBVEnumValueDescriptor@protobuf@google@@U?$PointerIntegerPairHash@U?$pair@PBVEnumDescriptor@protobuf@google@@H@std@@@?A0x0ecadf1d@45@H@protobuf@google@@QAE@XZ 10032240 f i libprotobuf:descriptor.obj
 0001:00031240       ??1?$hash_map@U?$pair@PBVDescriptor@protobuf@google@@H@std@@PBVFieldDescriptor@protobuf@google@@U?$PointerIntegerPairHash@U?$pair@PBVDescriptor@protobuf@google@@H@std@@@?A0x0ecadf1d@45@H@protobuf@google@@QAE@XZ 10032240 f i libprotobuf:descriptor.obj
 0001:00031240       ??1?$map@PBVFieldDescriptor@protobuf@google@@PBVFieldValuePrinter@TextFormat@23@U?$less@PBVFieldDescriptor@protobuf@google@@@std@@V?$allocator@U?$pair@QBVFieldDescriptor@protobuf@google@@PBVFieldValuePrinter@TextFormat@23@@std@@@7@@std@@QAE@XZ 10032240 f i libprotobuf:text_format.obj
 0001:00031240       ??1?$set@PBVFileDescriptor@protobuf@google@@U?$less@PBVFileDescriptor@protobuf@google@@@std@@V?$allocator@PBVFileDescriptor@protobuf@google@@@5@@std@@QAE@XZ 10032240 f i libprotobuf:descriptor.obj
 0001:00031240       ??1?$hash_map@PBDP6AXABV?$basic_string@DU?$char_traits@D@std@@V?$allocator@D@2@@std@@@ZU?$hash@PBD@protobuf@google@@Ustreq@45@@protobuf@google@@QAE@XZ 10032240 f i libprotobuf:message.obj
 0001:00031240       ??1?$set@PBVDescriptor@protobuf@google@@U?$less@PBVDescriptor@protobuf@google@@@std@@V?$allocator@PBVDescriptor@protobuf@google@@@5@@std@@QAE@XZ 10032240 f i libprotobuf:descriptor.obj
 0001:00031240       ??1?$hash_set@PBVDescriptor@protobuf@google@@U?$hash@PBVDescriptor@protobuf@google@@@23@H@protobuf@google@@QAE@XZ 10032240 f i libprotobuf:descriptor.obj
 0001:00031240       ??1?$hash_map@PBDUSymbol@?A0x0ecadf1d@protobuf@google@@U?$hash@PBD@34@Ustreq@34@@protobuf@google@@QAE@XZ 10032240 f i libprotobuf:descriptor.obj
 0001:00031240       ??1?$set@HU?$less@H@std@@V?$allocator@H@2@@std@@QAE@XZ 10032240 f i libprotobuf:descriptor.obj
 0001:00031270       ??1Message@protobuf@google@@UAE@XZ 10032270 f   libprotobuf:message.obj
 0001:00031280       ??1MessageFactory@protobuf@google@@UAE@XZ 10032280 f   libprotobuf:message.obj
 0001:00031290       ??1Reflection@protobuf@google@@UAE@XZ 10032290 f   libprotobuf:message.obj
 0001:000312a0       ??E?$_Tree_unchecked_const_iterator@V?$_Tree_val@U?$_Tree_simple_types@U?$pair@QBVDescriptor@protobuf@google@@PBUTypeInfo@DynamicMessage@23@@std@@@std@@@std@@U_Iterator_base0@2@@std@@QAEAAV01@XZ 100322a0 f i libprotobuf:dynamic_message.obj
 0001:000312a0       ??E?$_Tree_unchecked_const_iterator@V?$_Tree_val@U?$_Tree_simple_types@U?$pair@$$CBV?$basic_string@DU?$char_traits@D@std@@V?$allocator@D@2@@std@@U?$pair@PBXH@2@@std@@@std@@@std@@U_Iterator_base0@2@@std@@QAEAAV01@XZ 100322a0 f i libprotobuf:descriptor_database.obj
 0001:000312a0       ??E?$_Tree_unchecked_const_iterator@V?$_Tree_val@U?$_Tree_simple_types@U?$pair@$$CBU?$pair@V?$basic_string@DU?$char_traits@D@std@@V?$allocator@D@2@@std@@H@std@@U?$pair@PBXH@2@@std@@@std@@@std@@U_Iterator_base0@2@@std@@QAEAAV01@XZ 100322a0 f i libprotobuf:descriptor_database.obj
 0001:000312a0       ??E?$_Tree_unchecked_const_iterator@V?$_Tree_val@U?$_Tree_simple_types@U?$pair@QBVDescriptor@protobuf@google@@PBVMessage@23@@std@@@std@@@std@@U_Iterator_base0@2@@std@@QAEAAV01@XZ 100322a0 f i libprotobuf:message.obj
 0001:000312a0       ??E?$_Tree_unchecked_const_iterator@V?$_Tree_val@U?$_Tree_simple_types@U?$pair@$$CBU?$pair@PBVEnumDescriptor@protobuf@google@@H@std@@PBVEnumValueDescriptor@protobuf@google@@@std@@@std@@@std@@U_Iterator_base0@2@@std@@QAEAAV01@XZ 100322a0 f i libprotobuf:descriptor.obj
 0001:000312a0       ??E?$_Tree_unchecked_const_iterator@V?$_Tree_val@U?$_Tree_simple_types@U?$pair@$$CBU?$pair@PBVDescriptor@protobuf@google@@H@std@@PBVFieldDescriptor@protobuf@google@@@std@@@std@@@std@@U_Iterator_base0@2@@std@@QAEAAV01@XZ 100322a0 f i libprotobuf:descriptor.obj
 0001:000312a0       ??E?$_Tree_unchecked_const_iterator@V?$_Tree_val@U?$_Tree_simple_types@U?$pair@QBDUSymbol@?A0x0ecadf1d@protobuf@google@@@std@@@std@@@std@@U_Iterator_base0@2@@std@@QAEAAV01@XZ 100322a0 f i libprotobuf:descriptor.obj
 0001:000312a0       ??E?$_Tree_unchecked_const_iterator@V?$_Tree_val@U?$_Tree_simple_types@U?$pair@QBDPBVFileDescriptor@protobuf@google@@@std@@@std@@@std@@U_Iterator_base0@2@@std@@QAEAAV01@XZ 100322a0 f i libprotobuf:descriptor.obj
 0001:000312a0       ??E?$_Tree_unchecked_const_iterator@V?$_Tree_val@U?$_Tree_simple_types@U?$pair@QBVFieldDescriptor@protobuf@google@@V?$vector@UParseLocation@TextFormat@protobuf@google@@V?$allocator@UParseLocation@TextFormat@protobuf@google@@@std@@@std@@@std@@@std@@@std@@U_Iterator_base0@2@@std@@QAEAAV01@XZ 100322a0 f i libprotobuf:text_format.obj
 0001:000312a0       ??E?$_Tree_unchecked_const_iterator@V?$_Tree_val@U?$_Tree_simple_types@U?$pair@$$CBU?$pair@PBXPBD@std@@USymbol@?A0x0ecadf1d@protobuf@google@@@std@@@std@@@std@@U_Iterator_base0@2@@std@@QAEAAV01@XZ 100322a0 f i libprotobuf:descriptor.obj
 0001:000312a0       ??E?$_Tree_unchecked_const_iterator@V?$_Tree_val@U?$_Tree_simple_types@U?$pair@$$CBV?$basic_string@DU?$char_traits@D@std@@V?$allocator@D@2@@std@@PBVSourceCodeInfo_Location@protobuf@google@@@std@@@std@@@std@@U_Iterator_base0@2@@std@@QAEAAV01@XZ 100322a0 f i libprotobuf:descriptor.obj
 0001:000312a0       ??E?$_Tree_unchecked_const_iterator@V?$_Tree_val@U?$_Tree_simple_types@V?$basic_string@DU?$char_traits@D@std@@V?$allocator@D@2@@std@@@std@@@std@@U_Iterator_base0@2@@std@@QAEAAV01@XZ 100322a0 f i libprotobuf:descriptor.obj
 0001:000312a0       ??E?$_Tree_unchecked_const_iterator@V?$_Tree_val@U?$_Tree_simple_types@PBVFileDescriptor@protobuf@google@@@std@@@std@@U_Iterator_base0@2@@std@@QAEAAV01@XZ 100322a0 f i libprotobuf:descriptor.obj
 0001:000312a0       ??E?$_Tree_unchecked_const_iterator@V?$_Tree_val@U?$_Tree_simple_types@U?$pair@QBDP6AXABV?$basic_string@DU?$char_traits@D@std@@V?$allocator@D@2@@std@@@Z@std@@@std@@@std@@U_Iterator_base0@2@@std@@QAEAAV01@XZ 100322a0 f i libprotobuf:message.obj
 0001:000312a0       ??E?$_Tree_unchecked_const_iterator@V?$_Tree_val@U?$_Tree_simple_types@PBVDescriptor@protobuf@google@@@std@@@std@@U_Iterator_base0@2@@std@@QAEAAV01@XZ 100322a0 f i libprotobuf:descriptor.obj
 0001:000312a0       ??E?$_Tree_unchecked_const_iterator@V?$_Tree_val@U?$_Tree_simple_types@H@std@@@std@@U_Iterator_base0@2@@std@@QAEAAV01@XZ 100322a0 f i libprotobuf:descriptor.obj
 0001:000312a0       ??E?$_Tree_unchecked_const_iterator@V?$_Tree_val@U?$_Tree_simple_types@U?$pair@QBVFieldDescriptor@protobuf@google@@PBVFieldValuePrinter@TextFormat@23@@std@@@std@@@std@@U_Iterator_base0@2@@std@@QAEAAV01@XZ 100322a0 f i libprotobuf:text_format.obj
 0001:000312a0       ??E?$_Tree_unchecked_const_iterator@V?$_Tree_val@U?$_Tree_simple_types@U?$pair@$$CBHUExtension@ExtensionSet@internal@protobuf@google@@@std@@@std@@@std@@U_Iterator_base0@2@@std@@QAEAAV01@XZ 100322a0 f i libprotobuf:extension_set.obj
 0001:000312a0       ??E?$_Tree_unchecked_const_iterator@V?$_Tree_val@U?$_Tree_simple_types@U?$pair@$$CBHV?$basic_string@DU?$char_traits@D@std@@V?$allocator@D@2@@std@@@std@@@std@@@std@@U_Iterator_base0@2@@std@@QAEAAV01@XZ 100322a0 f i libprotobuf:descriptor.obj
 0001:000312a0       ??E?$_Tree_unchecked_const_iterator@V?$_Tree_val@U?$_Tree_simple_types@U?$pair@QBVFieldDescriptor@protobuf@google@@V?$vector@PAVParseInfoTree@TextFormat@protobuf@google@@V?$allocator@PAVParseInfoTree@TextFormat@protobuf@google@@@std@@@std@@@std@@@std@@@std@@U_Iterator_base0@2@@std@@QAEAAV01@XZ 100322a0 f i libprotobuf:text_format.obj
 0001:000312a0       ??E?$_Tree_unchecked_const_iterator@V?$_Tree_val@U?$_Tree_simple_types@U?$pair@$$CBU?$pair@PBXPBD@std@@PBVFieldDescriptor@protobuf@google@@@std@@@std@@@std@@U_Iterator_base0@2@@std@@QAEAAV01@XZ 100322a0 f i libprotobuf:descriptor.obj
 0001:000312f0       ??F?$_Tree_unchecked_const_iterator@V?$_Tree_val@U?$_Tree_simple_types@U?$pair@$$CBHV?$basic_string@DU?$char_traits@D@std@@V?$allocator@D@2@@std@@@std@@@std@@@std@@U_Iterator_base0@2@@std@@QAEAAV01@XZ 100322f0 f i libprotobuf:descriptor.obj
 0001:000312f0       ??F?$_Tree_unchecked_const_iterator@V?$_Tree_val@U?$_Tree_simple_types@U?$pair@QBVFieldDescriptor@protobuf@google@@V?$vector@UParseLocation@TextFormat@protobuf@google@@V?$allocator@UParseLocation@TextFormat@protobuf@google@@@std@@@std@@@std@@@std@@@std@@U_Iterator_base0@2@@std@@QAEAAV01@XZ 100322f0 f i libprotobuf:text_format.obj
 0001:000312f0       ??F?$_Tree_unchecked_const_iterator@V?$_Tree_val@U?$_Tree_simple_types@U?$pair@$$CBHUExtension@ExtensionSet@internal@protobuf@google@@@std@@@std@@@std@@U_Iterator_base0@2@@std@@QAEAAV01@XZ 100322f0 f i libprotobuf:extension_set.obj
 0001:000312f0       ??F?$_Tree_unchecked_const_iterator@V?$_Tree_val@U?$_Tree_simple_types@PBVFileDescriptor@protobuf@google@@@std@@@std@@U_Iterator_base0@2@@std@@QAEAAV01@XZ 100322f0 f i libprotobuf:descriptor.obj
 0001:000312f0       ??F?$_Tree_unchecked_const_iterator@V?$_Tree_val@U?$_Tree_simple_types@H@std@@@std@@U_Iterator_base0@2@@std@@QAEAAV01@XZ 100322f0 f i libprotobuf:descriptor.obj
 0001:000312f0       ??F?$_Tree_unchecked_const_iterator@V?$_Tree_val@U?$_Tree_simple_types@U?$pair@QBDUSymbol@?A0x0ecadf1d@protobuf@google@@@std@@@std@@@std@@U_Iterator_base0@2@@std@@QAEAAV01@XZ 100322f0 f i libprotobuf:descriptor.obj
 0001:000312f0       ??F?$_Tree_unchecked_const_iterator@V?$_Tree_val@U?$_Tree_simple_types@U?$pair@$$CBU?$pair@V?$basic_string@DU?$char_traits@D@std@@V?$allocator@D@2@@std@@H@std@@U?$pair@PBXH@2@@std@@@std@@@std@@U_Iterator_base0@2@@std@@QAEAAV01@XZ 100322f0 f i libprotobuf:descriptor_database.obj
 0001:000312f0       ??F?$_Tree_unchecked_const_iterator@V?$_Tree_val@U?$_Tree_simple_types@U?$pair@$$CBU?$pair@PBXPBD@std@@PBVFieldDescriptor@protobuf@google@@@std@@@std@@@std@@U_Iterator_base0@2@@std@@QAEAAV01@XZ 100322f0 f i libprotobuf:descriptor.obj
 0001:000312f0       ??F?$_Tree_unchecked_const_iterator@V?$_Tree_val@U?$_Tree_simple_types@U?$pair@QBVFieldDescriptor@protobuf@google@@V?$vector@PAVParseInfoTree@TextFormat@protobuf@google@@V?$allocator@PAVParseInfoTree@TextFormat@protobuf@google@@@std@@@std@@@std@@@std@@@std@@U_Iterator_base0@2@@std@@QAEAAV01@XZ 100322f0 f i libprotobuf:text_format.obj
 0001:000312f0       ??F?$_Tree_unchecked_const_iterator@V?$_Tree_val@U?$_Tree_simple_types@U?$pair@QBDPBVFileDescriptor@protobuf@google@@@std@@@std@@@std@@U_Iterator_base0@2@@std@@QAEAAV01@XZ 100322f0 f i libprotobuf:descriptor.obj
 0001:000312f0       ??F?$_Tree_unchecked_const_iterator@V?$_Tree_val@U?$_Tree_simple_types@U?$pair@QBVDescriptor@protobuf@google@@PBVMessage@23@@std@@@std@@@std@@U_Iterator_base0@2@@std@@QAEAAV01@XZ 100322f0 f i libprotobuf:message.obj
 0001:000312f0       ??F?$_Tree_unchecked_const_iterator@V?$_Tree_val@U?$_Tree_simple_types@U?$pair@$$CBV?$basic_string@DU?$char_traits@D@std@@V?$allocator@D@2@@std@@U?$pair@PBXH@2@@std@@@std@@@std@@U_Iterator_base0@2@@std@@QAEAAV01@XZ 100322f0 f i libprotobuf:descriptor_database.obj
 0001:000312f0       ??F?$_Tree_unchecked_const_iterator@V?$_Tree_val@U?$_Tree_simple_types@U?$pair@$$CBU?$pair@PBXPBD@std@@USymbol@?A0x0ecadf1d@protobuf@google@@@std@@@std@@@std@@U_Iterator_base0@2@@std@@QAEAAV01@XZ 100322f0 f i libprotobuf:descriptor.obj
 0001:000312f0       ??F?$_Tree_unchecked_const_iterator@V?$_Tree_val@U?$_Tree_simple_types@U?$pair@$$CBU?$pair@PBVDescriptor@protobuf@google@@H@std@@PBVFieldDescriptor@protobuf@google@@@std@@@std@@@std@@U_Iterator_base0@2@@std@@QAEAAV01@XZ 100322f0 f i libprotobuf:descriptor.obj
 0001:000312f0       ??F?$_Tree_unchecked_const_iterator@V?$_Tree_val@U?$_Tree_simple_types@V?$basic_string@DU?$char_traits@D@std@@V?$allocator@D@2@@std@@@std@@@std@@U_Iterator_base0@2@@std@@QAEAAV01@XZ 100322f0 f i libprotobuf:descriptor.obj
 0001:000312f0       ??F?$_Tree_unchecked_const_iterator@V?$_Tree_val@U?$_Tree_simple_types@U?$pair@QBDP6AXABV?$basic_string@DU?$char_traits@D@std@@V?$allocator@D@2@@std@@@Z@std@@@std@@@std@@U_Iterator_base0@2@@std@@QAEAAV01@XZ 100322f0 f i libprotobuf:message.obj
 0001:000312f0       ??F?$_Tree_unchecked_const_iterator@V?$_Tree_val@U?$_Tree_simple_types@U?$pair@QBVDescriptor@protobuf@google@@PBUTypeInfo@DynamicMessage@23@@std@@@std@@@std@@U_Iterator_base0@2@@std@@QAEAAV01@XZ 100322f0 f i libprotobuf:dynamic_message.obj
 0001:000312f0       ??F?$_Tree_unchecked_const_iterator@V?$_Tree_val@U?$_Tree_simple_types@PBVDescriptor@protobuf@google@@@std@@@std@@U_Iterator_base0@2@@std@@QAEAAV01@XZ 100322f0 f i libprotobuf:descriptor.obj
 0001:000312f0       ??F?$_Tree_unchecked_const_iterator@V?$_Tree_val@U?$_Tree_simple_types@U?$pair@$$CBU?$pair@PBVEnumDescriptor@protobuf@google@@H@std@@PBVEnumValueDescriptor@protobuf@google@@@std@@@std@@@std@@U_Iterator_base0@2@@std@@QAEAAV01@XZ 100322f0 f i libprotobuf:descriptor.obj
 0001:00031350       ??_EGeneratedMessageFactory@?A0x76ff5354@protobuf@google@@UAEPAXI@Z 10032350 f i libprotobuf:message.obj
 0001:00031350       ??_GGeneratedMessageFactory@?A0x76ff5354@protobuf@google@@UAEPAXI@Z 10032350 f i libprotobuf:message.obj
 0001:000313d0       ??_EReflection@protobuf@google@@UAEPAXI@Z 100323d0 f i libprotobuf:message.obj
 0001:000313d0       ??_GReflection@protobuf@google@@UAEPAXI@Z 100323d0 f i libprotobuf:message.obj
 0001:00031400       ?ByteSize@Message@protobuf@google@@UBEHXZ 10032400 f   libprotobuf:message.obj
 0001:00031420       ?CheckTypeAndMergeFrom@Message@protobuf@google@@UAEXABVMessageLite@23@@Z 10032420 f   libprotobuf:message.obj
 0001:00031430       ?Clear@Message@protobuf@google@@UAEXXZ 10032430 f   libprotobuf:message.obj
 0001:00031440       ?CopyFrom@Message@protobuf@google@@UAEXABV123@@Z 10032440 f   libprotobuf:message.obj
 0001:00031550       ?DiscardUnknownFields@Message@protobuf@google@@UAEXXZ 10032550 f   libprotobuf:message.obj
 0001:00031560       ?FindInitializationErrors@Message@protobuf@google@@QBEXPAV?$vector@V?$basic_string@DU?$char_traits@D@std@@V?$allocator@D@2@@std@@V?$allocator@V?$basic_string@DU?$char_traits@D@std@@V?$allocator@D@2@@std@@@2@@std@@@Z 10032560 f   libprotobuf:message.obj
 0001:00031600       ?GetOneofFieldDescriptor@Reflection@protobuf@google@@UBEPBVFieldDescriptor@23@ABVMessage@23@PBVOneofDescriptor@23@@Z 10032600 f i libprotobuf:message.obj
 0001:000317d0       ?GetTypeName@Message@protobuf@google@@UBE?AV?$basic_string@DU?$char_traits@D@std@@V?$allocator@D@2@@std@@XZ 100327d0 f   libprotobuf:message.obj
 0001:00031820       ?FindAllExtensionNumbers@DescriptorDatabase@protobuf@google@@UAE_NABV?$basic_string@DU?$char_traits@D@std@@V?$allocator@D@2@@std@@PAV?$vector@HV?$allocator@H@std@@@5@@Z 10032820 f i libprotobuf:descriptor_database.obj
 0001:00031820       ?HasOneof@Reflection@protobuf@google@@UBE_NABVMessage@23@PBVOneofDescriptor@23@@Z 10032820 f i libprotobuf:message.obj
 0001:000318a0       ?InitializationErrorString@Message@protobuf@google@@UBE?AV?$basic_string@DU?$char_traits@D@std@@V?$allocator@D@2@@std@@XZ 100328a0 f   libprotobuf:message.obj
 0001:000319b0       ?InternalRegisterGeneratedFile@MessageFactory@protobuf@google@@SAXPBDP6AXABV?$basic_string@DU?$char_traits@D@std@@V?$allocator@D@2@@std@@@Z@Z 100329b0 f   libprotobuf:message.obj
 0001:00031a40       ?InternalRegisterGeneratedMessage@MessageFactory@protobuf@google@@SAXPBVDescriptor@23@PBVMessage@23@@Z 10032a40 f   libprotobuf:message.obj
 0001:00031ad0       ?IsInitialized@Message@protobuf@google@@UBE_NXZ 10032ad0 f   libprotobuf:message.obj
 0001:00031ae0       ?MergeFrom@Message@protobuf@google@@UAEXABV123@@Z 10032ae0 f   libprotobuf:message.obj
 0001:00031bf0       ?MergePartialFromCodedStream@Message@protobuf@google@@UAE_NPAVCodedInputStream@io@23@@Z 10032bf0 f   libprotobuf:message.obj
 0001:00031d90       ?SerializeWithCachedSizes@Message@protobuf@google@@UBEXPAVCodedOutputStream@io@23@@Z 10032d90 f   libprotobuf:message.obj
 0001:00031db0       ?SetCachedSize@Message@protobuf@google@@EBEXH@Z 10032db0 f   libprotobuf:message.obj
 0001:00031e80       ?SpaceUsed@Message@protobuf@google@@UBEHXZ 10032e80 f   libprotobuf:message.obj
 0001:00031ea0       ?_Buynode0@?$_Tree_comp_alloc@V?$_Tmap_traits@PBDP6AXABV?$basic_string@DU?$char_traits@D@std@@V?$allocator@D@2@@std@@@ZU?$hash@PBD@protobuf@google@@V?$allocator@U?$pair@QBDP6AXABV?$basic_string@DU?$char_traits@D@std@@V?$allocator@D@2@@std@@@Z@std@@@2@$0A@@std@@@std@@QAEPAU?$_Tree_node@U?$pair@QBDP6AXABV?$basic_string@DU?$char_traits@D@std@@V?$allocator@D@2@@std@@@Z@std@@PAX@2@XZ 10032ea0 f i libprotobuf:message.obj
 0001:00031ea0       ?_Buynode0@?$_Tree_comp_alloc@V?$_Tmap_traits@PBDPBVFileDescriptor@protobuf@google@@U?$hash@PBD@23@V?$allocator@U?$pair@QBDPBVFileDescriptor@protobuf@google@@@std@@@std@@$0A@@std@@@std@@QAEPAU?$_Tree_node@U?$pair@QBDPBVFileDescriptor@protobuf@google@@@std@@PAX@2@XZ 10032ea0 f i libprotobuf:descriptor.obj
 0001:00031ea0       ?_Buynode0@?$_Tree_comp_alloc@V?$_Tmap_traits@PBVDescriptor@protobuf@google@@PBVMessage@23@U?$hash@PBVDescriptor@protobuf@google@@@23@V?$allocator@U?$pair@QBVDescriptor@protobuf@google@@PBVMessage@23@@std@@@std@@$0A@@std@@@std@@QAEPAU?$_Tree_node@U?$pair@QBVDescriptor@protobuf@google@@PBVMessage@23@@std@@PAX@2@XZ 10032ea0 f i libprotobuf:message.obj
 0001:00031ea0       ?_Buynode0@?$_Tree_comp_alloc@V?$_Tmap_traits@PBVDescriptor@protobuf@google@@PBUTypeInfo@DynamicMessage@23@U?$hash@PBVDescriptor@protobuf@google@@@23@V?$allocator@U?$pair@QBVDescriptor@protobuf@google@@PBUTypeInfo@DynamicMessage@23@@std@@@std@@$0A@@std@@@std@@QAEPAU?$_Tree_node@U?$pair@QBVDescriptor@protobuf@google@@PBUTypeInfo@DynamicMessage@23@@std@@PAX@2@XZ 10032ea0 f i libprotobuf:dynamic_message.obj
 0001:00031ee0       ?clear@?$_Tree@V?$_Tset_traits@PBVFileDescriptor@protobuf@google@@U?$less@PBVFileDescriptor@protobuf@google@@@std@@V?$allocator@PBVFileDescriptor@protobuf@google@@@5@$0A@@std@@@std@@QAEXXZ 10032ee0 f i libprotobuf:descriptor.obj
 0001:00031ee0       ?clear@?$_Tree@V?$_Tset_traits@PBVDescriptor@protobuf@google@@U?$less@PBVDescriptor@protobuf@google@@@std@@V?$allocator@PBVDescriptor@protobuf@google@@@5@$0A@@std@@@std@@QAEXXZ 10032ee0 f i libprotobuf:descriptor.obj
 0001:00031ee0       ?clear@?$_Tree@V?$_Tmap_traits@U?$pair@PBVDescriptor@protobuf@google@@H@std@@PBVFieldDescriptor@protobuf@google@@U?$PointerIntegerPairHash@U?$pair@PBVDescriptor@protobuf@google@@H@std@@@?A0x0ecadf1d@45@V?$allocator@U?$pair@$$CBU?$pair@PBVDescriptor@protobuf@google@@H@std@@PBVFieldDescriptor@protobuf@google@@@std@@@2@$0A@@std@@@std@@QAEXXZ 10032ee0 f i libprotobuf:descriptor.obj
 0001:00031ee0       ?clear@?$_Tree@V?$_Tmap_traits@PBDUSymbol@?A0x0ecadf1d@protobuf@google@@U?$hash@PBD@34@V?$allocator@U?$pair@QBDUSymbol@?A0x0ecadf1d@protobuf@google@@@std@@@std@@$0A@@std@@@std@@QAEXXZ 10032ee0 f i libprotobuf:descriptor.obj
 0001:00031ee0       ?clear@?$_Tree@V?$_Tmap_traits@U?$pair@PBVDescriptor@protobuf@google@@H@std@@PBVFieldDescriptor@protobuf@google@@U?$less@U?$pair@PBVDescriptor@protobuf@google@@H@std@@@2@V?$allocator@U?$pair@$$CBU?$pair@PBVDescriptor@protobuf@google@@H@std@@PBVFieldDescriptor@protobuf@google@@@std@@@2@$0A@@std@@@std@@QAEXXZ 10032ee0 f i libprotobuf:descriptor.obj
 0001:00031ee0       ?clear@?$_Tree@V?$_Tmap_traits@PBVFieldDescriptor@protobuf@google@@PBVFieldValuePrinter@TextFormat@23@U?$less@PBVFieldDescriptor@protobuf@google@@@std@@V?$allocator@U?$pair@QBVFieldDescriptor@protobuf@google@@PBVFieldValuePrinter@TextFormat@23@@std@@@7@$0A@@std@@@std@@QAEXXZ 10032ee0 f i libprotobuf:text_format.obj
 0001:00031ee0       ?clear@?$_Tree@V?$_Tmap_traits@U?$pair@PBXPBD@std@@USymbol@?A0x0ecadf1d@protobuf@google@@UPointerStringPairHash@456@V?$allocator@U?$pair@$$CBU?$pair@PBXPBD@std@@USymbol@?A0x0ecadf1d@protobuf@google@@@std@@@2@$0A@@std@@@std@@QAEXXZ 10032ee0 f i libprotobuf:descriptor.obj
 0001:00031ee0       ?clear@?$_Tree@V?$_Tmap_traits@PBDP6AXABV?$basic_string@DU?$char_traits@D@std@@V?$allocator@D@2@@std@@@ZU?$hash@PBD@protobuf@google@@V?$allocator@U?$pair@QBDP6AXABV?$basic_string@DU?$char_traits@D@std@@V?$allocator@D@2@@std@@@Z@std@@@2@$0A@@std@@@std@@QAEXXZ 10032ee0 f i libprotobuf:message.obj
 0001:00031ee0       ?clear@?$_Tree@V?$_Tmap_traits@PBVDescriptor@protobuf@google@@PBUTypeInfo@DynamicMessage@23@U?$hash@PBVDescriptor@protobuf@google@@@23@V?$allocator@U?$pair@QBVDescriptor@protobuf@google@@PBUTypeInfo@DynamicMessage@23@@std@@@std@@$0A@@std@@@std@@QAEXXZ 10032ee0 f i libprotobuf:dynamic_message.obj
 0001:00031ee0       ?clear@?$_Tree@V?$_Tmap_traits@U?$pair@PBVEnumDescriptor@protobuf@google@@H@std@@PBVEnumValueDescriptor@protobuf@google@@U?$PointerIntegerPairHash@U?$pair@PBVEnumDescriptor@protobuf@google@@H@std@@@?A0x0ecadf1d@45@V?$allocator@U?$pair@$$CBU?$pair@PBVEnumDescriptor@protobuf@google@@H@std@@PBVEnumValueDescriptor@protobuf@google@@@std@@@2@$0A@@std@@@std@@QAEXXZ 10032ee0 f i libprotobuf:descriptor.obj
 0001:00031ee0       ?clear@?$_Tree@V?$_Tmap_traits@PBDPBVFileDescriptor@protobuf@google@@U?$hash@PBD@23@V?$allocator@U?$pair@QBDPBVFileDescriptor@protobuf@google@@@std@@@std@@$0A@@std@@@std@@QAEXXZ 10032ee0 f i libprotobuf:descriptor.obj
 0001:00031ee0       ?clear@?$_Tree@V?$_Tmap_traits@HUExtension@ExtensionSet@internal@protobuf@google@@U?$less@H@std@@V?$allocator@U?$pair@$$CBHUExtension@ExtensionSet@internal@protobuf@google@@@std@@@7@$0A@@std@@@std@@QAEXXZ 10032ee0 f i libprotobuf:extension_set.obj
 0001:00031ee0       ?clear@?$_Tree@V?$_Tmap_traits@U?$pair@PBXPBD@std@@PBVFieldDescriptor@protobuf@google@@UPointerStringPairHash@?A0x0ecadf1d@45@V?$allocator@U?$pair@$$CBU?$pair@PBXPBD@std@@PBVFieldDescriptor@protobuf@google@@@std@@@2@$0A@@std@@@std@@QAEXXZ 10032ee0 f i libprotobuf:descriptor.obj
 0001:00031ee0       ?clear@?$_Tree@V?$_Tset_traits@HU?$less@H@std@@V?$allocator@H@2@$0A@@std@@@std@@QAEXXZ 10032ee0 f i libprotobuf:descriptor.obj
 0001:00031ee0       ?clear@?$_Tree@V?$_Tset_traits@PBVDescriptor@protobuf@google@@U?$hash@PBVDescriptor@protobuf@google@@@23@V?$allocator@PBVDescriptor@protobuf@google@@@std@@$0A@@std@@@std@@QAEXXZ 10032ee0 f i libprotobuf:descriptor.obj
 0001:00031ee0       ?clear@?$_Tree@V?$_Tmap_traits@PBVDescriptor@protobuf@google@@PBVMessage@23@U?$hash@PBVDescriptor@protobuf@google@@@23@V?$allocator@U?$pair@QBVDescriptor@protobuf@google@@PBVMessage@23@@std@@@std@@$0A@@std@@@std@@QAEXXZ 10032ee0 f i libprotobuf:message.obj
 0001:00031f60       ?erase@?$_Tree@V?$_Tmap_traits@U?$pair@PBVDescriptor@protobuf@google@@H@std@@PBVFieldDescriptor@protobuf@google@@U?$PointerIntegerPairHash@U?$pair@PBVDescriptor@protobuf@google@@H@std@@@?A0x0ecadf1d@45@V?$allocator@U?$pair@$$CBU?$pair@PBVDescriptor@protobuf@google@@H@std@@PBVFieldDescriptor@protobuf@google@@@std@@@2@$0A@@std@@@std@@QAE?AV?$_Tree_iterator@V?$_Tree_val@U?$_Tree_simple_types@U?$pair@$$CBU?$pair@PBVDescriptor@protobuf@google@@H@std@@PBVFieldDescriptor@protobuf@google@@@std@@@std@@@std@@@2@V?$_Tree_const_iterator@V?$_Tree_val@U?$_Tree_simple_types@U?$pair@$$CBU?$pair@PBVDescriptor@protobuf@google@@H@std@@PBVFieldDescriptor@protobuf@google@@@std@@@std@@@std@@@2@0@Z 10032f60 f i libprotobuf:descriptor.obj
 0001:00031f60       ?erase@?$_Tree@V?$_Tmap_traits@PBVDescriptor@protobuf@google@@PBUTypeInfo@DynamicMessage@23@U?$hash@PBVDescriptor@protobuf@google@@@23@V?$allocator@U?$pair@QBVDescriptor@protobuf@google@@PBUTypeInfo@DynamicMessage@23@@std@@@std@@$0A@@std@@@std@@QAE?AV?$_Tree_iterator@V?$_Tree_val@U?$_Tree_simple_types@U?$pair@QBVDescriptor@protobuf@google@@PBUTypeInfo@DynamicMessage@23@@std@@@std@@@std@@@2@V?$_Tree_const_iterator@V?$_Tree_val@U?$_Tree_simple_types@U?$pair@QBVDescriptor@protobuf@google@@PBUTypeInfo@DynamicMessage@23@@std@@@std@@@std@@@2@0@Z 10032f60 f i libprotobuf:dynamic_message.obj
 0001:00031f60       ?erase@?$_Tree@V?$_Tmap_traits@U?$pair@PBXPBD@std@@PBVFieldDescriptor@protobuf@google@@UPointerStringPairHash@?A0x0ecadf1d@45@V?$allocator@U?$pair@$$CBU?$pair@PBXPBD@std@@PBVFieldDescriptor@protobuf@google@@@std@@@2@$0A@@std@@@std@@QAE?AV?$_Tree_iterator@V?$_Tree_val@U?$_Tree_simple_types@U?$pair@$$CBU?$pair@PBXPBD@std@@PBVFieldDescriptor@protobuf@google@@@std@@@std@@@std@@@2@V?$_Tree_const_iterator@V?$_Tree_val@U?$_Tree_simple_types@U?$pair@$$CBU?$pair@PBXPBD@std@@PBVFieldDescriptor@protobuf@google@@@std@@@std@@@std@@@2@0@Z 10032f60 f i libprotobuf:descriptor.obj
 0001:00031f60       ?erase@?$_Tree@V?$_Tset_traits@HU?$less@H@std@@V?$allocator@H@2@$0A@@std@@@std@@QAE?AV?$_Tree_const_iterator@V?$_Tree_val@U?$_Tree_simple_types@H@std@@@std@@@2@V32@0@Z 10032f60 f i libprotobuf:descriptor.obj
 0001:00031f60       ?erase@?$_Tree@V?$_Tmap_traits@PBVDescriptor@protobuf@google@@PBVMessage@23@U?$hash@PBVDescriptor@protobuf@google@@@23@V?$allocator@U?$pair@QBVDescriptor@protobuf@google@@PBVMessage@23@@std@@@std@@$0A@@std@@@std@@QAE?AV?$_Tree_iterator@V?$_Tree_val@U?$_Tree_simple_types@U?$pair@QBVDescriptor@protobuf@google@@PBVMessage@23@@std@@@std@@@std@@@2@V?$_Tree_const_iterator@V?$_Tree_val@U?$_Tree_simple_types@U?$pair@QBVDescriptor@protobuf@google@@PBVMessage@23@@std@@@std@@@std@@@2@0@Z 10032f60 f i libprotobuf:message.obj
 0001:00031f60       ?erase@?$_Tree@V?$_Tset_traits@PBVDescriptor@protobuf@google@@U?$less@PBVDescriptor@protobuf@google@@@std@@V?$allocator@PBVDescriptor@protobuf@google@@@5@$0A@@std@@@std@@QAE?AV?$_Tree_const_iterator@V?$_Tree_val@U?$_Tree_simple_types@PBVDescriptor@protobuf@google@@@std@@@std@@@2@V32@0@Z 10032f60 f i libprotobuf:descriptor.obj
 0001:00031f60       ?erase@?$_Tree@V?$_Tmap_traits@HUExtension@ExtensionSet@internal@protobuf@google@@U?$less@H@std@@V?$allocator@U?$pair@$$CBHUExtension@ExtensionSet@internal@protobuf@google@@@std@@@7@$0A@@std@@@std@@QAE?AV?$_Tree_iterator@V?$_Tree_val@U?$_Tree_simple_types@U?$pair@$$CBHUExtension@ExtensionSet@internal@protobuf@google@@@std@@@std@@@std@@@2@V?$_Tree_const_iterator@V?$_Tree_val@U?$_Tree_simple_types@U?$pair@$$CBHUExtension@ExtensionSet@internal@protobuf@google@@@std@@@std@@@std@@@2@0@Z 10032f60 f i libprotobuf:extension_set.obj
 0001:00031f60       ?erase@?$_Tree@V?$_Tset_traits@PBVFileDescriptor@protobuf@google@@U?$less@PBVFileDescriptor@protobuf@google@@@std@@V?$allocator@PBVFileDescriptor@protobuf@google@@@5@$0A@@std@@@std@@QAE?AV?$_Tree_const_iterator@V?$_Tree_val@U?$_Tree_simple_types@PBVFileDescriptor@protobuf@google@@@std@@@std@@@2@V32@0@Z 10032f60 f i libprotobuf:descriptor.obj
 0001:00031f60       ?erase@?$_Tree@V?$_Tmap_traits@PBDP6AXABV?$basic_string@DU?$char_traits@D@std@@V?$allocator@D@2@@std@@@ZU?$hash@PBD@protobuf@google@@V?$allocator@U?$pair@QBDP6AXABV?$basic_string@DU?$char_traits@D@std@@V?$allocator@D@2@@std@@@Z@std@@@2@$0A@@std@@@std@@QAE?AV?$_Tree_iterator@V?$_Tree_val@U?$_Tree_simple_types@U?$pair@QBDP6AXABV?$basic_string@DU?$char_traits@D@std@@V?$allocator@D@2@@std@@@Z@std@@@std@@@std@@@2@V?$_Tree_const_iterator@V?$_Tree_val@U?$_Tree_simple_types@U?$pair@QBDP6AXABV?$basic_string@DU?$char_traits@D@std@@V?$allocator@D@2@@std@@@Z@std@@@std@@@std@@@2@0@Z 10032f60 f i libprotobuf:message.obj
 0001:00031f60       ?erase@?$_Tree@V?$_Tmap_traits@PBVFieldDescriptor@protobuf@google@@PBVFieldValuePrinter@TextFormat@23@U?$less@PBVFieldDescriptor@protobuf@google@@@std@@V?$allocator@U?$pair@QBVFieldDescriptor@protobuf@google@@PBVFieldValuePrinter@TextFormat@23@@std@@@7@$0A@@std@@@std@@QAE?AV?$_Tree_iterator@V?$_Tree_val@U?$_Tree_simple_types@U?$pair@QBVFieldDescriptor@protobuf@google@@PBVFieldValuePrinter@TextFormat@23@@std@@@std@@@std@@@2@V?$_Tree_const_iterator@V?$_Tree_val@U?$_Tree_simple_types@U?$pair@QBVFieldDescriptor@protobuf@google@@PBVFieldValuePrinter@TextFormat@23@@std@@@std@@@std@@@2@0@Z 10032f60 f i libprotobuf:text_format.obj
 0001:00031f60       ?erase@?$_Tree@V?$_Tmap_traits@U?$pair@PBVDescriptor@protobuf@google@@H@std@@PBVFieldDescriptor@protobuf@google@@U?$less@U?$pair@PBVDescriptor@protobuf@google@@H@std@@@2@V?$allocator@U?$pair@$$CBU?$pair@PBVDescriptor@protobuf@google@@H@std@@PBVFieldDescriptor@protobuf@google@@@std@@@2@$0A@@std@@@std@@QAE?AV?$_Tree_iterator@V?$_Tree_val@U?$_Tree_simple_types@U?$pair@$$CBU?$pair@PBVDescriptor@protobuf@google@@H@std@@PBVFieldDescriptor@protobuf@google@@@std@@@std@@@std@@@2@V?$_Tree_const_iterator@V?$_Tree_val@U?$_Tree_simple_types@U?$pair@$$CBU?$pair@PBVDescriptor@protobuf@google@@H@std@@PBVFieldDescriptor@protobuf@google@@@std@@@std@@@std@@@2@0@Z 10032f60 f i libprotobuf:descriptor.obj
 0001:00031f60       ?erase@?$_Tree@V?$_Tmap_traits@PBDUSymbol@?A0x0ecadf1d@protobuf@google@@U?$hash@PBD@34@V?$allocator@U?$pair@QBDUSymbol@?A0x0ecadf1d@protobuf@google@@@std@@@std@@$0A@@std@@@std@@QAE?AV?$_Tree_iterator@V?$_Tree_val@U?$_Tree_simple_types@U?$pair@QBDUSymbol@?A0x0ecadf1d@protobuf@google@@@std@@@std@@@std@@@2@V?$_Tree_const_iterator@V?$_Tree_val@U?$_Tree_simple_types@U?$pair@QBDUSymbol@?A0x0ecadf1d@protobuf@google@@@std@@@std@@@std@@@2@0@Z 10032f60 f i libprotobuf:descriptor.obj
 0001:00031f60       ?erase@?$_Tree@V?$_Tmap_traits@U?$pair@PBXPBD@std@@USymbol@?A0x0ecadf1d@protobuf@google@@UPointerStringPairHash@456@V?$allocator@U?$pair@$$CBU?$pair@PBXPBD@std@@USymbol@?A0x0ecadf1d@protobuf@google@@@std@@@2@$0A@@std@@@std@@QAE?AV?$_Tree_iterator@V?$_Tree_val@U?$_Tree_simple_types@U?$pair@$$CBU?$pair@PBXPBD@std@@USymbol@?A0x0ecadf1d@protobuf@google@@@std@@@std@@@std@@@2@V?$_Tree_const_iterator@V?$_Tree_val@U?$_Tree_simple_types@U?$pair@$$CBU?$pair@PBXPBD@std@@USymbol@?A0x0ecadf1d@protobuf@google@@@std@@@std@@@std@@@2@0@Z 10032f60 f i libprotobuf:descriptor.obj
 0001:00031f60       ?erase@?$_Tree@V?$_Tmap_traits@U?$pair@PBVEnumDescriptor@protobuf@google@@H@std@@PBVEnumValueDescriptor@protobuf@google@@U?$PointerIntegerPairHash@U?$pair@PBVEnumDescriptor@protobuf@google@@H@std@@@?A0x0ecadf1d@45@V?$allocator@U?$pair@$$CBU?$pair@PBVEnumDescriptor@protobuf@google@@H@std@@PBVEnumValueDescriptor@protobuf@google@@@std@@@2@$0A@@std@@@std@@QAE?AV?$_Tree_iterator@V?$_Tree_val@U?$_Tree_simple_types@U?$pair@$$CBU?$pair@PBVEnumDescriptor@protobuf@google@@H@std@@PBVEnumValueDescriptor@protobuf@google@@@std@@@std@@@std@@@2@V?$_Tree_const_iterator@V?$_Tree_val@U?$_Tree_simple_types@U?$pair@$$CBU?$pair@PBVEnumDescriptor@protobuf@google@@H@std@@PBVEnumValueDescriptor@protobuf@google@@@std@@@std@@@std@@@2@0@Z 10032f60 f i libprotobuf:descriptor.obj
 0001:00031f60       ?erase@?$_Tree@V?$_Tset_traits@PBVDescriptor@protobuf@google@@U?$hash@PBVDescriptor@protobuf@google@@@23@V?$allocator@PBVDescriptor@protobuf@google@@@std@@$0A@@std@@@std@@QAE?AV?$_Tree_const_iterator@V?$_Tree_val@U?$_Tree_simple_types@PBVDescriptor@protobuf@google@@@std@@@std@@@2@V32@0@Z 10032f60 f i libprotobuf:descriptor.obj
 0001:00031f60       ?erase@?$_Tree@V?$_Tmap_traits@PBDPBVFileDescriptor@protobuf@google@@U?$hash@PBD@23@V?$allocator@U?$pair@QBDPBVFileDescriptor@protobuf@google@@@std@@@std@@$0A@@std@@@std@@QAE?AV?$_Tree_iterator@V?$_Tree_val@U?$_Tree_simple_types@U?$pair@QBDPBVFileDescriptor@protobuf@google@@@std@@@std@@@std@@@2@V?$_Tree_const_iterator@V?$_Tree_val@U?$_Tree_simple_types@U?$pair@QBDPBVFileDescriptor@protobuf@google@@@std@@@std@@@std@@@2@0@Z 10032f60 f i libprotobuf:descriptor.obj
 0001:00032000       ?erase@?$_Tree@V?$_Tmap_traits@HUExtension@ExtensionSet@internal@protobuf@google@@U?$less@H@std@@V?$allocator@U?$pair@$$CBHUExtension@ExtensionSet@internal@protobuf@google@@@std@@@7@$0A@@std@@@std@@QAE?AV?$_Tree_iterator@V?$_Tree_val@U?$_Tree_simple_types@U?$pair@$$CBHUExtension@ExtensionSet@internal@protobuf@google@@@std@@@std@@@std@@@2@V?$_Tree_const_iterator@V?$_Tree_val@U?$_Tree_simple_types@U?$pair@$$CBHUExtension@ExtensionSet@internal@protobuf@google@@@std@@@std@@@std@@@2@@Z 10033000 f i libprotobuf:extension_set.obj
 0001:00032000       ?erase@?$_Tree@V?$_Tmap_traits@PBDUSymbol@?A0x0ecadf1d@protobuf@google@@U?$hash@PBD@34@V?$allocator@U?$pair@QBDUSymbol@?A0x0ecadf1d@protobuf@google@@@std@@@std@@$0A@@std@@@std@@QAE?AV?$_Tree_iterator@V?$_Tree_val@U?$_Tree_simple_types@U?$pair@QBDUSymbol@?A0x0ecadf1d@protobuf@google@@@std@@@std@@@std@@@2@V?$_Tree_const_iterator@V?$_Tree_val@U?$_Tree_simple_types@U?$pair@QBDUSymbol@?A0x0ecadf1d@protobuf@google@@@std@@@std@@@std@@@2@@Z 10033000 f i libprotobuf:descriptor.obj
 0001:00032000       ?erase@?$_Tree@V?$_Tmap_traits@PBVDescriptor@protobuf@google@@PBVMessage@23@U?$hash@PBVDescriptor@protobuf@google@@@23@V?$allocator@U?$pair@QBVDescriptor@protobuf@google@@PBVMessage@23@@std@@@std@@$0A@@std@@@std@@QAE?AV?$_Tree_iterator@V?$_Tree_val@U?$_Tree_simple_types@U?$pair@QBVDescriptor@protobuf@google@@PBVMessage@23@@std@@@std@@@std@@@2@V?$_Tree_const_iterator@V?$_Tree_val@U?$_Tree_simple_types@U?$pair@QBVDescriptor@protobuf@google@@PBVMessage@23@@std@@@std@@@std@@@2@@Z 10033000 f i libprotobuf:message.obj
 0001:00032000       ?erase@?$_Tree@V?$_Tset_traits@PBVFileDescriptor@protobuf@google@@U?$less@PBVFileDescriptor@protobuf@google@@@std@@V?$allocator@PBVFileDescriptor@protobuf@google@@@5@$0A@@std@@@std@@QAE?AV?$_Tree_const_iterator@V?$_Tree_val@U?$_Tree_simple_types@PBVFileDescriptor@protobuf@google@@@std@@@std@@@2@V32@@Z 10033000 f i libprotobuf:descriptor.obj
 0001:00032000       ?erase@?$_Tree@V?$_Tmap_traits@PBDP6AXABV?$basic_string@DU?$char_traits@D@std@@V?$allocator@D@2@@std@@@ZU?$hash@PBD@protobuf@google@@V?$allocator@U?$pair@QBDP6AXABV?$basic_string@DU?$char_traits@D@std@@V?$allocator@D@2@@std@@@Z@std@@@2@$0A@@std@@@std@@QAE?AV?$_Tree_iterator@V?$_Tree_val@U?$_Tree_simple_types@U?$pair@QBDP6AXABV?$basic_string@DU?$char_traits@D@std@@V?$allocator@D@2@@std@@@Z@std@@@std@@@std@@@2@V?$_Tree_const_iterator@V?$_Tree_val@U?$_Tree_simple_types@U?$pair@QBDP6AXABV?$basic_string@DU?$char_traits@D@std@@V?$allocator@D@2@@std@@@Z@std@@@std@@@std@@@2@@Z 10033000 f i libprotobuf:message.obj
 0001:00032000       ?erase@?$_Tree@V?$_Tmap_traits@U?$pair@PBVDescriptor@protobuf@google@@H@std@@PBVFieldDescriptor@protobuf@google@@U?$less@U?$pair@PBVDescriptor@protobuf@google@@H@std@@@2@V?$allocator@U?$pair@$$CBU?$pair@PBVDescriptor@protobuf@google@@H@std@@PBVFieldDescriptor@protobuf@google@@@std@@@2@$0A@@std@@@std@@QAE?AV?$_Tree_iterator@V?$_Tree_val@U?$_Tree_simple_types@U?$pair@$$CBU?$pair@PBVDescriptor@protobuf@google@@H@std@@PBVFieldDescriptor@protobuf@google@@@std@@@std@@@std@@@2@V?$_Tree_const_iterator@V?$_Tree_val@U?$_Tree_simple_types@U?$pair@$$CBU?$pair@PBVDescriptor@protobuf@google@@H@std@@PBVFieldDescriptor@protobuf@google@@@std@@@std@@@std@@@2@@Z 10033000 f i libprotobuf:descriptor.obj
 0001:00032000       ?erase@?$_Tree@V?$_Tmap_traits@PBVFieldDescriptor@protobuf@google@@PBVFieldValuePrinter@TextFormat@23@U?$less@PBVFieldDescriptor@protobuf@google@@@std@@V?$allocator@U?$pair@QBVFieldDescriptor@protobuf@google@@PBVFieldValuePrinter@TextFormat@23@@std@@@7@$0A@@std@@@std@@QAE?AV?$_Tree_iterator@V?$_Tree_val@U?$_Tree_simple_types@U?$pair@QBVFieldDescriptor@protobuf@google@@PBVFieldValuePrinter@TextFormat@23@@std@@@std@@@std@@@2@V?$_Tree_const_iterator@V?$_Tree_val@U?$_Tree_simple_types@U?$pair@QBVFieldDescriptor@protobuf@google@@PBVFieldValuePrinter@TextFormat@23@@std@@@std@@@std@@@2@@Z 10033000 f i libprotobuf:text_format.obj
 0001:00032000       ?erase@?$_Tree@V?$_Tset_traits@PBVDescriptor@protobuf@google@@U?$less@PBVDescriptor@protobuf@google@@@std@@V?$allocator@PBVDescriptor@protobuf@google@@@5@$0A@@std@@@std@@QAE?AV?$_Tree_const_iterator@V?$_Tree_val@U?$_Tree_simple_types@PBVDescriptor@protobuf@google@@@std@@@std@@@2@V32@@Z 10033000 f i libprotobuf:descriptor.obj
 0001:00032000       ?erase@?$_Tree@V?$_Tmap_traits@U?$pair@PBXPBD@std@@PBVFieldDescriptor@protobuf@google@@UPointerStringPairHash@?A0x0ecadf1d@45@V?$allocator@U?$pair@$$CBU?$pair@PBXPBD@std@@PBVFieldDescriptor@protobuf@google@@@std@@@2@$0A@@std@@@std@@QAE?AV?$_Tree_iterator@V?$_Tree_val@U?$_Tree_simple_types@U?$pair@$$CBU?$pair@PBXPBD@std@@PBVFieldDescriptor@protobuf@google@@@std@@@std@@@std@@@2@V?$_Tree_const_iterator@V?$_Tree_val@U?$_Tree_simple_types@U?$pair@$$CBU?$pair@PBXPBD@std@@PBVFieldDescriptor@protobuf@google@@@std@@@std@@@std@@@2@@Z 10033000 f i libprotobuf:descriptor.obj
 0001:00032000       ?erase@?$_Tree@V?$_Tset_traits@PBVDescriptor@protobuf@google@@U?$hash@PBVDescriptor@protobuf@google@@@23@V?$allocator@PBVDescriptor@protobuf@google@@@std@@$0A@@std@@@std@@QAE?AV?$_Tree_const_iterator@V?$_Tree_val@U?$_Tree_simple_types@PBVDescriptor@protobuf@google@@@std@@@std@@@2@V32@@Z 10033000 f i libprotobuf:descriptor.obj
 0001:00032000       ?erase@?$_Tree@V?$_Tmap_traits@U?$pair@PBVDescriptor@protobuf@google@@H@std@@PBVFieldDescriptor@protobuf@google@@U?$PointerIntegerPairHash@U?$pair@PBVDescriptor@protobuf@google@@H@std@@@?A0x0ecadf1d@45@V?$allocator@U?$pair@$$CBU?$pair@PBVDescriptor@protobuf@google@@H@std@@PBVFieldDescriptor@protobuf@google@@@std@@@2@$0A@@std@@@std@@QAE?AV?$_Tree_iterator@V?$_Tree_val@U?$_Tree_simple_types@U?$pair@$$CBU?$pair@PBVDescriptor@protobuf@google@@H@std@@PBVFieldDescriptor@protobuf@google@@@std@@@std@@@std@@@2@V?$_Tree_const_iterator@V?$_Tree_val@U?$_Tree_simple_types@U?$pair@$$CBU?$pair@PBVDescriptor@protobuf@google@@H@std@@PBVFieldDescriptor@protobuf@google@@@std@@@std@@@std@@@2@@Z 10033000 f i libprotobuf:descriptor.obj
 0001:00032000       ?erase@?$_Tree@V?$_Tmap_traits@PBDPBVFileDescriptor@protobuf@google@@U?$hash@PBD@23@V?$allocator@U?$pair@QBDPBVFileDescriptor@protobuf@google@@@std@@@std@@$0A@@std@@@std@@QAE?AV?$_Tree_iterator@V?$_Tree_val@U?$_Tree_simple_types@U?$pair@QBDPBVFileDescriptor@protobuf@google@@@std@@@std@@@std@@@2@V?$_Tree_const_iterator@V?$_Tree_val@U?$_Tree_simple_types@U?$pair@QBDPBVFileDescriptor@protobuf@google@@@std@@@std@@@std@@@2@@Z 10033000 f i libprotobuf:descriptor.obj
 0001:00032000       ?erase@?$_Tree@V?$_Tmap_traits@U?$pair@PBXPBD@std@@USymbol@?A0x0ecadf1d@protobuf@google@@UPointerStringPairHash@456@V?$allocator@U?$pair@$$CBU?$pair@PBXPBD@std@@USymbol@?A0x0ecadf1d@protobuf@google@@@std@@@2@$0A@@std@@@std@@QAE?AV?$_Tree_iterator@V?$_Tree_val@U?$_Tree_simple_types@U?$pair@$$CBU?$pair@PBXPBD@std@@USymbol@?A0x0ecadf1d@protobuf@google@@@std@@@std@@@std@@@2@V?$_Tree_const_iterator@V?$_Tree_val@U?$_Tree_simple_types@U?$pair@$$CBU?$pair@PBXPBD@std@@USymbol@?A0x0ecadf1d@protobuf@google@@@std@@@std@@@std@@@2@@Z 10033000 f i libprotobuf:descriptor.obj
 0001:00032000       ?erase@?$_Tree@V?$_Tmap_traits@U?$pair@PBVEnumDescriptor@protobuf@google@@H@std@@PBVEnumValueDescriptor@protobuf@google@@U?$PointerIntegerPairHash@U?$pair@PBVEnumDescriptor@protobuf@google@@H@std@@@?A0x0ecadf1d@45@V?$allocator@U?$pair@$$CBU?$pair@PBVEnumDescriptor@protobuf@google@@H@std@@PBVEnumValueDescriptor@protobuf@google@@@std@@@2@$0A@@std@@@std@@QAE?AV?$_Tree_iterator@V?$_Tree_val@U?$_Tree_simple_types@U?$pair@$$CBU?$pair@PBVEnumDescriptor@protobuf@google@@H@std@@PBVEnumValueDescriptor@protobuf@google@@@std@@@std@@@std@@@2@V?$_Tree_const_iterator@V?$_Tree_val@U?$_Tree_simple_types@U?$pair@$$CBU?$pair@PBVEnumDescriptor@protobuf@google@@H@std@@PBVEnumValueDescriptor@protobuf@google@@@std@@@std@@@std@@@2@@Z 10033000 f i libprotobuf:descriptor.obj
 0001:00032000       ?erase@?$_Tree@V?$_Tmap_traits@PBVDescriptor@protobuf@google@@PBUTypeInfo@DynamicMessage@23@U?$hash@PBVDescriptor@protobuf@google@@@23@V?$allocator@U?$pair@QBVDescriptor@protobuf@google@@PBUTypeInfo@DynamicMessage@23@@std@@@std@@$0A@@std@@@std@@QAE?AV?$_Tree_iterator@V?$_Tree_val@U?$_Tree_simple_types@U?$pair@QBVDescriptor@protobuf@google@@PBUTypeInfo@DynamicMessage@23@@std@@@std@@@std@@@2@V?$_Tree_const_iterator@V?$_Tree_val@U?$_Tree_simple_types@U?$pair@QBVDescriptor@protobuf@google@@PBUTypeInfo@DynamicMessage@23@@std@@@std@@@std@@@2@@Z 10033000 f i libprotobuf:dynamic_message.obj
 0001:00032000       ?erase@?$_Tree@V?$_Tset_traits@HU?$less@H@std@@V?$allocator@H@2@$0A@@std@@@std@@QAE?AV?$_Tree_const_iterator@V?$_Tree_val@U?$_Tree_simple_types@H@std@@@std@@@2@V32@@Z 10033000 f i libprotobuf:descriptor.obj
 0001:00032270       ?generated_factory@MessageFactory@protobuf@google@@SAPAV123@XZ 10033270 f   libprotobuf:message.obj
 0001:000322f0       ?Delete@StringTypeHandlerBase@internal@protobuf@google@@SAXPAV?$basic_string@DU?$char_traits@D@std@@V?$allocator@D@2@@std@@@Z 100332f0 f   libprotobuf:repeated_field.obj
 0001:00032350       ?New@StringTypeHandlerBase@internal@protobuf@google@@SAPAV?$basic_string@DU?$char_traits@D@std@@V?$allocator@D@2@@std@@XZ 10033350 f   libprotobuf:repeated_field.obj
 0001:00032380       ?Reserve@RepeatedPtrFieldBase@internal@protobuf@google@@IAEXH@Z 10033380 f   libprotobuf:repeated_field.obj
 0001:00032400       ?Swap@RepeatedPtrFieldBase@internal@protobuf@google@@IAEXPAV1234@@Z 10033400 f   libprotobuf:repeated_field.obj
 0001:00032450       ??$ReadPrimitive@H$0BB@@WireFormatLite@internal@protobuf@google@@SA_NPAVCodedInputStream@io@23@PAH@Z 10033450 f i libprotobuf:extension_set.obj
 0001:000324b0       ??$ReadPrimitive@M$01@WireFormatLite@internal@protobuf@google@@SA_NPAVCodedInputStream@io@23@PAM@Z 100334b0 f i libprotobuf:extension_set.obj
 0001:000324b0       ??$ReadPrimitive@H$0P@@WireFormatLite@internal@protobuf@google@@SA_NPAVCodedInputStream@io@23@PAH@Z 100334b0 f i libprotobuf:extension_set.obj
 0001:00032500       ??$ReadPrimitive@I$06@WireFormatLite@internal@protobuf@google@@SA_NPAVCodedInputStream@io@23@PAI@Z 10033500 f i libprotobuf:extension_set.obj
 0001:00032530       ??$ReadPrimitive@I$0N@@WireFormatLite@internal@protobuf@google@@SA_NPAVCodedInputStream@io@23@PAI@Z 10033530 f i libprotobuf:extension_set.obj
 0001:00032560       ??$ReadPrimitive@_J$0BC@@WireFormatLite@internal@protobuf@google@@SA_NPAVCodedInputStream@io@23@PA_J@Z 10033560 f i libprotobuf:extension_set.obj
 0001:000325d0       ??$ReadPrimitive@_K$03@WireFormatLite@internal@protobuf@google@@SA_NPAVCodedInputStream@io@23@PA_K@Z 100335d0 f i libprotobuf:extension_set.obj
 0001:00032610       ??$ReadPrimitive@_K$05@WireFormatLite@internal@protobuf@google@@SA_NPAVCodedInputStream@io@23@PA_K@Z 10033610 f i libprotobuf:extension_set.obj
 0001:00032650       ??$_Buynode@U?$pair@HUExtension@ExtensionSet@internal@protobuf@google@@@std@@@?$_Tree_comp_alloc@V?$_Tmap_traits@HUExtension@ExtensionSet@internal@protobuf@google@@U?$less@H@std@@V?$allocator@U?$pair@$$CBHUExtension@ExtensionSet@internal@protobuf@google@@@std@@@7@$0A@@std@@@std@@QAEPAU?$_Tree_node@U?$pair@$$CBHUExtension@ExtensionSet@internal@protobuf@google@@@std@@PAX@1@$$QAU?$pair@HUExtension@ExtensionSet@internal@protobuf@google@@@1@@Z 10033650 f i libprotobuf:extension_set.obj
 0001:00032690       ??$_Eqrange@H@?$_Tree@V?$_Tmap_traits@HUExtension@ExtensionSet@internal@protobuf@google@@U?$less@H@std@@V?$allocator@U?$pair@$$CBHUExtension@ExtensionSet@internal@protobuf@google@@@std@@@7@$0A@@std@@@std@@IBE?AU?$pair@V?$_Tree_const_iterator@V?$_Tree_val@U?$_Tree_simple_types@U?$pair@$$CBHUExtension@ExtensionSet@internal@protobuf@google@@@std@@@std@@@std@@@std@@V12@@1@ABH@Z 10033690 f i libprotobuf:extension_set.obj
 0001:00032710       ??$_Insert_at@AAU?$pair@$$CBHUExtension@ExtensionSet@internal@protobuf@google@@@std@@PAU?$_Tree_node@U?$pair@$$CBHUExtension@ExtensionSet@internal@protobuf@google@@@std@@PAX@2@@?$_Tree@V?$_Tmap_traits@HUExtension@ExtensionSet@internal@protobuf@google@@U?$less@H@std@@V?$allocator@U?$pair@$$CBHUExtension@ExtensionSet@internal@protobuf@google@@@std@@@7@$0A@@std@@@std@@IAE?AV?$_Tree_iterator@V?$_Tree_val@U?$_Tree_simple_types@U?$pair@$$CBHUExtension@ExtensionSet@internal@protobuf@google@@@std@@@std@@@std@@@1@_NPAU?$_Tree_node@U?$pair@$$CBHUExtension@ExtensionSet@internal@protobuf@google@@@std@@PAX@1@AAU?$pair@$$CBHUExtension@ExtensionSet@internal@protobuf@google@@@1@1@Z 10033710 f i libprotobuf:extension_set.obj
 0001:000328b0       ??$_Insert_nohint@AAU?$pair@$$CBHUExtension@ExtensionSet@internal@protobuf@google@@@std@@PAU?$_Tree_node@U?$pair@$$CBHUExtension@ExtensionSet@internal@protobuf@google@@@std@@PAX@2@@?$_Tree@V?$_Tmap_traits@HUExtension@ExtensionSet@internal@protobuf@google@@U?$less@H@std@@V?$allocator@U?$pair@$$CBHUExtension@ExtensionSet@internal@protobuf@google@@@std@@@7@$0A@@std@@@std@@IAE?AU?$pair@V?$_Tree_iterator@V?$_Tree_val@U?$_Tree_simple_types@U?$pair@$$CBHUExtension@ExtensionSet@internal@protobuf@google@@@std@@@std@@@std@@@std@@_N@1@_NAAU?$pair@$$CBHUExtension@ExtensionSet@internal@protobuf@google@@@1@PAU?$_Tree_node@U?$pair@$$CBHUExtension@ExtensionSet@internal@protobuf@google@@@std@@PAX@1@@Z 100338b0 f i libprotobuf:extension_set.obj
 0001:000329d0       ??0?$RepeatedPtrField@V?$basic_string@DU?$char_traits@D@std@@V?$allocator@D@2@@std@@@protobuf@google@@QAE@XZ 100339d0 f i libprotobuf:extension_set.obj
 0001:000329d0       ??0?$RepeatedPtrField@VMessageLite@protobuf@google@@@protobuf@google@@QAE@XZ 100339d0 f i libprotobuf:extension_set.obj
 0001:000329f0       ??0ExtensionSet@internal@protobuf@google@@QAE@XZ 100339f0 f   libprotobuf:extension_set.obj
 0001:00032a20       ??1ExtensionSet@internal@protobuf@google@@QAE@XZ 10033a20 f   libprotobuf:extension_set.obj
 0001:00032ad0       ??1ExtensionFinder@internal@protobuf@google@@UAE@XZ 10033ad0 f i libprotobuf:extension_set.obj
 0001:00032ad0       ??1GeneratedExtensionFinder@internal@protobuf@google@@UAE@XZ 10033ad0 f i libprotobuf:extension_set.obj
 0001:00032ae0       ??_G?$RepeatedPtrField@VMessageLite@protobuf@google@@@protobuf@google@@QAEPAXI@Z 10033ae0 f i libprotobuf:extension_set.obj
 0001:00032ae0       ??_G?$RepeatedPtrField@VMessage@protobuf@google@@@protobuf@google@@QAEPAXI@Z 10033ae0 f i libprotobuf:dynamic_message.obj
 0001:00032b30       ??_GExtensionFinder@internal@protobuf@google@@UAEPAXI@Z 10033b30 f i libprotobuf:extension_set.obj
 0001:00032b30       ??_EExtensionFinder@internal@protobuf@google@@UAEPAXI@Z 10033b30 f i libprotobuf:extension_set.obj
 0001:00032b60       ??_EFieldSkipper@internal@protobuf@google@@UAEPAXI@Z 10033b60 f i libprotobuf:extension_set.obj
 0001:00032b60       ??_GFieldSkipper@internal@protobuf@google@@UAEPAXI@Z 10033b60 f i libprotobuf:extension_set.obj
 0001:00032b90       ??_EGeneratedExtensionFinder@internal@protobuf@google@@UAEPAXI@Z 10033b90 f i libprotobuf:extension_set.obj
 0001:00032b90       ??_GGeneratedExtensionFinder@internal@protobuf@google@@UAEPAXI@Z 10033b90 f i libprotobuf:extension_set.obj
 0001:00032bc0       ?AddBool@ExtensionSet@internal@protobuf@google@@QAEXHE_N0PBVFieldDescriptor@34@@Z 10033bc0 f   libprotobuf:extension_set.obj
 0001:00032c80       ?AddDouble@ExtensionSet@internal@protobuf@google@@QAEXHE_NNPBVFieldDescriptor@34@@Z 10033c80 f   libprotobuf:extension_set.obj
 0001:00032d40       ?AddFloat@ExtensionSet@internal@protobuf@google@@QAEXHE_NMPBVFieldDescriptor@34@@Z 10033d40 f   libprotobuf:extension_set.obj
 0001:00032e00       ?AddInt32@ExtensionSet@internal@protobuf@google@@QAEXHE_NHPBVFieldDescriptor@34@@Z 10033e00 f   libprotobuf:extension_set.obj
 0001:00032e00       ?AddEnum@ExtensionSet@internal@protobuf@google@@QAEXHE_NHPBVFieldDescriptor@34@@Z 10033e00 f   libprotobuf:extension_set.obj
 0001:00032ec0       ?AddMessage@ExtensionSet@internal@protobuf@google@@QAEPAVMessageLite@34@HEABV534@PBVFieldDescriptor@34@@Z 10033ec0 f   libprotobuf:extension_set.obj
 0001:00032f90       ?AddString@ExtensionSet@internal@protobuf@google@@QAEPAV?$basic_string@DU?$char_traits@D@std@@V?$allocator@D@2@@std@@HEPBVFieldDescriptor@34@@Z 10033f90 f   libprotobuf:extension_set.obj
 0001:00033070       ?AddUInt32@ExtensionSet@internal@protobuf@google@@QAEXHE_NIPBVFieldDescriptor@34@@Z 10034070 f   libprotobuf:extension_set.obj
 0001:00033130       ?AddInt64@ExtensionSet@internal@protobuf@google@@QAEXHE_N_JPBVFieldDescriptor@34@@Z 10034130 f   libprotobuf:extension_set.obj
 0001:00033130       ?AddUInt64@ExtensionSet@internal@protobuf@google@@QAEXHE_N_KPBVFieldDescriptor@34@@Z 10034130 f   libprotobuf:extension_set.obj
 0001:000331f0       ?ByteSize@Extension@ExtensionSet@internal@protobuf@google@@QBEHH@Z 100341f0 f   libprotobuf:extension_set.obj
 0001:00033910       ?ByteSize@ExtensionSet@internal@protobuf@google@@QBEHXZ 10034910 f   libprotobuf:extension_set.obj
 0001:00033980       ?Clear@?$RepeatedPtrField@VMessageLite@protobuf@google@@@protobuf@google@@QAEXXZ 10034980 f i libprotobuf:extension_set.obj
 0001:00033980       ??$Clear@V?$GenericTypeHandler@VMessage@protobuf@google@@@internal@protobuf@google@@@RepeatedPtrFieldBase@internal@protobuf@google@@IAEXXZ 10034980 f i libprotobuf:generated_message_reflection.obj
 0001:000339b0       ?Clear@Extension@ExtensionSet@internal@protobuf@google@@QAEXXZ 100349b0 f   libprotobuf:extension_set.obj
 0001:00033aa0       ?Clear@ExtensionSet@internal@protobuf@google@@QAEXXZ 10034aa0 f   libprotobuf:extension_set.obj
 0001:00033b00       ?ClearExtension@ExtensionSet@internal@protobuf@google@@QAEXH@Z 10034b00 f   libprotobuf:extension_set.obj
 0001:00033b50       ?DestroyDefaultRepeatedFields@internal@protobuf@google@@YAXXZ 10034b50 f   libprotobuf:extension_set.obj
 0001:00033cd0       ?EnumSize@WireFormatLite@internal@protobuf@google@@SAHH@Z 10034cd0 f i libprotobuf:extension_set.obj
 0001:00033cd0       ?Int32Size@WireFormatLite@internal@protobuf@google@@SAHH@Z 10034cd0 f i libprotobuf:extension_set.obj
 0001:00033d00       ?ExtensionSize@ExtensionSet@internal@protobuf@google@@QBEHH@Z 10034d00 f   libprotobuf:extension_set.obj
 0001:00033d50       ?Find@GeneratedExtensionFinder@internal@protobuf@google@@UAE_NHPAUExtensionInfo@234@@Z 10034d50 f   libprotobuf:extension_set.obj
 0001:00033df0       ?Free@Extension@ExtensionSet@internal@protobuf@google@@QAEXXZ 10034df0 f   libprotobuf:extension_set.obj
 0001:00033f10       ?GetBool@ExtensionSet@internal@protobuf@google@@QBE_NH_N@Z 10034f10 f   libprotobuf:extension_set.obj
 0001:00033f70       ?GetDouble@ExtensionSet@internal@protobuf@google@@QBENHN@Z 10034f70 f   libprotobuf:extension_set.obj
 0001:00033fd0       ?GetFloat@ExtensionSet@internal@protobuf@google@@QBEMHM@Z 10034fd0 f   libprotobuf:extension_set.obj
 0001:00034030       ?GetRepeatedBool@ExtensionSet@internal@protobuf@google@@QBE_NHH@Z 10035030 f   libprotobuf:extension_set.obj
 0001:00034110       ?GetRepeatedDouble@ExtensionSet@internal@protobuf@google@@QBENHH@Z 10035110 f   libprotobuf:extension_set.obj
 0001:000341f0       ?GetRepeatedEnum@ExtensionSet@internal@protobuf@google@@QBEHHH@Z 100351f0 f   libprotobuf:extension_set.obj
 0001:000342d0       ?GetRepeatedFloat@ExtensionSet@internal@protobuf@google@@QBEMHH@Z 100352d0 f   libprotobuf:extension_set.obj
 0001:000343b0       ?GetRepeatedInt32@ExtensionSet@internal@protobuf@google@@QBEHHH@Z 100353b0 f   libprotobuf:extension_set.obj
 0001:00034490       ?GetRepeatedInt64@ExtensionSet@internal@protobuf@google@@QBE_JHH@Z 10035490 f   libprotobuf:extension_set.obj
 0001:00034570       ?GetRepeatedMessage@ExtensionSet@internal@protobuf@google@@QBEABVMessageLite@34@HH@Z 10035570 f   libprotobuf:extension_set.obj
 0001:00034650       ?GetRepeatedString@ExtensionSet@internal@protobuf@google@@QBEABV?$basic_string@DU?$char_traits@D@std@@V?$allocator@D@2@@std@@HH@Z 10035650 f   libprotobuf:extension_set.obj
 0001:00034730       ?GetRepeatedUInt32@ExtensionSet@internal@protobuf@google@@QBEIHH@Z 10035730 f   libprotobuf:extension_set.obj
 0001:00034810       ?GetRepeatedUInt64@ExtensionSet@internal@protobuf@google@@QBE_KHH@Z 10035810 f   libprotobuf:extension_set.obj
 0001:000348f0       ?GetSize@Extension@ExtensionSet@internal@protobuf@google@@QBEHXZ 100358f0 f   libprotobuf:extension_set.obj
 0001:000349c0       ?GetEnum@ExtensionSet@internal@protobuf@google@@QBEHHH@Z 100359c0 f   libprotobuf:extension_set.obj
 0001:000349c0       ?GetString@ExtensionSet@internal@protobuf@google@@QBEABV?$basic_string@DU?$char_traits@D@std@@V?$allocator@D@2@@std@@HABV56@@Z 100359c0 f   libprotobuf:extension_set.obj
 0001:000349c0       ?GetUInt32@ExtensionSet@internal@protobuf@google@@QBEIHI@Z 100359c0 f   libprotobuf:extension_set.obj
 0001:000349c0       ?GetInt32@ExtensionSet@internal@protobuf@google@@QBEHHH@Z 100359c0 f   libprotobuf:extension_set.obj
 0001:00034a20       ?GetUInt64@ExtensionSet@internal@protobuf@google@@QBE_KH_K@Z 10035a20 f   libprotobuf:extension_set.obj
 0001:00034a20       ?GetInt64@ExtensionSet@internal@protobuf@google@@QBE_JH_J@Z 10035a20 f   libprotobuf:extension_set.obj
 0001:00034a90       ?Has@ExtensionSet@internal@protobuf@google@@QBE_NH@Z 10035a90 f   libprotobuf:extension_set.obj
 0001:00034af0       ?InitializeDefaultRepeatedFields@internal@protobuf@google@@YAXXZ 10035af0 f   libprotobuf:extension_set.obj
 0001:00034cb0       ?IsInitialized@ExtensionSet@internal@protobuf@google@@QBE_NXZ 10035cb0 f   libprotobuf:extension_set.obj
 0001:00034db0       ?MaybeNewExtension@ExtensionSet@internal@protobuf@google@@AAE_NHPBVFieldDescriptor@34@PAPAUExtension@1234@@Z 10035db0 f   libprotobuf:extension_set.obj
 0001:00034e10       ?MergeFrom@?$RepeatedField@M@protobuf@google@@QAEXABV123@@Z 10035e10 f i libprotobuf:extension_set.obj
 0001:00034e10       ?MergeFrom@?$RepeatedField@I@protobuf@google@@QAEXABV123@@Z 10035e10 f i libprotobuf:extension_set.obj
 0001:00034ef0       ?MergeFrom@?$RepeatedField@N@protobuf@google@@QAEXABV123@@Z 10035ef0 f i libprotobuf:extension_set.obj
 0001:00034fd0       ?MergeFrom@?$RepeatedField@_K@protobuf@google@@QAEXABV123@@Z 10035fd0 f i libprotobuf:extension_set.obj
 0001:00034fd0       ?MergeFrom@?$RepeatedField@_J@protobuf@google@@QAEXABV123@@Z 10035fd0 f i libprotobuf:extension_set.obj
 0001:000350b0       ?MergeFrom@?$RepeatedField@_N@protobuf@google@@QAEXABV123@@Z 100360b0 f i libprotobuf:extension_set.obj
 0001:00035180       ?MergeFrom@ExtensionSet@internal@protobuf@google@@QAEXABV1234@@Z 10036180 f   libprotobuf:extension_set.obj
 0001:000357c0       ?MessageSize@WireFormatLite@internal@protobuf@google@@SAHABVMessageLite@34@@Z 100367c0 f i libprotobuf:extension_set.obj
 0001:000357f0       ?MutableMessage@ExtensionSet@internal@protobuf@google@@QAEPAVMessageLite@34@HEABV534@PBVFieldDescriptor@34@@Z 100367f0 f   libprotobuf:extension_set.obj
 0001:00035890       ?MutableRawRepeatedField@ExtensionSet@internal@protobuf@google@@QAEPAXHE_NPBVFieldDescriptor@34@@Z 10036890 f   libprotobuf:extension_set.obj
 0001:000359b0       ?MutableRepeatedMessage@ExtensionSet@internal@protobuf@google@@QAEPAVMessageLite@34@HH@Z 100369b0 f   libprotobuf:extension_set.obj
 0001:00035a90       ?MutableRepeatedString@ExtensionSet@internal@protobuf@google@@QAEPAV?$basic_string@DU?$char_traits@D@std@@V?$allocator@D@2@@std@@HH@Z 10036a90 f   libprotobuf:extension_set.obj
 0001:00035b70       ?MutableString@ExtensionSet@internal@protobuf@google@@QAEPAV?$basic_string@DU?$char_traits@D@std@@V?$allocator@D@2@@std@@HEPBVFieldDescriptor@34@@Z 10036b70 f   libprotobuf:extension_set.obj
 0001:00035c10       ?ParseField@ExtensionSet@internal@protobuf@google@@QAE_NIPAVCodedInputStream@io@34@PAVExtensionFinder@234@PAVFieldSkipper@234@@Z 10036c10 f   libprotobuf:extension_set.obj
 0001:00035cc0       ?ParseFieldWithExtensionInfo@ExtensionSet@internal@protobuf@google@@AAE_NH_NABUExtensionInfo@234@PAVCodedInputStream@io@34@PAVFieldSkipper@234@@Z 10036cc0 f   libprotobuf:extension_set.obj
 0001:000367e0       ?ReadGroup@WireFormatLite@internal@protobuf@google@@SA_NHPAVCodedInputStream@io@34@PAVMessageLite@34@@Z 100377e0 f i libprotobuf:extension_set.obj
 0001:00036830       ?ReadMessage@WireFormatLite@internal@protobuf@google@@SA_NPAVCodedInputStream@io@34@PAVMessageLite@34@@Z 10037830 f i libprotobuf:extension_set.obj
 0001:000368c0       ?ReleaseLast@ExtensionSet@internal@protobuf@google@@QAEPAVMessageLite@34@H@Z 100378c0 f   libprotobuf:extension_set.obj
 0001:000369b0       ?RemoveLast@?$RepeatedPtrField@V?$basic_string@DU?$char_traits@D@std@@V?$allocator@D@2@@std@@@protobuf@google@@QAEXXZ 100379b0 f i libprotobuf:extension_set.obj
 0001:000369e0       ?RemoveLast@ExtensionSet@internal@protobuf@google@@QAEXH@Z 100379e0 f   libprotobuf:extension_set.obj
 0001:00036b20       ?Reserve@?$RepeatedField@M@protobuf@google@@QAEXH@Z 10037b20 f i libprotobuf:extension_set.obj
 0001:00036b20       ?Reserve@?$RepeatedField@I@protobuf@google@@QAEXH@Z 10037b20 f i libprotobuf:extension_set.obj
 0001:00036ba0       ?Reserve@?$RepeatedField@N@protobuf@google@@QAEXH@Z 10037ba0 f i libprotobuf:extension_set.obj
 0001:00036c20       ?Reserve@?$RepeatedField@_J@protobuf@google@@QAEXH@Z 10037c20 f i libprotobuf:extension_set.obj
 0001:00036c20       ?Reserve@?$RepeatedField@_K@protobuf@google@@QAEXH@Z 10037c20 f i libprotobuf:extension_set.obj
 0001:00036ca0       ?Reserve@?$RepeatedField@_N@protobuf@google@@QAEXH@Z 10037ca0 f i libprotobuf:extension_set.obj
 0001:00036d00       ?SInt32Size@WireFormatLite@internal@protobuf@google@@SAHH@Z 10037d00 f i libprotobuf:extension_set.obj
 0001:00036d30       ?SInt64Size@WireFormatLite@internal@protobuf@google@@SAH_J@Z 10037d30 f i libprotobuf:extension_set.obj
 0001:00036d60       ?SerializeFieldWithCachedSizes@Extension@ExtensionSet@internal@protobuf@google@@QBEXHPAVCodedOutputStream@io@45@@Z 10037d60 f   libprotobuf:extension_set.obj
 0001:00037670       ?SerializeWithCachedSizes@ExtensionSet@internal@protobuf@google@@QBEXHHPAVCodedOutputStream@io@34@@Z 10038670 f   libprotobuf:extension_set.obj
 0001:00037720       ?SetAllocatedMessage@ExtensionSet@internal@protobuf@google@@QAEXHEPBVFieldDescriptor@34@PAVMessageLite@34@@Z 10038720 f   libprotobuf:extension_set.obj
 0001:00037810       ?SetBool@ExtensionSet@internal@protobuf@google@@QAEXHE_NPBVFieldDescriptor@34@@Z 10038810 f   libprotobuf:extension_set.obj
 0001:00037880       ?SetDouble@ExtensionSet@internal@protobuf@google@@QAEXHENPBVFieldDescriptor@34@@Z 10038880 f   libprotobuf:extension_set.obj
 0001:000378f0       ?SetUInt32@ExtensionSet@internal@protobuf@google@@QAEXHEIPBVFieldDescriptor@34@@Z 100388f0 f   libprotobuf:extension_set.obj
 0001:000378f0       ?SetEnum@ExtensionSet@internal@protobuf@google@@QAEXHEHPBVFieldDescriptor@34@@Z 100388f0 f   libprotobuf:extension_set.obj
 0001:000378f0       ?SetInt32@ExtensionSet@internal@protobuf@google@@QAEXHEHPBVFieldDescriptor@34@@Z 100388f0 f   libprotobuf:extension_set.obj
 0001:00037960       ?SetFloat@ExtensionSet@internal@protobuf@google@@QAEXHEMPBVFieldDescriptor@34@@Z 10038960 f   libprotobuf:extension_set.obj
 0001:000379d0       ?SetRepeatedBool@ExtensionSet@internal@protobuf@google@@QAEXHH_N@Z 100389d0 f   libprotobuf:extension_set.obj
 0001:00037ab0       ?SetRepeatedDouble@ExtensionSet@internal@protobuf@google@@QAEXHHN@Z 10038ab0 f   libprotobuf:extension_set.obj
 0001:00037ba0       ?SetRepeatedEnum@ExtensionSet@internal@protobuf@google@@QAEXHHH@Z 10038ba0 f   libprotobuf:extension_set.obj
 0001:00037c80       ?SetRepeatedFloat@ExtensionSet@internal@protobuf@google@@QAEXHHM@Z 10038c80 f   libprotobuf:extension_set.obj
 0001:00037d70       ?SetRepeatedInt32@ExtensionSet@internal@protobuf@google@@QAEXHHH@Z 10038d70 f   libprotobuf:extension_set.obj
 0001:00037e50       ?SetRepeatedInt64@ExtensionSet@internal@protobuf@google@@QAEXHH_J@Z 10038e50 f   libprotobuf:extension_set.obj
 0001:00037f40       ?SetRepeatedUInt32@ExtensionSet@internal@protobuf@google@@QAEXHHI@Z 10038f40 f   libprotobuf:extension_set.obj
 0001:00038020       ?SetRepeatedUInt64@ExtensionSet@internal@protobuf@google@@QAEXHH_K@Z 10039020 f   libprotobuf:extension_set.obj
 0001:00038110       ?SetUInt64@ExtensionSet@internal@protobuf@google@@QAEXHE_KPBVFieldDescriptor@34@@Z 10039110 f   libprotobuf:extension_set.obj
 0001:00038110       ?SetInt64@ExtensionSet@internal@protobuf@google@@QAEXHE_JPBVFieldDescriptor@34@@Z 10039110 f   libprotobuf:extension_set.obj
 0001:00038180       ?BytesSize@WireFormatLite@internal@protobuf@google@@SAHABV?$basic_string@DU?$char_traits@D@std@@V?$allocator@D@2@@std@@@Z 10039180 f i libprotobuf:extension_set.obj
 0001:00038180       ?StringSize@WireFormatLite@internal@protobuf@google@@SAHABV?$basic_string@DU?$char_traits@D@std@@V?$allocator@D@2@@std@@@Z 10039180 f i libprotobuf:extension_set.obj
 0001:000381b0       ?Swap@ExtensionSet@internal@protobuf@google@@QAEXPAV1234@@Z 100391b0 f   libprotobuf:extension_set.obj
 0001:000381e0       ?SwapElements@?$RepeatedField@_J@protobuf@google@@QAEXHH@Z 100391e0 f i libprotobuf:extension_set.obj
 0001:000381e0       ?SwapElements@?$RepeatedField@_K@protobuf@google@@QAEXHH@Z 100391e0 f i libprotobuf:extension_set.obj
 0001:00038210       ?SwapElements@ExtensionSet@internal@protobuf@google@@QAEXHHH@Z 10039210 f   libprotobuf:extension_set.obj
 0001:000383c0       ?SwapExtension@ExtensionSet@internal@protobuf@google@@QAEXPAV1234@H@Z 100393c0 f   libprotobuf:extension_set.obj
 0001:000384e0       ?VarintSize32@CodedOutputStream@io@protobuf@google@@SAHI@Z 100394e0 f i libprotobuf:extension_set.obj
 0001:000384e0       ?UInt32Size@WireFormatLite@internal@protobuf@google@@SAHI@Z 100394e0 f i libprotobuf:extension_set.obj
 0001:00038500       ?WriteInt32NoTag@WireFormatLite@internal@protobuf@google@@SAXHPAVCodedOutputStream@io@34@@Z 10039500 f i libprotobuf:extension_set.obj
 0001:00038500       ?WriteEnumNoTag@WireFormatLite@internal@protobuf@google@@SAXHPAVCodedOutputStream@io@34@@Z 10039500 f i libprotobuf:extension_set.obj
 0001:00038520       ?WriteSInt32NoTag@WireFormatLite@internal@protobuf@google@@SAXHPAVCodedOutputStream@io@34@@Z 10039520 f i libprotobuf:extension_set.obj
 0001:00038540       ?WriteSInt64NoTag@WireFormatLite@internal@protobuf@google@@SAX_JPAVCodedOutputStream@io@34@@Z 10039540 f i libprotobuf:extension_set.obj
 0001:00038570       ?_Buynode0@?$_Tree_comp_alloc@V?$_Tmap_traits@HUExtension@ExtensionSet@internal@protobuf@google@@U?$less@H@std@@V?$allocator@U?$pair@$$CBHUExtension@ExtensionSet@internal@protobuf@google@@@std@@@7@$0A@@std@@@std@@QAEPAU?$_Tree_node@U?$pair@$$CBHUExtension@ExtensionSet@internal@protobuf@google@@@std@@PAX@2@XZ 10039570 f i libprotobuf:extension_set.obj
 0001:00038570       ?_Buynode0@?$_Tree_comp_alloc@V?$_Tmap_traits@V?$basic_string@DU?$char_traits@D@std@@V?$allocator@D@2@@std@@U?$pair@PBXH@2@U?$less@V?$basic_string@DU?$char_traits@D@std@@V?$allocator@D@2@@std@@@2@V?$allocator@U?$pair@$$CBV?$basic_string@DU?$char_traits@D@std@@V?$allocator@D@2@@std@@U?$pair@PBXH@2@@std@@@2@$0A@@std@@@std@@QAEPAU?$_Tree_node@U?$pair@$$CBV?$basic_string@DU?$char_traits@D@std@@V?$allocator@D@2@@std@@U?$pair@PBXH@2@@std@@PAX@2@XZ 10039570 f i libprotobuf:descriptor_database.obj
 0001:000385b0       ?_Erase@?$_Tree@V?$_Tmap_traits@PBDPBVFileDescriptor@protobuf@google@@U?$hash@PBD@23@V?$allocator@U?$pair@QBDPBVFileDescriptor@protobuf@google@@@std@@@std@@$0A@@std@@@std@@IAEXPAU?$_Tree_node@U?$pair@QBDPBVFileDescriptor@protobuf@google@@@std@@PAX@2@@Z 100395b0 f i libprotobuf:descriptor.obj
 0001:000385b0       ?_Erase@?$_Tree@V?$_Tmap_traits@U?$pair@PBVDescriptor@protobuf@google@@H@std@@PBVFieldDescriptor@protobuf@google@@U?$PointerIntegerPairHash@U?$pair@PBVDescriptor@protobuf@google@@H@std@@@?A0x0ecadf1d@45@V?$allocator@U?$pair@$$CBU?$pair@PBVDescriptor@protobuf@google@@H@std@@PBVFieldDescriptor@protobuf@google@@@std@@@2@$0A@@std@@@std@@IAEXPAU?$_Tree_node@U?$pair@$$CBU?$pair@PBVDescriptor@protobuf@google@@H@std@@PBVFieldDescriptor@protobuf@google@@@std@@PAX@2@@Z 100395b0 f i libprotobuf:descriptor.obj
 0001:000385b0       ?_Erase@?$_Tree@V?$_Tmap_traits@U?$pair@PBXPBD@std@@PBVFieldDescriptor@protobuf@google@@UPointerStringPairHash@?A0x0ecadf1d@45@V?$allocator@U?$pair@$$CBU?$pair@PBXPBD@std@@PBVFieldDescriptor@protobuf@google@@@std@@@2@$0A@@std@@@std@@IAEXPAU?$_Tree_node@U?$pair@$$CBU?$pair@PBXPBD@std@@PBVFieldDescriptor@protobuf@google@@@std@@PAX@2@@Z 100395b0 f i libprotobuf:descriptor.obj
 0001:000385b0       ?_Erase@?$_Tree@V?$_Tmap_traits@U?$pair@PBXPBD@std@@USymbol@?A0x0ecadf1d@protobuf@google@@UPointerStringPairHash@456@V?$allocator@U?$pair@$$CBU?$pair@PBXPBD@std@@USymbol@?A0x0ecadf1d@protobuf@google@@@std@@@2@$0A@@std@@@std@@IAEXPAU?$_Tree_node@U?$pair@$$CBU?$pair@PBXPBD@std@@USymbol@?A0x0ecadf1d@protobuf@google@@@std@@PAX@2@@Z 100395b0 f i libprotobuf:descriptor.obj
 0001:000385b0       ?_Erase@?$_Tree@V?$_Tmap_traits@PBDP6AXABV?$basic_string@DU?$char_traits@D@std@@V?$allocator@D@2@@std@@@ZU?$hash@PBD@protobuf@google@@V?$allocator@U?$pair@QBDP6AXABV?$basic_string@DU?$char_traits@D@std@@V?$allocator@D@2@@std@@@Z@std@@@2@$0A@@std@@@std@@IAEXPAU?$_Tree_node@U?$pair@QBDP6AXABV?$basic_string@DU?$char_traits@D@std@@V?$allocator@D@2@@std@@@Z@std@@PAX@2@@Z 100395b0 f i libprotobuf:message.obj
 0001:000385b0       ?_Erase@?$_Tree@V?$_Tmap_traits@PBVDescriptor@protobuf@google@@PBVMessage@23@U?$hash@PBVDescriptor@protobuf@google@@@23@V?$allocator@U?$pair@QBVDescriptor@protobuf@google@@PBVMessage@23@@std@@@std@@$0A@@std@@@std@@IAEXPAU?$_Tree_node@U?$pair@QBVDescriptor@protobuf@google@@PBVMessage@23@@std@@PAX@2@@Z 100395b0 f i libprotobuf:message.obj
 0001:000385b0       ?_Erase@?$_Tree@V?$_Tmap_traits@U?$pair@PBVEnumDescriptor@protobuf@google@@H@std@@PBVEnumValueDescriptor@protobuf@google@@U?$PointerIntegerPairHash@U?$pair@PBVEnumDescriptor@protobuf@google@@H@std@@@?A0x0ecadf1d@45@V?$allocator@U?$pair@$$CBU?$pair@PBVEnumDescriptor@protobuf@google@@H@std@@PBVEnumValueDescriptor@protobuf@google@@@std@@@2@$0A@@std@@@std@@IAEXPAU?$_Tree_node@U?$pair@$$CBU?$pair@PBVEnumDescriptor@protobuf@google@@H@std@@PBVEnumValueDescriptor@protobuf@google@@@std@@PAX@2@@Z 100395b0 f i libprotobuf:descriptor.obj
 0001:000385b0       ?_Erase@?$_Tree@V?$_Tset_traits@PBVDescriptor@protobuf@google@@U?$hash@PBVDescriptor@protobuf@google@@@23@V?$allocator@PBVDescriptor@protobuf@google@@@std@@$0A@@std@@@std@@IAEXPAU?$_Tree_node@PBVDescriptor@protobuf@google@@PAX@2@@Z 100395b0 f i libprotobuf:descriptor.obj
 0001:000385b0       ?_Erase@?$_Tree@V?$_Tmap_traits@HUExtension@ExtensionSet@internal@protobuf@google@@U?$less@H@std@@V?$allocator@U?$pair@$$CBHUExtension@ExtensionSet@internal@protobuf@google@@@std@@@7@$0A@@std@@@std@@IAEXPAU?$_Tree_node@U?$pair@$$CBHUExtension@ExtensionSet@internal@protobuf@google@@@std@@PAX@2@@Z 100395b0 f i libprotobuf:extension_set.obj
 0001:000385b0       ?_Erase@?$_Tree@V?$_Tmap_traits@PBDUSymbol@?A0x0ecadf1d@protobuf@google@@U?$hash@PBD@34@V?$allocator@U?$pair@QBDUSymbol@?A0x0ecadf1d@protobuf@google@@@std@@@std@@$0A@@std@@@std@@IAEXPAU?$_Tree_node@U?$pair@QBDUSymbol@?A0x0ecadf1d@protobuf@google@@@std@@PAX@2@@Z 100395b0 f i libprotobuf:descriptor.obj
 0001:000385b0       ?_Erase@?$_Tree@V?$_Tset_traits@PBVFileDescriptor@protobuf@google@@U?$less@PBVFileDescriptor@protobuf@google@@@std@@V?$allocator@PBVFileDescriptor@protobuf@google@@@5@$0A@@std@@@std@@IAEXPAU?$_Tree_node@PBVFileDescriptor@protobuf@google@@PAX@2@@Z 100395b0 f i libprotobuf:descriptor.obj
 0001:000385b0       ?_Erase@?$_Tree@V?$_Tmap_traits@PBVFieldDescriptor@protobuf@google@@PBVFieldValuePrinter@TextFormat@23@U?$less@PBVFieldDescriptor@protobuf@google@@@std@@V?$allocator@U?$pair@QBVFieldDescriptor@protobuf@google@@PBVFieldValuePrinter@TextFormat@23@@std@@@7@$0A@@std@@@std@@IAEXPAU?$_Tree_node@U?$pair@QBVFieldDescriptor@protobuf@google@@PBVFieldValuePrinter@TextFormat@23@@std@@PAX@2@@Z 100395b0 f i libprotobuf:text_format.obj
 0001:000385b0       ?_Erase@?$_Tree@V?$_Tmap_traits@PBVDescriptor@protobuf@google@@PBUTypeInfo@DynamicMessage@23@U?$hash@PBVDescriptor@protobuf@google@@@23@V?$allocator@U?$pair@QBVDescriptor@protobuf@google@@PBUTypeInfo@DynamicMessage@23@@std@@@std@@$0A@@std@@@std@@IAEXPAU?$_Tree_node@U?$pair@QBVDescriptor@protobuf@google@@PBUTypeInfo@DynamicMessage@23@@std@@PAX@2@@Z 100395b0 f i libprotobuf:dynamic_message.obj
 0001:000385b0       ?_Erase@?$_Tree@V?$_Tset_traits@PBVDescriptor@protobuf@google@@U?$less@PBVDescriptor@protobuf@google@@@std@@V?$allocator@PBVDescriptor@protobuf@google@@@5@$0A@@std@@@std@@IAEXPAU?$_Tree_node@PBVDescriptor@protobuf@google@@PAX@2@@Z 100395b0 f i libprotobuf:descriptor.obj
 0001:000385b0       ?_Erase@?$_Tree@V?$_Tset_traits@HU?$less@H@std@@V?$allocator@H@2@$0A@@std@@@std@@IAEXPAU?$_Tree_node@HPAX@2@@Z 100395b0 f i libprotobuf:descriptor.obj
 0001:000385b0       ?_Erase@?$_Tree@V?$_Tmap_traits@U?$pair@PBVDescriptor@protobuf@google@@H@std@@PBVFieldDescriptor@protobuf@google@@U?$less@U?$pair@PBVDescriptor@protobuf@google@@H@std@@@2@V?$allocator@U?$pair@$$CBU?$pair@PBVDescriptor@protobuf@google@@H@std@@PBVFieldDescriptor@protobuf@google@@@std@@@2@$0A@@std@@@std@@IAEXPAU?$_Tree_node@U?$pair@$$CBU?$pair@PBVDescriptor@protobuf@google@@H@std@@PBVFieldDescriptor@protobuf@google@@@std@@PAX@2@@Z 100395b0 f i libprotobuf:descriptor.obj
 0001:000385f0       ?erase@?$_Tree@V?$_Tmap_traits@HUExtension@ExtensionSet@internal@protobuf@google@@U?$less@H@std@@V?$allocator@U?$pair@$$CBHUExtension@ExtensionSet@internal@protobuf@google@@@std@@@7@$0A@@std@@@std@@QAEIABH@Z 100395f0 f i libprotobuf:extension_set.obj
 0001:00038680       ??1DescriptorPoolExtensionFinder@internal@protobuf@google@@UAE@XZ 10039680 f i libprotobuf:extension_set_heavy.obj
 0001:00038690       ??1UnknownFieldSetFieldSkipper@internal@protobuf@google@@UAE@XZ 10039690 f i libprotobuf:extension_set_heavy.obj
 0001:000386a0       ??_EDescriptorPoolExtensionFinder@internal@protobuf@google@@UAEPAXI@Z 100396a0 f i libprotobuf:extension_set_heavy.obj
 0001:000386a0       ??_GDescriptorPoolExtensionFinder@internal@protobuf@google@@UAEPAXI@Z 100396a0 f i libprotobuf:extension_set_heavy.obj
 0001:000386d0       ??_EUnknownFieldSetFieldSkipper@internal@protobuf@google@@UAEPAXI@Z 100396d0 f i libprotobuf:extension_set_heavy.obj
 0001:000386d0       ??_GUnknownFieldSetFieldSkipper@internal@protobuf@google@@UAEPAXI@Z 100396d0 f i libprotobuf:extension_set_heavy.obj
 0001:00038700       ?AddMessage@ExtensionSet@internal@protobuf@google@@QAEPAVMessageLite@34@PBVFieldDescriptor@34@PAVMessageFactory@34@@Z 10039700 f   libprotobuf:extension_set_heavy.obj
 0001:00038850       ?AppendToList@ExtensionSet@internal@protobuf@google@@QBEXPBVDescriptor@34@PBVDescriptorPool@34@PAV?$vector@PBVFieldDescriptor@protobuf@google@@V?$allocator@PBVFieldDescriptor@protobuf@google@@@std@@@std@@@Z 10039850 f   libprotobuf:extension_set_heavy.obj
 0001:000389a0       ?Find@DescriptorPoolExtensionFinder@internal@protobuf@google@@UAE_NHPAUExtensionInfo@234@@Z 100399a0 f   libprotobuf:extension_set_heavy.obj
 0001:00038ac0       ?GetMessage@ExtensionSet@internal@protobuf@google@@QBEABVMessageLite@34@HPBVDescriptor@34@PAVMessageFactory@34@@Z 10039ac0 f   libprotobuf:extension_set_heavy.obj
 0001:00038b60       ?MutableMessage@ExtensionSet@internal@protobuf@google@@QAEPAVMessageLite@34@PBVFieldDescriptor@34@PAVMessageFactory@34@@Z 10039b60 f   libprotobuf:extension_set_heavy.obj
 0001:00038c00       ?ParseField@ExtensionSet@internal@protobuf@google@@QAE_NIPAVCodedInputStream@io@34@PBVMessage@34@PAVUnknownFieldSet@34@@Z 10039c00 f   libprotobuf:extension_set_heavy.obj
 0001:00038ce0       ?ReleaseMessage@ExtensionSet@internal@protobuf@google@@QAEPAVMessageLite@34@PBVFieldDescriptor@34@PAVMessageFactory@34@@Z 10039ce0 f   libprotobuf:extension_set_heavy.obj
 0001:00038db0       ?RepeatedMessage_SpaceUsedExcludingSelf@ExtensionSet@internal@protobuf@google@@CAHPAVRepeatedPtrFieldBase@234@@Z 10039db0 f i libprotobuf:extension_set_heavy.obj
 0001:00038df0       ?SerializeFieldWithCachedSizesToArray@Extension@ExtensionSet@internal@protobuf@google@@QBEPAEHPAE@Z 10039df0 f   libprotobuf:extension_set_heavy.obj
 0001:000397a0       ?SerializeWithCachedSizesToArray@ExtensionSet@internal@protobuf@google@@QBEPAEHHPAE@Z 1003a7a0 f   libprotobuf:extension_set_heavy.obj
 0001:00039840       ?SpaceUsedExcludingSelf@?$RepeatedPtrField@V?$basic_string@DU?$char_traits@D@std@@V?$allocator@D@2@@std@@@protobuf@google@@QBEHXZ 1003a840 f i libprotobuf:extension_set_heavy.obj
 0001:00039880       ?SpaceUsedExcludingSelf@Extension@ExtensionSet@internal@protobuf@google@@QBEHXZ 1003a880 f   libprotobuf:extension_set_heavy.obj
 0001:00039960       ?SpaceUsedExcludingSelf@ExtensionSet@internal@protobuf@google@@QBEHXZ 1003a960 f   libprotobuf:extension_set_heavy.obj
 0001:000399f0       ?WriteBoolNoTagToArray@WireFormatLite@internal@protobuf@google@@SAPAE_NPAE@Z 1003a9f0 f i libprotobuf:extension_set_heavy.obj
 0001:00039a20       ?WriteDoubleToArray@WireFormatLite@internal@protobuf@google@@SAPAEHNPAE@Z 1003aa20 f i libprotobuf:extension_set_heavy.obj
 0001:00039a90       ?WriteEnumNoTagToArray@WireFormatLite@internal@protobuf@google@@SAPAEHPAE@Z 1003aa90 f i libprotobuf:extension_set_heavy.obj
 0001:00039a90       ?WriteInt32NoTagToArray@WireFormatLite@internal@protobuf@google@@SAPAEHPAE@Z 1003aa90 f i libprotobuf:extension_set_heavy.obj
 0001:00039ad0       ?WriteFloatToArray@WireFormatLite@internal@protobuf@google@@SAPAEHMPAE@Z 1003aad0 f i libprotobuf:extension_set_heavy.obj
 0001:00039b40       ?WriteGroupToArray@WireFormatLite@internal@protobuf@google@@SAPAEHABVMessageLite@34@PAE@Z 1003ab40 f i libprotobuf:extension_set_heavy.obj
 0001:00039bd0       ?WriteMessageToArray@WireFormatLite@internal@protobuf@google@@SAPAEHABVMessageLite@34@PAE@Z 1003abd0 f i libprotobuf:extension_set_heavy.obj
 0001:00039c60       ?WriteSFixed32ToArray@WireFormatLite@internal@protobuf@google@@SAPAEHHPAE@Z 1003ac60 f i libprotobuf:extension_set_heavy.obj
 0001:00039c60       ?WriteFixed32ToArray@WireFormatLite@internal@protobuf@google@@SAPAEHIPAE@Z 1003ac60 f i libprotobuf:extension_set_heavy.obj
 0001:00039cd0       ?WriteFixed64ToArray@WireFormatLite@internal@protobuf@google@@SAPAEH_KPAE@Z 1003acd0 f i libprotobuf:extension_set_heavy.obj
 0001:00039cd0       ?WriteSFixed64ToArray@WireFormatLite@internal@protobuf@google@@SAPAEH_JPAE@Z 1003acd0 f i libprotobuf:extension_set_heavy.obj
 0001:00039d50       ?WriteSInt32NoTagToArray@WireFormatLite@internal@protobuf@google@@SAPAEHPAE@Z 1003ad50 f i libprotobuf:extension_set_heavy.obj
 0001:00039d80       ?WriteSInt32ToArray@WireFormatLite@internal@protobuf@google@@SAPAEHHPAE@Z 1003ad80 f i libprotobuf:extension_set_heavy.obj
 0001:00039df0       ?WriteSInt64NoTagToArray@WireFormatLite@internal@protobuf@google@@SAPAE_JPAE@Z 1003adf0 f i libprotobuf:extension_set_heavy.obj
 0001:00039e20       ?WriteSInt64ToArray@WireFormatLite@internal@protobuf@google@@SAPAEH_JPAE@Z 1003ae20 f i libprotobuf:extension_set_heavy.obj
 0001:00039e90       ?WriteTagToArray@WireFormatLite@internal@protobuf@google@@SAPAEHW4WireType@1234@PAE@Z 1003ae90 f i libprotobuf:extension_set_heavy.obj
 0001:00039ee0       ?WriteUInt32NoTagToArray@WireFormatLite@internal@protobuf@google@@SAPAEIPAE@Z 1003aee0 f i libprotobuf:extension_set_heavy.obj
 0001:00039f00       ?WriteUInt32ToArray@WireFormatLite@internal@protobuf@google@@SAPAEHIPAE@Z 1003af00 f i libprotobuf:extension_set_heavy.obj
 0001:00039f70       ?WriteInt64ToArray@WireFormatLite@internal@protobuf@google@@SAPAEH_JPAE@Z 1003af70 f i libprotobuf:extension_set_heavy.obj
 0001:00039f70       ?WriteUInt64ToArray@WireFormatLite@internal@protobuf@google@@SAPAEH_KPAE@Z 1003af70 f i libprotobuf:extension_set_heavy.obj
 0001:00039ff0       ??$_Uninit_move@PAVUnknownField@protobuf@google@@PAV123@V?$allocator@VUnknownField@protobuf@google@@@std@@V123@@std@@YAPAVUnknownField@protobuf@google@@PAV123@00AAU?$_Wrap_alloc@V?$allocator@VUnknownField@protobuf@google@@@std@@@0@0U_Nonscalar_ptr_iterator_tag@0@@Z 1003aff0 f i libprotobuf:unknown_field_set.obj
 0001:0003a020       ??0UnknownFieldSet@protobuf@google@@QAE@XZ 1003b020 f   libprotobuf:unknown_field_set.obj
 0001:0003a030       ??1UnknownFieldSet@protobuf@google@@QAE@XZ 1003b030 f   libprotobuf:unknown_field_set.obj
 0001:0003a0c0       ?AddFixed32@UnknownFieldSet@protobuf@google@@QAEXHI@Z 1003b0c0 f   libprotobuf:unknown_field_set.obj
 0001:0003a120       ?AddFixed64@UnknownFieldSet@protobuf@google@@QAEXH_K@Z 1003b120 f   libprotobuf:unknown_field_set.obj
 0001:0003a190       ?AddGroup@UnknownFieldSet@protobuf@google@@QAEPAV123@H@Z 1003b190 f   libprotobuf:unknown_field_set.obj
 0001:0003a210       ?AddLengthDelimited@UnknownFieldSet@protobuf@google@@QAEPAV?$basic_string@DU?$char_traits@D@std@@V?$allocator@D@2@@std@@H@Z 1003b210 f   libprotobuf:unknown_field_set.obj
 0001:0003a2a0       ?AddVarint@UnknownFieldSet@protobuf@google@@QAEXH_K@Z 1003b2a0 f   libprotobuf:unknown_field_set.obj
 0001:0003a310       ?ClearFallback@UnknownFieldSet@protobuf@google@@AAEXXZ 1003b310 f   libprotobuf:unknown_field_set.obj
 0001:0003a420       ?DeepCopy@UnknownField@protobuf@google@@AAEXXZ 1003b420 f   libprotobuf:unknown_field_set.obj
 0001:0003a520       ?MergeFrom@UnknownFieldSet@protobuf@google@@QAEXABV123@@Z 1003b520 f   libprotobuf:unknown_field_set.obj
 0001:0003a600       ?MergeFromCodedStream@UnknownFieldSet@protobuf@google@@QAE_NPAVCodedInputStream@io@23@@Z 1003b600 f   libprotobuf:unknown_field_set.obj
 0001:0003a6e0       ?ParseFromArray@UnknownFieldSet@protobuf@google@@QAE_NPBXH@Z 1003b6e0 f   libprotobuf:unknown_field_set.obj
 0001:0003a780       ?SerializeLengthDelimitedNoTag@UnknownField@protobuf@google@@QBEXPAVCodedOutputStream@io@23@@Z 1003b780 f   libprotobuf:unknown_field_set.obj
 0001:0003a7d0       ?SpaceUsedExcludingSelf@UnknownFieldSet@protobuf@google@@QBEHXZ 1003b7d0 f   libprotobuf:unknown_field_set.obj
 0001:0003a850       ?_Reallocate@?$vector@VUnknownField@protobuf@google@@V?$allocator@VUnknownField@protobuf@google@@@std@@@std@@IAEXI@Z 1003b850 f i libprotobuf:unknown_field_set.obj
 0001:0003a910       ?_Reserve@?$vector@VUnknownField@protobuf@google@@V?$allocator@VUnknownField@protobuf@google@@@std@@@std@@IAEXI@Z 1003b910 f i libprotobuf:unknown_field_set.obj
 0001:0003a980       ?allocate@?$allocator@VUnknownField@protobuf@google@@@std@@QAEPAVUnknownField@protobuf@google@@I@Z 1003b980 f i libprotobuf:unknown_field_set.obj
 0001:0003a9f0       ?deallocate@?$allocator@VUnknownField@protobuf@google@@@std@@QAEXPAVUnknownField@protobuf@google@@I@Z 1003b9f0 f i libprotobuf:unknown_field_set.obj
 0001:0003aa50       ?push_back@?$vector@VUnknownField@protobuf@google@@V?$allocator@VUnknownField@protobuf@google@@@std@@@std@@QAEXABVUnknownField@protobuf@google@@@Z 1003ba50 f i libprotobuf:unknown_field_set.obj
 0001:0003aac0       ??0CodedOutputStream@io@protobuf@google@@QAE@PAVZeroCopyOutputStream@123@@Z 1003bac0 f   libprotobuf:coded_stream.obj
 0001:0003ab30       ??1CodedInputStream@io@protobuf@google@@QAE@XZ 1003bb30 f   libprotobuf:coded_stream.obj
 0001:0003abf0       ??1CodedOutputStream@io@protobuf@google@@QAE@XZ 1003bbf0 f   libprotobuf:coded_stream.obj
 0001:0003ac30       ?BytesUntilLimit@CodedInputStream@io@protobuf@google@@QBEHXZ 1003bc30 f   libprotobuf:coded_stream.obj
 0001:0003ac50       ?InternalReadStringInline@CodedInputStream@io@protobuf@google@@QAE_NPAV?$basic_string@DU?$char_traits@D@std@@V?$allocator@D@2@@std@@H@Z 1003bc50 f i libprotobuf:coded_stream.obj
 0001:0003ace0       ?PopLimit@CodedInputStream@io@protobuf@google@@QAEXH@Z 1003bce0 f   libprotobuf:coded_stream.obj
 0001:0003ad30       ?PrintTotalBytesLimitError@CodedInputStream@io@protobuf@google@@AAEXXZ 1003bd30 f   libprotobuf:coded_stream.obj
 0001:0003add0       ?PushLimit@CodedInputStream@io@protobuf@google@@QAEHH@Z 1003bdd0 f   libprotobuf:coded_stream.obj
 0001:0003ae60       ?ReadLittleEndian32Fallback@CodedInputStream@io@protobuf@google@@AAE_NPAI@Z 1003be60 f   libprotobuf:coded_stream.obj
 0001:0003aec0       ?ReadLittleEndian64Fallback@CodedInputStream@io@protobuf@google@@AAE_NPA_K@Z 1003bec0 f   libprotobuf:coded_stream.obj
 0001:0003af30       ?ReadRaw@CodedInputStream@io@protobuf@google@@QAE_NPAXH@Z 1003bf30 f   libprotobuf:coded_stream.obj
 0001:0003b1e0       ?ReadString@CodedInputStream@io@protobuf@google@@QAE_NPAV?$basic_string@DU?$char_traits@D@std@@V?$allocator@D@2@@std@@H@Z 1003c1e0 f   libprotobuf:coded_stream.obj
 0001:0003b200       ?ReadStringFallback@CodedInputStream@io@protobuf@google@@AAE_NPAV?$basic_string@DU?$char_traits@D@std@@V?$allocator@D@2@@std@@H@Z 1003c200 f   libprotobuf:coded_stream.obj
 0001:0003b2c0       ?ReadTagFallback@CodedInputStream@io@protobuf@google@@AAEIXZ 1003c2c0 f   libprotobuf:coded_stream.obj
 0001:0003b330       ?ReadTagSlow@CodedInputStream@io@protobuf@google@@AAEIXZ 1003c330 f   libprotobuf:coded_stream.obj
 0001:0003b3b0       ?ReadVarint32Fallback@CodedInputStream@io@protobuf@google@@AAE_NPAI@Z 1003c3b0 f   libprotobuf:coded_stream.obj
 0001:0003b4a0       ?ReadVarint64Fallback@CodedInputStream@io@protobuf@google@@AAE_NPA_K@Z 1003c4a0 f   libprotobuf:coded_stream.obj
 0001:0003b5e0       ?ReadVarint64Slow@CodedInputStream@io@protobuf@google@@AAE_NPA_K@Z 1003c5e0 f   libprotobuf:coded_stream.obj
 0001:0003b910       ?Refresh@CodedInputStream@io@protobuf@google@@AAE_NXZ 1003c910 f   libprotobuf:coded_stream.obj
 0001:0003baf0       ?Skip@CodedInputStream@io@protobuf@google@@QAE_NH@Z 1003caf0 f   libprotobuf:coded_stream.obj
 0001:0003bb90       ?VarintSize32Fallback@CodedOutputStream@io@protobuf@google@@CAHI@Z 1003cb90 f   libprotobuf:coded_stream.obj
 0001:0003bbd0       ?VarintSize64@CodedOutputStream@io@protobuf@google@@SAH_K@Z 1003cbd0 f   libprotobuf:coded_stream.obj
 0001:0003bca0       ?WriteAliasedRaw@CodedOutputStream@io@protobuf@google@@AAEXPBXH@Z 1003cca0 f   libprotobuf:coded_stream.obj
 0001:0003bd00       ?WriteLittleEndian32@CodedOutputStream@io@protobuf@google@@QAEXI@Z 1003cd00 f   libprotobuf:coded_stream.obj
 0001:0003bd50       ?WriteLittleEndian64@CodedOutputStream@io@protobuf@google@@QAEX_K@Z 1003cd50 f   libprotobuf:coded_stream.obj
 0001:0003bdc0       ?WriteRaw@CodedOutputStream@io@protobuf@google@@QAEXPBXH@Z 1003cdc0 f   libprotobuf:coded_stream.obj
 0001:0003be50       ?WriteStringWithSizeToArray@CodedOutputStream@io@protobuf@google@@SAPAEABV?$basic_string@DU?$char_traits@D@std@@V?$allocator@D@2@@std@@PAE@Z 1003ce50 f   libprotobuf:coded_stream.obj
 0001:0003bea0       ?WriteVarint32@CodedOutputStream@io@protobuf@google@@QAEXI@Z 1003cea0 f   libprotobuf:coded_stream.obj
 0001:0003bf30       ?WriteVarint32FallbackToArray@CodedOutputStream@io@protobuf@google@@CAPAEIPAE@Z 1003cf30 f   libprotobuf:coded_stream.obj
 0001:0003bf40       ?WriteVarint32FallbackToArrayInline@CodedOutputStream@io@protobuf@google@@CAPAEIPAE@Z 1003cf40 f i libprotobuf:coded_stream.obj
 0001:0003bfd0       ?WriteVarint64@CodedOutputStream@io@protobuf@google@@QAEX_K@Z 1003cfd0 f   libprotobuf:coded_stream.obj
 0001:0003c070       ?WriteVarint64ToArray@CodedOutputStream@io@protobuf@google@@SAPAE_KPAE@Z 1003d070 f   libprotobuf:coded_stream.obj
 0001:0003c090       ?WriteVarint64ToArrayInline@CodedOutputStream@io@protobuf@google@@CAPAE_KPAE@Z 1003d090 f i libprotobuf:coded_stream.obj
 0001:0003c1c0       ?ReadBytes@WireFormatLite@internal@protobuf@google@@SA_NPAVCodedInputStream@io@34@PAV?$basic_string@DU?$char_traits@D@std@@V?$allocator@D@2@@std@@@Z 1003d1c0 f   libprotobuf:wire_format_lite.obj
 0001:0003c220       ?ReadLittleEndian64@CodedInputStream@io@protobuf@google@@QAE_NPA_K@Z 1003d220 f i libprotobuf:wire_format_lite.obj
 0001:0003c260       ?ReadString@WireFormatLite@internal@protobuf@google@@SA_NPAVCodedInputStream@io@34@PAV?$basic_string@DU?$char_traits@D@std@@V?$allocator@D@2@@std@@@Z 1003d260 f   libprotobuf:wire_format_lite.obj
 0001:0003c2c0       ?ReadVarint64@CodedInputStream@io@protobuf@google@@QAE_NPA_K@Z 1003d2c0 f i libprotobuf:wire_format_lite.obj
 0001:0003c300       ?SkipField@FieldSkipper@internal@protobuf@google@@UAE_NPAVCodedInputStream@io@34@I@Z 1003d300 f   libprotobuf:wire_format_lite.obj
 0001:0003c320       ?SkipField@WireFormatLite@internal@protobuf@google@@SA_NPAVCodedInputStream@io@34@I@Z 1003d320 f   libprotobuf:wire_format_lite.obj
 0001:0003c460       ?SkipMessage@FieldSkipper@internal@protobuf@google@@UAE_NPAVCodedInputStream@io@34@@Z 1003d460 f   libprotobuf:wire_format_lite.obj
 0001:0003c480       ?SkipMessage@WireFormatLite@internal@protobuf@google@@SA_NPAVCodedInputStream@io@34@@Z 1003d480 f   libprotobuf:wire_format_lite.obj
 0001:0003c4e0       ?WriteBool@WireFormatLite@internal@protobuf@google@@SAXH_NPAVCodedOutputStream@io@34@@Z 1003d4e0 f   libprotobuf:wire_format_lite.obj
 0001:0003c510       ?WriteBytes@WireFormatLite@internal@protobuf@google@@SAXHABV?$basic_string@DU?$char_traits@D@std@@V?$allocator@D@2@@std@@PAVCodedOutputStream@io@34@@Z 1003d510 f   libprotobuf:wire_format_lite.obj
 0001:0003c5f0       ?WriteBytesMaybeAliased@WireFormatLite@internal@protobuf@google@@SAXHABV?$basic_string@DU?$char_traits@D@std@@V?$allocator@D@2@@std@@PAVCodedOutputStream@io@34@@Z 1003d5f0 f   libprotobuf:wire_format_lite.obj
 0001:0003c6d0       ?WriteDouble@WireFormatLite@internal@protobuf@google@@SAXHNPAVCodedOutputStream@io@34@@Z 1003d6d0 f   libprotobuf:wire_format_lite.obj
 0001:0003c700       ?WriteFixed32@WireFormatLite@internal@protobuf@google@@SAXHIPAVCodedOutputStream@io@34@@Z 1003d700 f   libprotobuf:wire_format_lite.obj
 0001:0003c700       ?WriteSFixed32@WireFormatLite@internal@protobuf@google@@SAXHHPAVCodedOutputStream@io@34@@Z 1003d700 f   libprotobuf:wire_format_lite.obj
 0001:0003c730       ?WriteFloat@WireFormatLite@internal@protobuf@google@@SAXHMPAVCodedOutputStream@io@34@@Z 1003d730 f   libprotobuf:wire_format_lite.obj
 0001:0003c760       ?WriteGroup@WireFormatLite@internal@protobuf@google@@SAXHABVMessageLite@34@PAVCodedOutputStream@io@34@@Z 1003d760 f   libprotobuf:wire_format_lite.obj
 0001:0003c7a0       ?WriteInt32@WireFormatLite@internal@protobuf@google@@SAXHHPAVCodedOutputStream@io@34@@Z 1003d7a0 f   libprotobuf:wire_format_lite.obj
 0001:0003c7a0       ?WriteEnum@WireFormatLite@internal@protobuf@google@@SAXHHPAVCodedOutputStream@io@34@@Z 1003d7a0 f   libprotobuf:wire_format_lite.obj
 0001:0003c7e0       ?WriteMessage@WireFormatLite@internal@protobuf@google@@SAXHABVMessageLite@34@PAVCodedOutputStream@io@34@@Z 1003d7e0 f   libprotobuf:wire_format_lite.obj
 0001:0003c820       ?WriteMessageMaybeToArray@WireFormatLite@internal@protobuf@google@@SAXHABVMessageLite@34@PAVCodedOutputStream@io@34@@Z 1003d820 f   libprotobuf:wire_format_lite.obj
 0001:0003c890       ?WriteFixed64@WireFormatLite@internal@protobuf@google@@SAXH_KPAVCodedOutputStream@io@34@@Z 1003d890 f   libprotobuf:wire_format_lite.obj
 0001:0003c890       ?WriteSFixed64@WireFormatLite@internal@protobuf@google@@SAXH_JPAVCodedOutputStream@io@34@@Z 1003d890 f   libprotobuf:wire_format_lite.obj
 0001:0003c8c0       ?WriteSInt32@WireFormatLite@internal@protobuf@google@@SAXHHPAVCodedOutputStream@io@34@@Z 1003d8c0 f   libprotobuf:wire_format_lite.obj
 0001:0003c8f0       ?WriteSInt64@WireFormatLite@internal@protobuf@google@@SAXH_JPAVCodedOutputStream@io@34@@Z 1003d8f0 f   libprotobuf:wire_format_lite.obj
 0001:0003c930       ?WriteString@WireFormatLite@internal@protobuf@google@@SAXHABV?$basic_string@DU?$char_traits@D@std@@V?$allocator@D@2@@std@@PAVCodedOutputStream@io@34@@Z 1003d930 f   libprotobuf:wire_format_lite.obj
 0001:0003ca10       ?WriteStringMaybeAliased@WireFormatLite@internal@protobuf@google@@SAXHABV?$basic_string@DU?$char_traits@D@std@@V?$allocator@D@2@@std@@PAVCodedOutputStream@io@34@@Z 1003da10 f   libprotobuf:wire_format_lite.obj
 0001:0003caf0       ?WriteUInt32@WireFormatLite@internal@protobuf@google@@SAXHIPAVCodedOutputStream@io@34@@Z 1003daf0 f   libprotobuf:wire_format_lite.obj
 0001:0003cb10       ?WriteUInt64@WireFormatLite@internal@protobuf@google@@SAXH_KPAVCodedOutputStream@io@34@@Z 1003db10 f   libprotobuf:wire_format_lite.obj
 0001:0003cb10       ?WriteInt64@WireFormatLite@internal@protobuf@google@@SAXH_JPAVCodedOutputStream@io@34@@Z 1003db10 f   libprotobuf:wire_format_lite.obj
 0001:0003cb40       ??$AddAllocated@V?$GenericTypeHandler@VMessage@protobuf@google@@@internal@protobuf@google@@@RepeatedPtrFieldBase@internal@protobuf@google@@IAEXPAVMessage@23@@Z 1003db40 f i libprotobuf:generated_message_reflection.obj
 0001:0003cb40       ??$AddAllocated@VTypeHandler@?$RepeatedPtrField@VMessageLite@protobuf@google@@@protobuf@google@@@RepeatedPtrFieldBase@internal@protobuf@google@@IAEXPAVMessageLite@23@@Z 1003db40 f i libprotobuf:extension_set.obj
 0001:0003cbe0       ??$DefaultRaw@V?$RepeatedField@I@protobuf@google@@@GeneratedMessageReflection@internal@protobuf@google@@ABEABV?$RepeatedField@I@23@PBVFieldDescriptor@23@@Z 1003dbe0 f i libprotobuf:generated_message_reflection.obj
 0001:0003cbe0       ??$DefaultRaw@V?$RepeatedField@N@protobuf@google@@@GeneratedMessageReflection@internal@protobuf@google@@ABEABV?$RepeatedField@N@23@PBVFieldDescriptor@23@@Z 1003dbe0 f i libprotobuf:generated_message_reflection.obj
 0001:0003cbe0       ??$DefaultRaw@N@GeneratedMessageReflection@internal@protobuf@google@@ABEABNPBVFieldDescriptor@23@@Z 1003dbe0 f i libprotobuf:generated_message_reflection.obj
 0001:0003cbe0       ??$DefaultRaw@V?$RepeatedPtrField@V?$basic_string@DU?$char_traits@D@std@@V?$allocator@D@2@@std@@@protobuf@google@@@GeneratedMessageReflection@internal@protobuf@google@@ABEABV?$RepeatedPtrField@V?$basic_string@DU?$char_traits@D@std@@V?$allocator@D@2@@std@@@23@PBVFieldDescriptor@23@@Z 1003dbe0 f i libprotobuf:generated_message_reflection.obj
 0001:0003cbe0       ??$DefaultRaw@I@GeneratedMessageReflection@internal@protobuf@google@@ABEABIPBVFieldDescriptor@23@@Z 1003dbe0 f i libprotobuf:generated_message_reflection.obj
 0001:0003cbe0       ??$DefaultRaw@M@GeneratedMessageReflection@internal@protobuf@google@@ABEABMPBVFieldDescriptor@23@@Z 1003dbe0 f i libprotobuf:generated_message_reflection.obj
 0001:0003cbe0       ??$DefaultRaw@_N@GeneratedMessageReflection@internal@protobuf@google@@ABEAB_NPBVFieldDescriptor@23@@Z 1003dbe0 f i libprotobuf:generated_message_reflection.obj
 0001:0003cbe0       ??$DefaultRaw@_K@GeneratedMessageReflection@internal@protobuf@google@@ABEAB_KPBVFieldDescriptor@23@@Z 1003dbe0 f i libprotobuf:generated_message_reflection.obj
 0001:0003cbe0       ??$DefaultRaw@_J@GeneratedMessageReflection@internal@protobuf@google@@ABEAB_JPBVFieldDescriptor@23@@Z 1003dbe0 f i libprotobuf:generated_message_reflection.obj
 0001:0003cbe0       ??$DefaultRaw@V?$RepeatedField@_J@protobuf@google@@@GeneratedMessageReflection@internal@protobuf@google@@ABEABV?$RepeatedField@_J@23@PBVFieldDescriptor@23@@Z 1003dbe0 f i libprotobuf:generated_message_reflection.obj
 0001:0003cbe0       ??$DefaultRaw@PBV?$basic_string@DU?$char_traits@D@std@@V?$allocator@D@2@@std@@@GeneratedMessageReflection@internal@protobuf@google@@ABEABQBV?$basic_string@DU?$char_traits@D@std@@V?$allocator@D@2@@std@@PBVFieldDescriptor@23@@Z 1003dbe0 f i libprotobuf:generated_message_reflection.obj
 0001:0003cbe0       ??$DefaultRaw@V?$RepeatedField@H@protobuf@google@@@GeneratedMessageReflection@internal@protobuf@google@@ABEABV?$RepeatedField@H@23@PBVFieldDescriptor@23@@Z 1003dbe0 f i libprotobuf:generated_message_reflection.obj
 0001:0003cbe0       ??$DefaultRaw@H@GeneratedMessageReflection@internal@protobuf@google@@ABEABHPBVFieldDescriptor@23@@Z 1003dbe0 f i libprotobuf:generated_message_reflection.obj
 0001:0003cbe0       ??$DefaultRaw@VRepeatedPtrFieldBase@internal@protobuf@google@@@GeneratedMessageReflection@internal@protobuf@google@@ABEABVRepeatedPtrFieldBase@123@PBVFieldDescriptor@23@@Z 1003dbe0 f i libprotobuf:generated_message_reflection.obj
 0001:0003cbe0       ??$DefaultRaw@V?$RepeatedField@M@protobuf@google@@@GeneratedMessageReflection@internal@protobuf@google@@ABEABV?$RepeatedField@M@23@PBVFieldDescriptor@23@@Z 1003dbe0 f i libprotobuf:generated_message_reflection.obj
 0001:0003cbe0       ??$DefaultRaw@V?$RepeatedField@_K@protobuf@google@@@GeneratedMessageReflection@internal@protobuf@google@@ABEABV?$RepeatedField@_K@23@PBVFieldDescriptor@23@@Z 1003dbe0 f i libprotobuf:generated_message_reflection.obj
 0001:0003cbe0       ??$DefaultRaw@PBVMessage@protobuf@google@@@GeneratedMessageReflection@internal@protobuf@google@@ABEABQBVMessage@23@PBVFieldDescriptor@23@@Z 1003dbe0 f i libprotobuf:generated_message_reflection.obj
 0001:0003cbe0       ??$DefaultRaw@V?$RepeatedField@_N@protobuf@google@@@GeneratedMessageReflection@internal@protobuf@google@@ABEABV?$RepeatedField@_N@23@PBVFieldDescriptor@23@@Z 1003dbe0 f i libprotobuf:generated_message_reflection.obj
 0001:0003cc70       ??$GetRaw@V?$RepeatedField@M@protobuf@google@@@GeneratedMessageReflection@internal@protobuf@google@@ABEABV?$RepeatedField@M@23@ABVMessage@23@PBVFieldDescriptor@23@@Z 1003dc70 f i libprotobuf:generated_message_reflection.obj
 0001:0003cc70       ??$GetRaw@N@GeneratedMessageReflection@internal@protobuf@google@@ABEABNABVMessage@23@PBVFieldDescriptor@23@@Z 1003dc70 f i libprotobuf:generated_message_reflection.obj
 0001:0003cc70       ??$GetRaw@H@GeneratedMessageReflection@internal@protobuf@google@@ABEABHABVMessage@23@PBVFieldDescriptor@23@@Z 1003dc70 f i libprotobuf:generated_message_reflection.obj
 0001:0003cc70       ??$GetRaw@M@GeneratedMessageReflection@internal@protobuf@google@@ABEABMABVMessage@23@PBVFieldDescriptor@23@@Z 1003dc70 f i libprotobuf:generated_message_reflection.obj
 0001:0003cc70       ??$GetRaw@V?$RepeatedPtrField@V?$basic_string@DU?$char_traits@D@std@@V?$allocator@D@2@@std@@@protobuf@google@@@GeneratedMessageReflection@internal@protobuf@google@@ABEABV?$RepeatedPtrField@V?$basic_string@DU?$char_traits@D@std@@V?$allocator@D@2@@std@@@23@ABVMessage@23@PBVFieldDescriptor@23@@Z 1003dc70 f i libprotobuf:generated_message_reflection.obj
 0001:0003cc70       ??$GetRaw@_N@GeneratedMessageReflection@internal@protobuf@google@@ABEAB_NABVMessage@23@PBVFieldDescriptor@23@@Z 1003dc70 f i libprotobuf:generated_message_reflection.obj
 0001:0003cc70       ??$GetRaw@V?$RepeatedField@N@protobuf@google@@@GeneratedMessageReflection@internal@protobuf@google@@ABEABV?$RepeatedField@N@23@ABVMessage@23@PBVFieldDescriptor@23@@Z 1003dc70 f i libprotobuf:generated_message_reflection.obj
 0001:0003cc70       ??$GetRaw@I@GeneratedMessageReflection@internal@protobuf@google@@ABEABIABVMessage@23@PBVFieldDescriptor@23@@Z 1003dc70 f i libprotobuf:generated_message_reflection.obj
 0001:0003cc70       ??$GetRaw@V?$RepeatedField@_N@protobuf@google@@@GeneratedMessageReflection@internal@protobuf@google@@ABEABV?$RepeatedField@_N@23@ABVMessage@23@PBVFieldDescriptor@23@@Z 1003dc70 f i libprotobuf:generated_message_reflection.obj
 0001:0003cc70       ??$GetRaw@V?$RepeatedField@_J@protobuf@google@@@GeneratedMessageReflection@internal@protobuf@google@@ABEABV?$RepeatedField@_J@23@ABVMessage@23@PBVFieldDescriptor@23@@Z 1003dc70 f i libprotobuf:generated_message_reflection.obj
 0001:0003cc70       ??$GetRaw@V?$RepeatedField@H@protobuf@google@@@GeneratedMessageReflection@internal@protobuf@google@@ABEABV?$RepeatedField@H@23@ABVMessage@23@PBVFieldDescriptor@23@@Z 1003dc70 f i libprotobuf:generated_message_reflection.obj
 0001:0003cc70       ??$GetRaw@V?$RepeatedField@I@protobuf@google@@@GeneratedMessageReflection@internal@protobuf@google@@ABEABV?$RepeatedField@I@23@ABVMessage@23@PBVFieldDescriptor@23@@Z 1003dc70 f i libprotobuf:generated_message_reflection.obj
 0001:0003cc70       ??$GetRaw@V?$RepeatedField@_K@protobuf@google@@@GeneratedMessageReflection@internal@protobuf@google@@ABEABV?$RepeatedField@_K@23@ABVMessage@23@PBVFieldDescriptor@23@@Z 1003dc70 f i libprotobuf:generated_message_reflection.obj
 0001:0003cc70       ??$GetRaw@VRepeatedPtrFieldBase@internal@protobuf@google@@@GeneratedMessageReflection@internal@protobuf@google@@ABEABVRepeatedPtrFieldBase@123@ABVMessage@23@PBVFieldDescriptor@23@@Z 1003dc70 f i libprotobuf:generated_message_reflection.obj
 0001:0003cc70       ??$GetRaw@PBVMessage@protobuf@google@@@GeneratedMessageReflection@internal@protobuf@google@@ABEABQBVMessage@23@ABV423@PBVFieldDescriptor@23@@Z 1003dc70 f i libprotobuf:generated_message_reflection.obj
 0001:0003cc70       ??$GetRaw@_K@GeneratedMessageReflection@internal@protobuf@google@@ABEAB_KABVMessage@23@PBVFieldDescriptor@23@@Z 1003dc70 f i libprotobuf:generated_message_reflection.obj
 0001:0003cc70       ??$GetRaw@_J@GeneratedMessageReflection@internal@protobuf@google@@ABEAB_JABVMessage@23@PBVFieldDescriptor@23@@Z 1003dc70 f i libprotobuf:generated_message_reflection.obj
 0001:0003cc70       ??$GetRaw@PBV?$basic_string@DU?$char_traits@D@std@@V?$allocator@D@2@@std@@@GeneratedMessageReflection@internal@protobuf@google@@ABEABQBV?$basic_string@DU?$char_traits@D@std@@V?$allocator@D@2@@std@@ABVMessage@23@PBVFieldDescriptor@23@@Z 1003dc70 f i libprotobuf:generated_message_reflection.obj
 0001:0003cd30       ??$MutableField@PAVMessage@protobuf@google@@@GeneratedMessageReflection@internal@protobuf@google@@ABEPAPAVMessage@23@PAV423@PBVFieldDescriptor@23@@Z 1003dd30 f i libprotobuf:generated_message_reflection.obj
 0001:0003cd30       ??$MutableField@PAV?$basic_string@DU?$char_traits@D@std@@V?$allocator@D@2@@std@@@GeneratedMessageReflection@internal@protobuf@google@@ABEPAPAV?$basic_string@DU?$char_traits@D@std@@V?$allocator@D@2@@std@@PAVMessage@23@PBVFieldDescriptor@23@@Z 1003dd30 f i libprotobuf:generated_message_reflection.obj
 0001:0003cda0       ??$MutableRaw@V?$RepeatedField@M@protobuf@google@@@GeneratedMessageReflection@internal@protobuf@google@@ABEPAV?$RepeatedField@M@23@PAVMessage@23@PBVFieldDescriptor@23@@Z 1003dda0 f i libprotobuf:generated_message_reflection.obj
 0001:0003cda0       ??$MutableRaw@V?$RepeatedField@_N@protobuf@google@@@GeneratedMessageReflection@internal@protobuf@google@@ABEPAV?$RepeatedField@_N@23@PAVMessage@23@PBVFieldDescriptor@23@@Z 1003dda0 f i libprotobuf:generated_message_reflection.obj
 0001:0003cda0       ??$MutableRaw@V?$RepeatedField@N@protobuf@google@@@GeneratedMessageReflection@internal@protobuf@google@@ABEPAV?$RepeatedField@N@23@PAVMessage@23@PBVFieldDescriptor@23@@Z 1003dda0 f i libprotobuf:generated_message_reflection.obj
 0001:0003cda0       ??$MutableRaw@V?$RepeatedPtrField@V?$basic_string@DU?$char_traits@D@std@@V?$allocator@D@2@@std@@@protobuf@google@@@GeneratedMessageReflection@internal@protobuf@google@@ABEPAV?$RepeatedPtrField@V?$basic_string@DU?$char_traits@D@std@@V?$allocator@D@2@@std@@@23@PAVMessage@23@PBVFieldDescriptor@23@@Z 1003dda0 f i libprotobuf:generated_message_reflection.obj
 0001:0003cda0       ??$MutableRaw@V?$RepeatedField@_J@protobuf@google@@@GeneratedMessageReflection@internal@protobuf@google@@ABEPAV?$RepeatedField@_J@23@PAVMessage@23@PBVFieldDescriptor@23@@Z 1003dda0 f i libprotobuf:generated_message_reflection.obj
 0001:0003cda0       ??$MutableRaw@_K@GeneratedMessageReflection@internal@protobuf@google@@ABEPA_KPAVMessage@23@PBVFieldDescriptor@23@@Z 1003dda0 f i libprotobuf:generated_message_reflection.obj
 0001:0003cda0       ??$MutableRaw@V?$RepeatedField@H@protobuf@google@@@GeneratedMessageReflection@internal@protobuf@google@@ABEPAV?$RepeatedField@H@23@PAVMessage@23@PBVFieldDescriptor@23@@Z 1003dda0 f i libprotobuf:generated_message_reflection.obj
 0001:0003cda0       ??$MutableRaw@N@GeneratedMessageReflection@internal@protobuf@google@@ABEPANPAVMessage@23@PBVFieldDescriptor@23@@Z 1003dda0 f i libprotobuf:generated_message_reflection.obj
 0001:0003cda0       ??$MutableRaw@VRepeatedPtrFieldBase@internal@protobuf@google@@@GeneratedMessageReflection@internal@protobuf@google@@ABEPAVRepeatedPtrFieldBase@123@PAVMessage@23@PBVFieldDescriptor@23@@Z 1003dda0 f i libprotobuf:generated_message_reflection.obj
 0001:0003cda0       ??$MutableRaw@H@GeneratedMessageReflection@internal@protobuf@google@@ABEPAHPAVMessage@23@PBVFieldDescriptor@23@@Z 1003dda0 f i libprotobuf:generated_message_reflection.obj
 0001:0003cda0       ??$MutableRaw@V?$RepeatedField@I@protobuf@google@@@GeneratedMessageReflection@internal@protobuf@google@@ABEPAV?$RepeatedField@I@23@PAVMessage@23@PBVFieldDescriptor@23@@Z 1003dda0 f i libprotobuf:generated_message_reflection.obj
 0001:0003cda0       ??$MutableRaw@I@GeneratedMessageReflection@internal@protobuf@google@@ABEPAIPAVMessage@23@PBVFieldDescriptor@23@@Z 1003dda0 f i libprotobuf:generated_message_reflection.obj
 0001:0003cda0       ??$MutableRaw@_N@GeneratedMessageReflection@internal@protobuf@google@@ABEPA_NPAVMessage@23@PBVFieldDescriptor@23@@Z 1003dda0 f i libprotobuf:generated_message_reflection.obj
 0001:0003cda0       ??$MutableRaw@V?$RepeatedField@_K@protobuf@google@@@GeneratedMessageReflection@internal@protobuf@google@@ABEPAV?$RepeatedField@_K@23@PAVMessage@23@PBVFieldDescriptor@23@@Z 1003dda0 f i libprotobuf:generated_message_reflection.obj
 0001:0003cda0       ??$MutableRaw@PAVMessage@protobuf@google@@@GeneratedMessageReflection@internal@protobuf@google@@ABEPAPAVMessage@23@PAV423@PBVFieldDescriptor@23@@Z 1003dda0 f i libprotobuf:generated_message_reflection.obj
 0001:0003cda0       ??$MutableRaw@PAV?$basic_string@DU?$char_traits@D@std@@V?$allocator@D@2@@std@@@GeneratedMessageReflection@internal@protobuf@google@@ABEPAPAV?$basic_string@DU?$char_traits@D@std@@V?$allocator@D@2@@std@@PAVMessage@23@PBVFieldDescriptor@23@@Z 1003dda0 f i libprotobuf:generated_message_reflection.obj
 0001:0003cda0       ??$MutableRaw@M@GeneratedMessageReflection@internal@protobuf@google@@ABEPAMPAVMessage@23@PBVFieldDescriptor@23@@Z 1003dda0 f i libprotobuf:generated_message_reflection.obj
 0001:0003cda0       ??$MutableRaw@_J@GeneratedMessageReflection@internal@protobuf@google@@ABEPA_JPAVMessage@23@PBVFieldDescriptor@23@@Z 1003dda0 f i libprotobuf:generated_message_reflection.obj
 0001:0003ce20       ??$RemoveLast@V?$GenericTypeHandler@VMessage@protobuf@google@@@internal@protobuf@google@@@RepeatedPtrFieldBase@internal@protobuf@google@@IAEXXZ 1003de20 f i libprotobuf:generated_message_reflection.obj
 0001:0003ce40       ??$SetField@M@GeneratedMessageReflection@internal@protobuf@google@@ABEXPAVMessage@23@PBVFieldDescriptor@23@ABM@Z 1003de40 f i libprotobuf:generated_message_reflection.obj
 0001:0003ce40       ??$SetField@I@GeneratedMessageReflection@internal@protobuf@google@@ABEXPAVMessage@23@PBVFieldDescriptor@23@ABI@Z 1003de40 f i libprotobuf:generated_message_reflection.obj
 0001:0003ce40       ??$SetField@H@GeneratedMessageReflection@internal@protobuf@google@@ABEXPAVMessage@23@PBVFieldDescriptor@23@ABH@Z 1003de40 f i libprotobuf:generated_message_reflection.obj
 0001:0003cee0       ??$SetField@N@GeneratedMessageReflection@internal@protobuf@google@@ABEXPAVMessage@23@PBVFieldDescriptor@23@ABN@Z 1003dee0 f i libprotobuf:generated_message_reflection.obj
 0001:0003cf80       ??$SetField@_J@GeneratedMessageReflection@internal@protobuf@google@@ABEXPAVMessage@23@PBVFieldDescriptor@23@AB_J@Z 1003df80 f i libprotobuf:generated_message_reflection.obj
 0001:0003cf80       ??$SetField@_K@GeneratedMessageReflection@internal@protobuf@google@@ABEXPAVMessage@23@PBVFieldDescriptor@23@AB_K@Z 1003df80 f i libprotobuf:generated_message_reflection.obj
 0001:0003d020       ??$SetField@_N@GeneratedMessageReflection@internal@protobuf@google@@ABEXPAVMessage@23@PBVFieldDescriptor@23@AB_N@Z 1003e020 f i libprotobuf:generated_message_reflection.obj
 0001:0003d0c0       ??$SpaceUsedExcludingSelf@V?$GenericTypeHandler@VMessage@protobuf@google@@@internal@protobuf@google@@@RepeatedPtrFieldBase@internal@protobuf@google@@IBEHXZ 1003e0c0 f i libprotobuf:generated_message_reflection.obj
 0001:0003d100       ??$SpaceUsedExcludingSelf@VTypeHandler@?$RepeatedPtrField@V?$basic_string@DU?$char_traits@D@std@@V?$allocator@D@2@@std@@@protobuf@google@@@RepeatedPtrFieldBase@internal@protobuf@google@@IBEHXZ 1003e100 f i libprotobuf:generated_message_reflection.obj
 0001:0003d160       ??$_Adjust_heap@PAPBVFieldDescriptor@protobuf@google@@HPBV123@UFieldNumberSorter@?A0xdd692e7f@internal@23@@std@@YAXPAPBVFieldDescriptor@protobuf@google@@HH$$QAPBV123@UFieldNumberSorter@?A0xdd692e7f@internal@23@@Z 1003e160 f i libprotobuf:generated_message_reflection.obj
 0001:0003d1d0       ??$_Insert_at@PBVDescriptor@protobuf@google@@U_Nil@std@@@?$_Tree@V?$_Tset_traits@PBVDescriptor@protobuf@google@@U?$less@PBVDescriptor@protobuf@google@@@std@@V?$allocator@PBVDescriptor@protobuf@google@@@5@$0A@@std@@@std@@IAE?AV?$_Tree_const_iterator@V?$_Tree_val@U?$_Tree_simple_types@PBVDescriptor@protobuf@google@@@std@@@std@@@1@_NPAU?$_Tree_node@PBVDescriptor@protobuf@google@@PAX@1@$$QAPBVDescriptor@protobuf@google@@U_Nil@1@@Z 1003e1d0 f i libprotobuf:descriptor.obj
 0001:0003d1d0       ??$_Insert_at@ABHU_Nil@std@@@?$_Tree@V?$_Tset_traits@HU?$less@H@std@@V?$allocator@H@2@$0A@@std@@@std@@IAE?AV?$_Tree_const_iterator@V?$_Tree_val@U?$_Tree_simple_types@H@std@@@std@@@1@_NPAU?$_Tree_node@HPAX@1@ABHU_Nil@1@@Z 1003e1d0 f i libprotobuf:generated_message_reflection.obj
 0001:0003d1d0       ??$_Insert_at@ABQBVFileDescriptor@protobuf@google@@U_Nil@std@@@?$_Tree@V?$_Tset_traits@PBVFileDescriptor@protobuf@google@@U?$less@PBVFileDescriptor@protobuf@google@@@std@@V?$allocator@PBVFileDescriptor@protobuf@google@@@5@$0A@@std@@@std@@IAE?AV?$_Tree_const_iterator@V?$_Tree_val@U?$_Tree_simple_types@PBVFileDescriptor@protobuf@google@@@std@@@std@@@1@_NPAU?$_Tree_node@PBVFileDescriptor@protobuf@google@@PAX@1@ABQBVFileDescriptor@protobuf@google@@U_Nil@1@@Z 1003e1d0 f i libprotobuf:descriptor.obj
 0001:0003d1d0       ??$_Insert_at@HU_Nil@std@@@?$_Tree@V?$_Tset_traits@HU?$less@H@std@@V?$allocator@H@2@$0A@@std@@@std@@IAE?AV?$_Tree_const_iterator@V?$_Tree_val@U?$_Tree_simple_types@H@std@@@std@@@1@_NPAU?$_Tree_node@HPAX@1@$$QAHU_Nil@1@@Z 1003e1d0 f i libprotobuf:descriptor.obj
 0001:0003d370       ??$_Insert_nohint@ABHU_Nil@std@@@?$_Tree@V?$_Tset_traits@HU?$less@H@std@@V?$allocator@H@2@$0A@@std@@@std@@IAE?AU?$pair@V?$_Tree_const_iterator@V?$_Tree_val@U?$_Tree_simple_types@H@std@@@std@@@std@@_N@1@_NABHU_Nil@1@@Z 1003e370 f i libprotobuf:generated_message_reflection.obj
 0001:0003d370       ??$_Insert_nohint@HU_Nil@std@@@?$_Tree@V?$_Tset_traits@HU?$less@H@std@@V?$allocator@H@2@$0A@@std@@@std@@IAE?AU?$pair@V?$_Tree_const_iterator@V?$_Tree_val@U?$_Tree_simple_types@H@std@@@std@@@std@@_N@1@_N$$QAHU_Nil@1@@Z 1003e370 f i libprotobuf:descriptor.obj
 0001:0003d480       ??$_Insertion_sort1@PAPBVFieldDescriptor@protobuf@google@@UFieldNumberSorter@?A0xdd692e7f@internal@23@PBV123@@std@@YAXPAPBVFieldDescriptor@protobuf@google@@0UFieldNumberSorter@?A0xdd692e7f@internal@23@0@Z 1003e480 f i libprotobuf:generated_message_reflection.obj
 0001:0003d510       ??$_Make_heap@PAPBVFieldDescriptor@protobuf@google@@HPBV123@UFieldNumberSorter@?A0xdd692e7f@internal@23@@std@@YAXPAPBVFieldDescriptor@protobuf@google@@0UFieldNumberSorter@?A0xdd692e7f@internal@23@PAH0@Z 1003e510 f i libprotobuf:generated_message_reflection.obj
 0001:0003d5b0       ??$_Median@PAPBVFieldDescriptor@protobuf@google@@UFieldNumberSorter@?A0xdd692e7f@internal@23@@std@@YAXPAPBVFieldDescriptor@protobuf@google@@00UFieldNumberSorter@?A0xdd692e7f@internal@23@@Z 1003e5b0 f i libprotobuf:generated_message_reflection.obj
 0001:0003d740       ??$_Push_heap@PAPBVFieldDescriptor@protobuf@google@@HPBV123@UFieldNumberSorter@?A0xdd692e7f@internal@23@@std@@YAXPAPBVFieldDescriptor@protobuf@google@@HH$$QAPBV123@UFieldNumberSorter@?A0xdd692e7f@internal@23@@Z 1003e740 f i libprotobuf:generated_message_reflection.obj
 0001:0003d7a0       ??$_Sort@PAPBVFieldDescriptor@protobuf@google@@HUFieldNumberSorter@?A0xdd692e7f@internal@23@@std@@YAXPAPBVFieldDescriptor@protobuf@google@@0HUFieldNumberSorter@?A0xdd692e7f@internal@23@@Z 1003e7a0 f i libprotobuf:generated_message_reflection.obj
 0001:0003d880       ??$_Sort_heap@PAPBVFieldDescriptor@protobuf@google@@UFieldNumberSorter@?A0xdd692e7f@internal@23@@std@@YAXPAPBVFieldDescriptor@protobuf@google@@0UFieldNumberSorter@?A0xdd692e7f@internal@23@@Z 1003e880 f i libprotobuf:generated_message_reflection.obj
 0001:0003d8e0       ??$_Unguarded_partition@PAPBVFieldDescriptor@protobuf@google@@UFieldNumberSorter@?A0xdd692e7f@internal@23@@std@@YA?AU?$pair@PAPBVFieldDescriptor@protobuf@google@@PAPBV123@@0@PAPBVFieldDescriptor@protobuf@google@@0UFieldNumberSorter@?A0xdd692e7f@internal@34@@Z 1003e8e0 f i libprotobuf:generated_message_reflection.obj
 0001:0003da80       ??0GeneratedMessageReflection@internal@protobuf@google@@QAE@PBVDescriptor@23@PBVMessage@23@QBHHHHPBVDescriptorPool@23@PAVMessageFactory@23@H@Z 1003ea80 f   libprotobuf:generated_message_reflection.obj
 0001:0003db10       ??0GeneratedMessageReflection@internal@protobuf@google@@QAE@PBVDescriptor@23@PBVMessage@23@QBHHHHPBXHPBVDescriptorPool@23@PAVMessageFactory@23@H@Z 1003eb10 f   libprotobuf:generated_message_reflection.obj
 0001:0003dbb0       ??_EGeneratedMessageReflection@internal@protobuf@google@@UAEPAXI@Z 1003ebb0 f i libprotobuf:generated_message_reflection.obj
 0001:0003dbb0       ??_GGeneratedMessageReflection@internal@protobuf@google@@UAEPAXI@Z 1003ebb0 f i libprotobuf:generated_message_reflection.obj
 0001:0003dbe0       ?AddBool@GeneratedMessageReflection@internal@protobuf@google@@UBEXPAVMessage@34@PBVFieldDescriptor@34@_N@Z 1003ebe0 f   libprotobuf:generated_message_reflection.obj
 0001:0003dcb0       ?AddDouble@GeneratedMessageReflection@internal@protobuf@google@@UBEXPAVMessage@34@PBVFieldDescriptor@34@N@Z 1003ecb0 f   libprotobuf:generated_message_reflection.obj
 0001:0003dd90       ?AddEnum@GeneratedMessageReflection@internal@protobuf@google@@UBEXPAVMessage@34@PBVFieldDescriptor@34@PBVEnumValueDescriptor@34@@Z 1003ed90 f   libprotobuf:generated_message_reflection.obj
 0001:0003de90       ?AddFloat@GeneratedMessageReflection@internal@protobuf@google@@UBEXPAVMessage@34@PBVFieldDescriptor@34@M@Z 1003ee90 f   libprotobuf:generated_message_reflection.obj
 0001:0003df70       ?AddInt32@GeneratedMessageReflection@internal@protobuf@google@@UBEXPAVMessage@34@PBVFieldDescriptor@34@H@Z 1003ef70 f   libprotobuf:generated_message_reflection.obj
 0001:0003e040       ?AddInt64@GeneratedMessageReflection@internal@protobuf@google@@UBEXPAVMessage@34@PBVFieldDescriptor@34@_J@Z 1003f040 f   libprotobuf:generated_message_reflection.obj
 0001:0003e120       ?AddMessage@GeneratedMessageReflection@internal@protobuf@google@@UBEPAVMessage@34@PAV534@PBVFieldDescriptor@34@PAVMessageFactory@34@@Z 1003f120 f   libprotobuf:generated_message_reflection.obj
 0001:0003e220       ?AddString@GeneratedMessageReflection@internal@protobuf@google@@UBEXPAVMessage@34@PBVFieldDescriptor@34@ABV?$basic_string@DU?$char_traits@D@std@@V?$allocator@D@2@@std@@@Z 1003f220 f   libprotobuf:generated_message_reflection.obj
 0001:0003e330       ?AddUInt32@GeneratedMessageReflection@internal@protobuf@google@@UBEXPAVMessage@34@PBVFieldDescriptor@34@I@Z 1003f330 f   libprotobuf:generated_message_reflection.obj
 0001:0003e400       ?AddUInt64@GeneratedMessageReflection@internal@protobuf@google@@UBEXPAVMessage@34@PBVFieldDescriptor@34@_K@Z 1003f400 f   libprotobuf:generated_message_reflection.obj
 0001:0003e4e0       ?ClearBit@GeneratedMessageReflection@internal@protobuf@google@@ABEXPAVMessage@34@PBVFieldDescriptor@34@@Z 1003f4e0 f i libprotobuf:generated_message_reflection.obj
 0001:0003e570       ?ClearField@GeneratedMessageReflection@internal@protobuf@google@@UBEXPAVMessage@34@PBVFieldDescriptor@34@@Z 1003f570 f   libprotobuf:generated_message_reflection.obj
 0001:0003e890       ?ClearOneof@GeneratedMessageReflection@internal@protobuf@google@@UBEXPAVMessage@34@PBVOneofDescriptor@34@@Z 1003f890 f i libprotobuf:generated_message_reflection.obj
 0001:0003e980       ?ClearOneofField@GeneratedMessageReflection@internal@protobuf@google@@ABEXPAVMessage@34@PBVFieldDescriptor@34@@Z 1003f980 f i libprotobuf:generated_message_reflection.obj
 0001:0003e9d0       ?FieldSize@GeneratedMessageReflection@internal@protobuf@google@@UBEHABVMessage@34@PBVFieldDescriptor@34@@Z 1003f9d0 f   libprotobuf:generated_message_reflection.obj
 0001:0003eb70       ?FindKnownExtensionByName@GeneratedMessageReflection@internal@protobuf@google@@UBEPBVFieldDescriptor@34@ABV?$basic_string@DU?$char_traits@D@std@@V?$allocator@D@2@@std@@@Z 1003fb70 f   libprotobuf:generated_message_reflection.obj
 0001:0003ebf0       ?FindKnownExtensionByNumber@GeneratedMessageReflection@internal@protobuf@google@@UBEPBVFieldDescriptor@34@H@Z 1003fbf0 f   libprotobuf:generated_message_reflection.obj
 0001:0003ec20       ?GetBool@GeneratedMessageReflection@internal@protobuf@google@@UBE_NABVMessage@34@PBVFieldDescriptor@34@@Z 1003fc20 f   libprotobuf:generated_message_reflection.obj
 0001:0003ecd0       ?GetDouble@GeneratedMessageReflection@internal@protobuf@google@@UBENABVMessage@34@PBVFieldDescriptor@34@@Z 1003fcd0 f   libprotobuf:generated_message_reflection.obj
 0001:0003ed80       ?GetEnum@GeneratedMessageReflection@internal@protobuf@google@@UBEPBVEnumValueDescriptor@34@ABVMessage@34@PBVFieldDescriptor@34@@Z 1003fd80 f   libprotobuf:generated_message_reflection.obj
 0001:0003ef10       ?GetFloat@GeneratedMessageReflection@internal@protobuf@google@@UBEMABVMessage@34@PBVFieldDescriptor@34@@Z 1003ff10 f   libprotobuf:generated_message_reflection.obj
 0001:0003efd0       ?GetInt32@GeneratedMessageReflection@internal@protobuf@google@@UBEHABVMessage@34@PBVFieldDescriptor@34@@Z 1003ffd0 f   libprotobuf:generated_message_reflection.obj
 0001:0003f080       ?GetInt64@GeneratedMessageReflection@internal@protobuf@google@@UBE_JABVMessage@34@PBVFieldDescriptor@34@@Z 10040080 f   libprotobuf:generated_message_reflection.obj
 0001:0003f130       ?GetMessage@GeneratedMessageReflection@internal@protobuf@google@@UBEABVMessage@34@ABV534@PBVFieldDescriptor@34@PAVMessageFactory@34@@Z 10040130 f   libprotobuf:generated_message_reflection.obj
 0001:0003f200       ?GetOneofFieldDescriptor@GeneratedMessageReflection@internal@protobuf@google@@UBEPBVFieldDescriptor@34@ABVMessage@34@PBVOneofDescriptor@34@@Z 10040200 f   libprotobuf:generated_message_reflection.obj
 0001:0003f250       ?GetRepeatedBool@GeneratedMessageReflection@internal@protobuf@google@@UBE_NABVMessage@34@PBVFieldDescriptor@34@H@Z 10040250 f   libprotobuf:generated_message_reflection.obj
 0001:0003f300       ?GetRepeatedDouble@GeneratedMessageReflection@internal@protobuf@google@@UBENABVMessage@34@PBVFieldDescriptor@34@H@Z 10040300 f   libprotobuf:generated_message_reflection.obj
 0001:0003f3b0       ?GetRepeatedEnum@GeneratedMessageReflection@internal@protobuf@google@@UBEPBVEnumValueDescriptor@34@ABVMessage@34@PBVFieldDescriptor@34@H@Z 100403b0 f   libprotobuf:generated_message_reflection.obj
 0001:0003f550       ?GetRepeatedFloat@GeneratedMessageReflection@internal@protobuf@google@@UBEMABVMessage@34@PBVFieldDescriptor@34@H@Z 10040550 f   libprotobuf:generated_message_reflection.obj
 0001:0003f600       ?GetRepeatedInt32@GeneratedMessageReflection@internal@protobuf@google@@UBEHABVMessage@34@PBVFieldDescriptor@34@H@Z 10040600 f   libprotobuf:generated_message_reflection.obj
 0001:0003f6b0       ?GetRepeatedInt64@GeneratedMessageReflection@internal@protobuf@google@@UBE_JABVMessage@34@PBVFieldDescriptor@34@H@Z 100406b0 f   libprotobuf:generated_message_reflection.obj
 0001:0003f770       ?GetRepeatedMessage@GeneratedMessageReflection@internal@protobuf@google@@UBEABVMessage@34@ABV534@PBVFieldDescriptor@34@H@Z 10040770 f   libprotobuf:generated_message_reflection.obj
 0001:0003f820       ?GetRepeatedString@GeneratedMessageReflection@internal@protobuf@google@@UBE?AV?$basic_string@DU?$char_traits@D@std@@V?$allocator@D@2@@std@@ABVMessage@34@PBVFieldDescriptor@34@H@Z 10040820 f   libprotobuf:generated_message_reflection.obj
 0001:0003f900       ?GetRepeatedStringReference@GeneratedMessageReflection@internal@protobuf@google@@UBEABV?$basic_string@DU?$char_traits@D@std@@V?$allocator@D@2@@std@@ABVMessage@34@PBVFieldDescriptor@34@HPAV56@@Z 10040900 f   libprotobuf:generated_message_reflection.obj
 0001:0003f9b0       ?GetRepeatedUInt32@GeneratedMessageReflection@internal@protobuf@google@@UBEIABVMessage@34@PBVFieldDescriptor@34@H@Z 100409b0 f   libprotobuf:generated_message_reflection.obj
 0001:0003fa60       ?GetRepeatedUInt64@GeneratedMessageReflection@internal@protobuf@google@@UBE_KABVMessage@34@PBVFieldDescriptor@34@H@Z 10040a60 f   libprotobuf:generated_message_reflection.obj
 0001:0003fb20       ?GetString@GeneratedMessageReflection@internal@protobuf@google@@UBE?AV?$basic_string@DU?$char_traits@D@std@@V?$allocator@D@2@@std@@ABVMessage@34@PBVFieldDescriptor@34@@Z 10040b20 f   libprotobuf:generated_message_reflection.obj
 0001:0003fbf0       ?GetStringReference@GeneratedMessageReflection@internal@protobuf@google@@UBEABV?$basic_string@DU?$char_traits@D@std@@V?$allocator@D@2@@std@@ABVMessage@34@PBVFieldDescriptor@34@PAV56@@Z 10040bf0 f   libprotobuf:generated_message_reflection.obj
 0001:0003fca0       ?GetUInt32@GeneratedMessageReflection@internal@protobuf@google@@UBEIABVMessage@34@PBVFieldDescriptor@34@@Z 10040ca0 f   libprotobuf:generated_message_reflection.obj
 0001:0003fd50       ?GetUInt64@GeneratedMessageReflection@internal@protobuf@google@@UBE_KABVMessage@34@PBVFieldDescriptor@34@@Z 10040d50 f   libprotobuf:generated_message_reflection.obj
 0001:0003fe00       ?MutableUnknownFields@GeneratedMessageReflection@internal@protobuf@google@@UBEPAVUnknownFieldSet@34@PAVMessage@34@@Z 10040e00 f   libprotobuf:generated_message_reflection.obj
 0001:0003fe00       ?GetUnknownFields@GeneratedMessageReflection@internal@protobuf@google@@UBEABVUnknownFieldSet@34@ABVMessage@34@@Z 10040e00 f   libprotobuf:generated_message_reflection.obj
 0001:0003fe10       ?HasBit@GeneratedMessageReflection@internal@protobuf@google@@ABE_NABVMessage@34@PBVFieldDescriptor@34@@Z 10040e10 f i libprotobuf:generated_message_reflection.obj
 0001:0003feb0       ?HasField@GeneratedMessageReflection@internal@protobuf@google@@UBE_NABVMessage@34@PBVFieldDescriptor@34@@Z 10040eb0 f   libprotobuf:generated_message_reflection.obj
 0001:0003ff70       ?HasOneof@GeneratedMessageReflection@internal@protobuf@google@@UBE_NABVMessage@34@PBVOneofDescriptor@34@@Z 10040f70 f i libprotobuf:generated_message_reflection.obj
 0001:0003ffb0       ?ListFields@GeneratedMessageReflection@internal@protobuf@google@@UBEXABVMessage@34@PAV?$vector@PBVFieldDescriptor@protobuf@google@@V?$allocator@PBVFieldDescriptor@protobuf@google@@@std@@@std@@@Z 10040fb0 f   libprotobuf:generated_message_reflection.obj
 0001:000400c0       ?MutableMessage@GeneratedMessageReflection@internal@protobuf@google@@UBEPAVMessage@34@PAV534@PBVFieldDescriptor@34@PAVMessageFactory@34@@Z 100410c0 f   libprotobuf:generated_message_reflection.obj
 0001:00040190       ?MutableRawRepeatedField@GeneratedMessageReflection@internal@protobuf@google@@MBEPAXPAVMessage@34@PBVFieldDescriptor@34@W4CppType@634@HPBVDescriptor@34@@Z 10041190 f   libprotobuf:generated_message_reflection.obj
 0001:00040360       ?MutableRepeatedMessage@GeneratedMessageReflection@internal@protobuf@google@@UBEPAVMessage@34@PAV534@PBVFieldDescriptor@34@H@Z 10041360 f   libprotobuf:generated_message_reflection.obj
 0001:00040410       ?ReleaseLast@GeneratedMessageReflection@internal@protobuf@google@@UBEPAVMessage@34@PAV534@PBVFieldDescriptor@34@@Z 10041410 f   libprotobuf:generated_message_reflection.obj
 0001:000404d0       ?ReleaseMessage@GeneratedMessageReflection@internal@protobuf@google@@UBEPAVMessage@34@PAV534@PBVFieldDescriptor@34@PAVMessageFactory@34@@Z 100414d0 f   libprotobuf:generated_message_reflection.obj
 0001:00040600       ?RemoveLast@GeneratedMessageReflection@internal@protobuf@google@@UBEXPAVMessage@34@PBVFieldDescriptor@34@@Z 10041600 f   libprotobuf:generated_message_reflection.obj
 0001:00040a50       ?SetAllocatedMessage@GeneratedMessageReflection@internal@protobuf@google@@UBEXPAVMessage@34@0PBVFieldDescriptor@34@@Z 10041a50 f   libprotobuf:generated_message_reflection.obj
 0001:00040b80       ?SetBit@GeneratedMessageReflection@internal@protobuf@google@@ABEXPAVMessage@34@PBVFieldDescriptor@34@@Z 10041b80 f i libprotobuf:generated_message_reflection.obj
 0001:00040c10       ?SetBool@GeneratedMessageReflection@internal@protobuf@google@@UBEXPAVMessage@34@PBVFieldDescriptor@34@_N@Z 10041c10 f   libprotobuf:generated_message_reflection.obj
 0001:00040cc0       ?SetDouble@GeneratedMessageReflection@internal@protobuf@google@@UBEXPAVMessage@34@PBVFieldDescriptor@34@N@Z 10041cc0 f   libprotobuf:generated_message_reflection.obj
 0001:00040d80       ?SetEnum@GeneratedMessageReflection@internal@protobuf@google@@UBEXPAVMessage@34@PBVFieldDescriptor@34@PBVEnumValueDescriptor@34@@Z 10041d80 f   libprotobuf:generated_message_reflection.obj
 0001:00040e60       ?SetFloat@GeneratedMessageReflection@internal@protobuf@google@@UBEXPAVMessage@34@PBVFieldDescriptor@34@M@Z 10041e60 f   libprotobuf:generated_message_reflection.obj
 0001:00040f20       ?SetInt32@GeneratedMessageReflection@internal@protobuf@google@@UBEXPAVMessage@34@PBVFieldDescriptor@34@H@Z 10041f20 f   libprotobuf:generated_message_reflection.obj
 0001:00040fd0       ?SetInt64@GeneratedMessageReflection@internal@protobuf@google@@UBEXPAVMessage@34@PBVFieldDescriptor@34@_J@Z 10041fd0 f   libprotobuf:generated_message_reflection.obj
 0001:00041080       ?SetRepeatedBool@GeneratedMessageReflection@internal@protobuf@google@@UBEXPAVMessage@34@PBVFieldDescriptor@34@H_N@Z 10042080 f   libprotobuf:generated_message_reflection.obj
 0001:00041130       ?SetRepeatedDouble@GeneratedMessageReflection@internal@protobuf@google@@UBEXPAVMessage@34@PBVFieldDescriptor@34@HN@Z 10042130 f   libprotobuf:generated_message_reflection.obj
 0001:000411f0       ?SetRepeatedEnum@GeneratedMessageReflection@internal@protobuf@google@@UBEXPAVMessage@34@PBVFieldDescriptor@34@HPBVEnumValueDescriptor@34@@Z 100421f0 f   libprotobuf:generated_message_reflection.obj
 0001:000412d0       ?SetRepeatedFloat@GeneratedMessageReflection@internal@protobuf@google@@UBEXPAVMessage@34@PBVFieldDescriptor@34@HM@Z 100422d0 f   libprotobuf:generated_message_reflection.obj
 0001:00041390       ?SetRepeatedInt32@GeneratedMessageReflection@internal@protobuf@google@@UBEXPAVMessage@34@PBVFieldDescriptor@34@HH@Z 10042390 f   libprotobuf:generated_message_reflection.obj
 0001:00041440       ?SetRepeatedInt64@GeneratedMessageReflection@internal@protobuf@google@@UBEXPAVMessage@34@PBVFieldDescriptor@34@H_J@Z 10042440 f   libprotobuf:generated_message_reflection.obj
 0001:00041500       ?SetRepeatedString@GeneratedMessageReflection@internal@protobuf@google@@UBEXPAVMessage@34@PBVFieldDescriptor@34@HABV?$basic_string@DU?$char_traits@D@std@@V?$allocator@D@2@@std@@@Z 10042500 f   libprotobuf:generated_message_reflection.obj
 0001:000415e0       ?SetRepeatedUInt32@GeneratedMessageReflection@internal@protobuf@google@@UBEXPAVMessage@34@PBVFieldDescriptor@34@HI@Z 100425e0 f   libprotobuf:generated_message_reflection.obj
 0001:00041690       ?SetRepeatedUInt64@GeneratedMessageReflection@internal@protobuf@google@@UBEXPAVMessage@34@PBVFieldDescriptor@34@H_K@Z 10042690 f   libprotobuf:generated_message_reflection.obj
 0001:00041750       ?SetString@GeneratedMessageReflection@internal@protobuf@google@@UBEXPAVMessage@34@PBVFieldDescriptor@34@ABV?$basic_string@DU?$char_traits@D@std@@V?$allocator@D@2@@std@@@Z 10042750 f   libprotobuf:generated_message_reflection.obj
 0001:00041930       ?SetUInt32@GeneratedMessageReflection@internal@protobuf@google@@UBEXPAVMessage@34@PBVFieldDescriptor@34@I@Z 10042930 f   libprotobuf:generated_message_reflection.obj
 0001:000419e0       ?SetUInt64@GeneratedMessageReflection@internal@protobuf@google@@UBEXPAVMessage@34@PBVFieldDescriptor@34@_K@Z 100429e0 f   libprotobuf:generated_message_reflection.obj
 0001:00041a90       ?SpaceUsed@GeneratedMessageReflection@internal@protobuf@google@@UBEHABVMessage@34@@Z 10042a90 f   libprotobuf:generated_message_reflection.obj
 0001:00041d10       ?StringSpaceUsedExcludingSelf@internal@protobuf@google@@YAHABV?$basic_string@DU?$char_traits@D@std@@V?$allocator@D@2@@std@@@Z 10042d10 f   libprotobuf:generated_message_reflection.obj
 0001:00041d40       ?Swap@?$RepeatedField@M@protobuf@google@@QAEXPAV123@@Z 10042d40 f i libprotobuf:generated_message_reflection.obj
 0001:00041d40       ?Swap@?$RepeatedField@_J@protobuf@google@@QAEXPAV123@@Z 10042d40 f i libprotobuf:generated_message_reflection.obj
 0001:00041d40       ?Swap@?$RepeatedField@_K@protobuf@google@@QAEXPAV123@@Z 10042d40 f i libprotobuf:generated_message_reflection.obj
 0001:00041d40       ?Swap@?$RepeatedField@_N@protobuf@google@@QAEXPAV123@@Z 10042d40 f i libprotobuf:generated_message_reflection.obj
 0001:00041d40       ?Swap@?$RepeatedField@N@protobuf@google@@QAEXPAV123@@Z 10042d40 f i libprotobuf:generated_message_reflection.obj
 0001:00041d40       ?Swap@?$RepeatedField@I@protobuf@google@@QAEXPAV123@@Z 10042d40 f i libprotobuf:generated_message_reflection.obj
 0001:00041d40       ?Swap@?$RepeatedField@H@protobuf@google@@QAEXPAV123@@Z 10042d40 f i libprotobuf:descriptor.pb.obj
 0001:00041d80       ?Swap@GeneratedMessageReflection@internal@protobuf@google@@UBEXPAVMessage@34@0@Z 10042d80 f   libprotobuf:generated_message_reflection.obj
 0001:00042050       ?SwapElements@GeneratedMessageReflection@internal@protobuf@google@@UBEXPAVMessage@34@PBVFieldDescriptor@34@HH@Z 10043050 f   libprotobuf:generated_message_reflection.obj
 0001:00042210       ?SwapField@GeneratedMessageReflection@internal@protobuf@google@@ABEXPAVMessage@34@0PBVFieldDescriptor@34@@Z 10043210 f   libprotobuf:generated_message_reflection.obj
 0001:000425d0       ?SwapFields@GeneratedMessageReflection@internal@protobuf@google@@UBEXPAVMessage@34@0ABV?$vector@PBVFieldDescriptor@protobuf@google@@V?$allocator@PBVFieldDescriptor@protobuf@google@@@std@@@std@@@Z 100435d0 f   libprotobuf:generated_message_reflection.obj
 0001:00042900       ?SwapOneofField@GeneratedMessageReflection@internal@protobuf@google@@ABEXPAVMessage@34@0PBVOneofDescriptor@34@@Z 10043900 f   libprotobuf:generated_message_reflection.obj
 0001:00042e60       ?clear@?$basic_string@DU?$char_traits@D@std@@V?$allocator@D@2@@std@@QAEXXZ 10043e60 f i libprotobuf:generated_message_reflection.obj
 0001:00042e80       ??$?HDU?$char_traits@D@std@@V?$allocator@D@1@@std@@YA?AV?$basic_string@DU?$char_traits@D@std@@V?$allocator@D@2@@0@ABV10@0@Z 10043e80 f i libprotobuf:reflection_ops.obj
 0001:00042f50       ?Clear@ReflectionOps@internal@protobuf@google@@SAXPAVMessage@34@@Z 10043f50 f   libprotobuf:reflection_ops.obj
 0001:00043060       ?Copy@ReflectionOps@internal@protobuf@google@@SAXABVMessage@34@PAV534@@Z 10044060 f   libprotobuf:reflection_ops.obj
 0001:00043090       ?DiscardUnknownFields@ReflectionOps@internal@protobuf@google@@SAXPAVMessage@34@@Z 10044090 f   libprotobuf:reflection_ops.obj
 0001:00043200       ?FindInitializationErrors@ReflectionOps@internal@protobuf@google@@SAXABVMessage@34@ABV?$basic_string@DU?$char_traits@D@std@@V?$allocator@D@2@@std@@PAV?$vector@V?$basic_string@DU?$char_traits@D@std@@V?$allocator@D@2@@std@@V?$allocator@V?$basic_string@DU?$char_traits@D@std@@V?$allocator@D@2@@std@@@2@@7@@Z 10044200 f   libprotobuf:reflection_ops.obj
 0001:000434f0       ?IsInitialized@ReflectionOps@internal@protobuf@google@@SA_NABVMessage@34@@Z 100444f0 f   libprotobuf:reflection_ops.obj
 0001:000436d0       ?Merge@ReflectionOps@internal@protobuf@google@@SAXABVMessage@34@PAV534@@Z 100446d0 f   libprotobuf:reflection_ops.obj
 0001:00043e90       ?ByteSize@WireFormat@internal@protobuf@google@@SAHABVMessage@34@@Z 10044e90 f   libprotobuf:wire_format.obj
 0001:00043fc0       ?ComputeUnknownFieldsSize@WireFormat@internal@protobuf@google@@SAHABVUnknownFieldSet@34@@Z 10044fc0 f   libprotobuf:wire_format.obj
 0001:00044170       ?ComputeUnknownMessageSetItemsSize@WireFormat@internal@protobuf@google@@SAHABVUnknownFieldSet@34@@Z 10045170 f   libprotobuf:wire_format.obj
 0001:00044220       ?FieldByteSize@WireFormat@internal@protobuf@google@@SAHPBVFieldDescriptor@34@ABVMessage@34@@Z 10045220 f   libprotobuf:wire_format.obj
 0001:00044330       ?FieldDataOnlyByteSize@WireFormat@internal@protobuf@google@@SAHPBVFieldDescriptor@34@ABVMessage@34@@Z 10045330 f   libprotobuf:wire_format.obj
 0001:000448c0       ?MessageSetItemByteSize@WireFormat@internal@protobuf@google@@SAHPBVFieldDescriptor@34@ABVMessage@34@@Z 100458c0 f   libprotobuf:wire_format.obj
 0001:00044940       ?ParseAndMergeField@WireFormat@internal@protobuf@google@@SA_NIPBVFieldDescriptor@34@PAVMessage@34@PAVCodedInputStream@io@34@@Z 10045940 f   libprotobuf:wire_format.obj
 0001:00045370       ?ParseAndMergeMessageSetField@WireFormat@internal@protobuf@google@@CA_NIPBVFieldDescriptor@34@PAVMessage@34@PAVCodedInputStream@io@34@@Z 10046370 f   libprotobuf:wire_format.obj
 0001:00045480       ?ParseAndMergeMessageSetItem@WireFormat@internal@protobuf@google@@SA_NPAVCodedInputStream@io@34@PAVMessage@34@@Z 10046480 f   libprotobuf:wire_format.obj
 0001:000457c0       ?ParseAndMergePartial@WireFormat@internal@protobuf@google@@SA_NPAVCodedInputStream@io@34@PAVMessage@34@@Z 100467c0 f   libprotobuf:wire_format.obj
 0001:000458d0       ?SerializeFieldWithCachedSizes@WireFormat@internal@protobuf@google@@SAXPBVFieldDescriptor@34@ABVMessage@34@PAVCodedOutputStream@io@34@@Z 100468d0 f   libprotobuf:wire_format.obj
 0001:00045ff0       ?SerializeMessageSetItemWithCachedSizes@WireFormat@internal@protobuf@google@@SAXPBVFieldDescriptor@34@ABVMessage@34@PAVCodedOutputStream@io@34@@Z 10046ff0 f   libprotobuf:wire_format.obj
 0001:00046070       ?SerializeUnknownFields@WireFormat@internal@protobuf@google@@SAXABVUnknownFieldSet@34@PAVCodedOutputStream@io@34@@Z 10047070 f   libprotobuf:wire_format.obj
 0001:000461c0       ?SerializeUnknownFieldsToArray@WireFormat@internal@protobuf@google@@SAPAEABVUnknownFieldSet@34@PAE@Z 100471c0 f   libprotobuf:wire_format.obj
 0001:00046320       ?SerializeUnknownMessageSetItems@WireFormat@internal@protobuf@google@@SAXABVUnknownFieldSet@34@PAVCodedOutputStream@io@34@@Z 10047320 f   libprotobuf:wire_format.obj
 0001:000463a0       ?SerializeWithCachedSizes@WireFormat@internal@protobuf@google@@SAXABVMessage@34@HPAVCodedOutputStream@io@34@@Z 100473a0 f   libprotobuf:wire_format.obj
 0001:00046560       ?SkipField@UnknownFieldSetFieldSkipper@internal@protobuf@google@@UAE_NPAVCodedInputStream@io@34@I@Z 10047560 f   libprotobuf:wire_format.obj
 0001:00046580       ?SkipField@WireFormat@internal@protobuf@google@@SA_NPAVCodedInputStream@io@34@IPAVUnknownFieldSet@34@@Z 10047580 f   libprotobuf:wire_format.obj
 0001:00046720       ?SkipMessage@UnknownFieldSetFieldSkipper@internal@protobuf@google@@UAE_NPAVCodedInputStream@io@34@@Z 10047720 f   libprotobuf:wire_format.obj
 0001:00046740       ?SkipMessage@WireFormat@internal@protobuf@google@@SA_NPAVCodedInputStream@io@34@PAVUnknownFieldSet@34@@Z 10047740 f   libprotobuf:wire_format.obj
 0001:000467a0       ?SkipUnknownEnum@UnknownFieldSetFieldSkipper@internal@protobuf@google@@UAEXHH@Z 100477a0 f   libprotobuf:wire_format.obj
 0001:000467c0       ??0ArrayInputStream@io@protobuf@google@@QAE@PBXHH@Z 100477c0 f   libprotobuf:zero_copy_stream_impl_lite.obj
 0001:00046800       ??0ArrayOutputStream@io@protobuf@google@@QAE@PAXHH@Z 10047800 f   libprotobuf:zero_copy_stream_impl_lite.obj
 0001:00046840       ??0StringOutputStream@io@protobuf@google@@QAE@PAV?$basic_string@DU?$char_traits@D@std@@V?$allocator@D@2@@std@@@Z 10047840 f   libprotobuf:zero_copy_stream_impl_lite.obj
 0001:00046860       ??1ArrayInputStream@io@protobuf@google@@UAE@XZ 10047860 f   libprotobuf:zero_copy_stream_impl_lite.obj
 0001:00046870       ??1ArrayOutputStream@io@protobuf@google@@UAE@XZ 10047870 f   libprotobuf:zero_copy_stream_impl_lite.obj
 0001:00046880       ??1StringOutputStream@io@protobuf@google@@UAE@XZ 10047880 f   libprotobuf:zero_copy_stream_impl_lite.obj
 0001:00046890       ??_GArrayInputStream@io@protobuf@google@@UAEPAXI@Z 10047890 f i libprotobuf:zero_copy_stream_impl_lite.obj
 0001:00046890       ??_EArrayInputStream@io@protobuf@google@@UAEPAXI@Z 10047890 f i libprotobuf:zero_copy_stream_impl_lite.obj
 0001:000468c0       ??_EArrayOutputStream@io@protobuf@google@@UAEPAXI@Z 100478c0 f i libprotobuf:zero_copy_stream_impl_lite.obj
 0001:000468c0       ??_GArrayOutputStream@io@protobuf@google@@UAEPAXI@Z 100478c0 f i libprotobuf:zero_copy_stream_impl_lite.obj
 0001:000468f0       ??_EStringOutputStream@io@protobuf@google@@UAEPAXI@Z 100478f0 f i libprotobuf:zero_copy_stream_impl_lite.obj
 0001:000468f0       ??_GStringOutputStream@io@protobuf@google@@UAEPAXI@Z 100478f0 f i libprotobuf:zero_copy_stream_impl_lite.obj
 0001:00046920       ??_EZeroCopyInputStream@io@protobuf@google@@UAEPAXI@Z 10047920 f i libprotobuf:zero_copy_stream_impl_lite.obj
 0001:00046920       ??_GZeroCopyInputStream@io@protobuf@google@@UAEPAXI@Z 10047920 f i libprotobuf:zero_copy_stream_impl_lite.obj
 0001:00046950       ??_EZeroCopyOutputStream@io@protobuf@google@@UAEPAXI@Z 10047950 f i libprotobuf:zero_copy_stream_impl_lite.obj
 0001:00046950       ??_GZeroCopyOutputStream@io@protobuf@google@@UAEPAXI@Z 10047950 f i libprotobuf:zero_copy_stream_impl_lite.obj
 0001:00046980       ?AllowsAliasing@ZeroCopyOutputStream@io@protobuf@google@@UBE_NXZ 10047980 f i libprotobuf:zero_copy_stream_impl_lite.obj
 0001:00046990       ?BackUp@ArrayInputStream@io@protobuf@google@@UAEXH@Z 10047990 f   libprotobuf:zero_copy_stream_impl_lite.obj
 0001:00046ae0       ?BackUp@ArrayOutputStream@io@protobuf@google@@UAEXH@Z 10047ae0 f   libprotobuf:zero_copy_stream_impl_lite.obj
 0001:00046c40       ?BackUp@StringOutputStream@io@protobuf@google@@UAEXH@Z 10047c40 f   libprotobuf:zero_copy_stream_impl_lite.obj
 0001:00046d60       ?ByteCount@ArrayInputStream@io@protobuf@google@@UBE_JXZ 10047d60 f   libprotobuf:zero_copy_stream_impl_lite.obj
 0001:00046d60       ?ByteCount@ArrayOutputStream@io@protobuf@google@@UBE_JXZ 10047d60 f   libprotobuf:zero_copy_stream_impl_lite.obj
 0001:00046d70       ?ByteCount@StringOutputStream@io@protobuf@google@@UBE_JXZ 10047d70 f   libprotobuf:zero_copy_stream_impl_lite.obj
 0001:00046d80       ?Next@ArrayOutputStream@io@protobuf@google@@UAE_NPAPAXPAH@Z 10047d80 f   libprotobuf:zero_copy_stream_impl_lite.obj
 0001:00046d80       ?Next@ArrayInputStream@io@protobuf@google@@UAE_NPAPBXPAH@Z 10047d80 f   libprotobuf:zero_copy_stream_impl_lite.obj
 0001:00046de0       ?Next@StringOutputStream@io@protobuf@google@@UAE_NPAPAXPAH@Z 10047de0 f   libprotobuf:zero_copy_stream_impl_lite.obj
 0001:00046f00       ?Skip@ArrayInputStream@io@protobuf@google@@UAE_NH@Z 10047f00 f   libprotobuf:zero_copy_stream_impl_lite.obj
 0001:00046fc0       ??$?MV?$basic_string@DU?$char_traits@D@std@@V?$allocator@D@2@@std@@H@std@@YA_NABU?$pair@V?$basic_string@DU?$char_traits@D@std@@V?$allocator@D@2@@std@@H@0@0@Z 10047fc0 f i libprotobuf:descriptor_database.obj
 0001:00047070       ??$FindWithDefault@V?$map@V?$basic_string@DU?$char_traits@D@std@@V?$allocator@D@2@@std@@U?$pair@PBXH@2@U?$less@V?$basic_string@DU?$char_traits@D@std@@V?$allocator@D@2@@std@@@2@V?$allocator@U?$pair@$$CBV?$basic_string@DU?$char_traits@D@std@@V?$allocator@D@2@@std@@U?$pair@PBXH@2@@std@@@2@@std@@@protobuf@google@@YAABU?$pair@PBXH@std@@ABV?$map@V?$basic_string@DU?$char_traits@D@std@@V?$allocator@D@2@@std@@U?$pair@PBXH@2@U?$less@V?$basic_string@DU?$char_traits@D@std@@V?$allocator@D@2@@std@@@2@V?$allocator@U?$pair@$$CBV?$basic_string@DU?$char_traits@D@std@@V?$allocator@D@2@@std@@U?$pair@PBXH@2@@std@@@2@@3@ABV?$basic_string@DU?$char_traits@D@std@@V?$allocator@D@2@@3@ABU23@@Z 10048070 f i libprotobuf:descriptor_database.obj
 0001:00047110       ??$InsertIfNotPresent@V?$map@U?$pair@V?$basic_string@DU?$char_traits@D@std@@V?$allocator@D@2@@std@@H@std@@U?$pair@PBXH@2@U?$less@U?$pair@V?$basic_string@DU?$char_traits@D@std@@V?$allocator@D@2@@std@@H@std@@@2@V?$allocator@U?$pair@$$CBU?$pair@V?$basic_string@DU?$char_traits@D@std@@V?$allocator@D@2@@std@@H@std@@U?$pair@PBXH@2@@std@@@2@@std@@@protobuf@google@@YA_NQAV?$map@U?$pair@V?$basic_string@DU?$char_traits@D@std@@V?$allocator@D@2@@std@@H@std@@U?$pair@PBXH@2@U?$less@U?$pair@V?$basic_string@DU?$char_traits@D@std@@V?$allocator@D@2@@std@@H@std@@@2@V?$allocator@U?$pair@$$CBU?$pair@V?$basic_string@DU?$char_traits@D@std@@V?$allocator@D@2@@std@@H@std@@U?$pair@PBXH@2@@std@@@2@@std@@ABU?$pair@V?$basic_string@DU?$char_traits@D@std@@V?$allocator@D@2@@std@@H@3@ABU?$pair@PBXH@3@@Z 10048110 f i libprotobuf:descriptor_database.obj
 0001:000471d0       ??$InsertIfNotPresent@V?$map@V?$basic_string@DU?$char_traits@D@std@@V?$allocator@D@2@@std@@U?$pair@PBXH@2@U?$less@V?$basic_string@DU?$char_traits@D@std@@V?$allocator@D@2@@std@@@2@V?$allocator@U?$pair@$$CBV?$basic_string@DU?$char_traits@D@std@@V?$allocator@D@2@@std@@U?$pair@PBXH@2@@std@@@2@@std@@@protobuf@google@@YA_NQAV?$map@V?$basic_string@DU?$char_traits@D@std@@V?$allocator@D@2@@std@@U?$pair@PBXH@2@U?$less@V?$basic_string@DU?$char_traits@D@std@@V?$allocator@D@2@@std@@@2@V?$allocator@U?$pair@$$CBV?$basic_string@DU?$char_traits@D@std@@V?$allocator@D@2@@std@@U?$pair@PBXH@2@@std@@@2@@std@@ABV?$basic_string@DU?$char_traits@D@std@@V?$allocator@D@2@@3@ABU?$pair@PBXH@3@@Z 100481d0 f i libprotobuf:descriptor_database.obj
 0001:00047280       ??$_Buynode@ABU?$pair@$$CBU?$pair@V?$basic_string@DU?$char_traits@D@std@@V?$allocator@D@2@@std@@H@std@@U?$pair@PBXH@2@@std@@@?$_Tree_comp_alloc@V?$_Tmap_traits@U?$pair@V?$basic_string@DU?$char_traits@D@std@@V?$allocator@D@2@@std@@H@std@@U?$pair@PBXH@2@U?$less@U?$pair@V?$basic_string@DU?$char_traits@D@std@@V?$allocator@D@2@@std@@H@std@@@2@V?$allocator@U?$pair@$$CBU?$pair@V?$basic_string@DU?$char_traits@D@std@@V?$allocator@D@2@@std@@H@std@@U?$pair@PBXH@2@@std@@@2@$0A@@std@@@std@@QAEPAU?$_Tree_node@U?$pair@$$CBU?$pair@V?$basic_string@DU?$char_traits@D@std@@V?$allocator@D@2@@std@@H@std@@U?$pair@PBXH@2@@std@@PAX@1@ABU?$pair@$$CBU?$pair@V?$basic_string@DU?$char_traits@D@std@@V?$allocator@D@2@@std@@H@std@@U?$pair@PBXH@2@@1@@Z 10048280 f i libprotobuf:descriptor_database.obj
 0001:00047340       ??$_Buynode@U?$pair@$$CBV?$basic_string@DU?$char_traits@D@std@@V?$allocator@D@2@@std@@U?$pair@PBXH@2@@std@@@?$_Tree_comp_alloc@V?$_Tmap_traits@V?$basic_string@DU?$char_traits@D@std@@V?$allocator@D@2@@std@@U?$pair@PBXH@2@U?$less@V?$basic_string@DU?$char_traits@D@std@@V?$allocator@D@2@@std@@@2@V?$allocator@U?$pair@$$CBV?$basic_string@DU?$char_traits@D@std@@V?$allocator@D@2@@std@@U?$pair@PBXH@2@@std@@@2@$0A@@std@@@std@@QAEPAU?$_Tree_node@U?$pair@$$CBV?$basic_string@DU?$char_traits@D@std@@V?$allocator@D@2@@std@@U?$pair@PBXH@2@@std@@PAX@1@$$QAU?$pair@$$CBV?$basic_string@DU?$char_traits@D@std@@V?$allocator@D@2@@std@@U?$pair@PBXH@2@@1@@Z 10048340 f i libprotobuf:descriptor_database.obj
 0001:00047340       ??$_Buynode@ABU?$pair@$$CBV?$basic_string@DU?$char_traits@D@std@@V?$allocator@D@2@@std@@U?$pair@PBXH@2@@std@@@?$_Tree_comp_alloc@V?$_Tmap_traits@V?$basic_string@DU?$char_traits@D@std@@V?$allocator@D@2@@std@@U?$pair@PBXH@2@U?$less@V?$basic_string@DU?$char_traits@D@std@@V?$allocator@D@2@@std@@@2@V?$allocator@U?$pair@$$CBV?$basic_string@DU?$char_traits@D@std@@V?$allocator@D@2@@std@@U?$pair@PBXH@2@@std@@@2@$0A@@std@@@std@@QAEPAU?$_Tree_node@U?$pair@$$CBV?$basic_string@DU?$char_traits@D@std@@V?$allocator@D@2@@std@@U?$pair@PBXH@2@@std@@PAX@1@ABU?$pair@$$CBV?$basic_string@DU?$char_traits@D@std@@V?$allocator@D@2@@std@@U?$pair@PBXH@2@@1@@Z 10048340 f i libprotobuf:descriptor_database.obj
 0001:00047400       ??$_Insert_at@ABU?$pair@$$CBU?$pair@V?$basic_string@DU?$char_traits@D@std@@V?$allocator@D@2@@std@@H@std@@U?$pair@PBXH@2@@std@@U_Nil@2@@?$_Tree@V?$_Tmap_traits@U?$pair@V?$basic_string@DU?$char_traits@D@std@@V?$allocator@D@2@@std@@H@std@@U?$pair@PBXH@2@U?$less@U?$pair@V?$basic_string@DU?$char_traits@D@std@@V?$allocator@D@2@@std@@H@std@@@2@V?$allocator@U?$pair@$$CBU?$pair@V?$basic_string@DU?$char_traits@D@std@@V?$allocator@D@2@@std@@H@std@@U?$pair@PBXH@2@@std@@@2@$0A@@std@@@std@@IAE?AV?$_Tree_iterator@V?$_Tree_val@U?$_Tree_simple_types@U?$pair@$$CBU?$pair@V?$basic_string@DU?$char_traits@D@std@@V?$allocator@D@2@@std@@H@std@@U?$pair@PBXH@2@@std@@@std@@@std@@@1@_NPAU?$_Tree_node@U?$pair@$$CBU?$pair@V?$basic_string@DU?$char_traits@D@std@@V?$allocator@D@2@@std@@H@std@@U?$pair@PBXH@2@@std@@PAX@1@ABU?$pair@$$CBU?$pair@V?$basic_string@DU?$char_traits@D@std@@V?$allocator@D@2@@std@@H@std@@U?$pair@PBXH@2@@1@U_Nil@1@@Z 10048400 f i libprotobuf:descriptor_database.obj
 0001:000475a0       ??$_Insert_at@U?$pair@$$CBV?$basic_string@DU?$char_traits@D@std@@V?$allocator@D@2@@std@@U?$pair@PBXH@2@@std@@U_Nil@2@@?$_Tree@V?$_Tmap_traits@V?$basic_string@DU?$char_traits@D@std@@V?$allocator@D@2@@std@@U?$pair@PBXH@2@U?$less@V?$basic_string@DU?$char_traits@D@std@@V?$allocator@D@2@@std@@@2@V?$allocator@U?$pair@$$CBV?$basic_string@DU?$char_traits@D@std@@V?$allocator@D@2@@std@@U?$pair@PBXH@2@@std@@@2@$0A@@std@@@std@@IAE?AV?$_Tree_iterator@V?$_Tree_val@U?$_Tree_simple_types@U?$pair@$$CBV?$basic_string@DU?$char_traits@D@std@@V?$allocator@D@2@@std@@U?$pair@PBXH@2@@std@@@std@@@std@@@1@_NPAU?$_Tree_node@U?$pair@$$CBV?$basic_string@DU?$char_traits@D@std@@V?$allocator@D@2@@std@@U?$pair@PBXH@2@@std@@PAX@1@$$QAU?$pair@$$CBV?$basic_string@DU?$char_traits@D@std@@V?$allocator@D@2@@std@@U?$pair@PBXH@2@@1@U_Nil@1@@Z 100485a0 f i libprotobuf:descriptor_database.obj
 0001:000475a0       ??$_Insert_at@ABU?$pair@$$CBV?$basic_string@DU?$char_traits@D@std@@V?$allocator@D@2@@std@@U?$pair@PBXH@2@@std@@U_Nil@2@@?$_Tree@V?$_Tmap_traits@V?$basic_string@DU?$char_traits@D@std@@V?$allocator@D@2@@std@@U?$pair@PBXH@2@U?$less@V?$basic_string@DU?$char_traits@D@std@@V?$allocator@D@2@@std@@@2@V?$allocator@U?$pair@$$CBV?$basic_string@DU?$char_traits@D@std@@V?$allocator@D@2@@std@@U?$pair@PBXH@2@@std@@@2@$0A@@std@@@std@@IAE?AV?$_Tree_iterator@V?$_Tree_val@U?$_Tree_simple_types@U?$pair@$$CBV?$basic_string@DU?$char_traits@D@std@@V?$allocator@D@2@@std@@U?$pair@PBXH@2@@std@@@std@@@std@@@1@_NPAU?$_Tree_node@U?$pair@$$CBV?$basic_string@DU?$char_traits@D@std@@V?$allocator@D@2@@std@@U?$pair@PBXH@2@@std@@PAX@1@ABU?$pair@$$CBV?$basic_string@DU?$char_traits@D@std@@V?$allocator@D@2@@std@@U?$pair@PBXH@2@@1@U_Nil@1@@Z 100485a0 f i libprotobuf:descriptor_database.obj
 0001:00047740       ??$_Insert_hint@U?$pair@$$CBV?$basic_string@DU?$char_traits@D@std@@V?$allocator@D@2@@std@@U?$pair@PBXH@2@@std@@U_Nil@2@@?$_Tree@V?$_Tmap_traits@V?$basic_string@DU?$char_traits@D@std@@V?$allocator@D@2@@std@@U?$pair@PBXH@2@U?$less@V?$basic_string@DU?$char_traits@D@std@@V?$allocator@D@2@@std@@@2@V?$allocator@U?$pair@$$CBV?$basic_string@DU?$char_traits@D@std@@V?$allocator@D@2@@std@@U?$pair@PBXH@2@@std@@@2@$0A@@std@@@std@@IAE?AV?$_Tree_iterator@V?$_Tree_val@U?$_Tree_simple_types@U?$pair@$$CBV?$basic_string@DU?$char_traits@D@std@@V?$allocator@D@2@@std@@U?$pair@PBXH@2@@std@@@std@@@std@@@1@V?$_Tree_const_iterator@V?$_Tree_val@U?$_Tree_simple_types@U?$pair@$$CBV?$basic_string@DU?$char_traits@D@std@@V?$allocator@D@2@@std@@U?$pair@PBXH@2@@std@@@std@@@std@@@1@$$QAU?$pair@$$CBV?$basic_string@DU?$char_traits@D@std@@V?$allocator@D@2@@std@@U?$pair@PBXH@2@@1@U_Nil@1@@Z 10048740 f i libprotobuf:descriptor_database.obj
 0001:00047900       ??$_Insert_nohint@ABU?$pair@$$CBU?$pair@V?$basic_string@DU?$char_traits@D@std@@V?$allocator@D@2@@std@@H@std@@U?$pair@PBXH@2@@std@@U_Nil@2@@?$_Tree@V?$_Tmap_traits@U?$pair@V?$basic_string@DU?$char_traits@D@std@@V?$allocator@D@2@@std@@H@std@@U?$pair@PBXH@2@U?$less@U?$pair@V?$basic_string@DU?$char_traits@D@std@@V?$allocator@D@2@@std@@H@std@@@2@V?$allocator@U?$pair@$$CBU?$pair@V?$basic_string@DU?$char_traits@D@std@@V?$allocator@D@2@@std@@H@std@@U?$pair@PBXH@2@@std@@@2@$0A@@std@@@std@@IAE?AU?$pair@V?$_Tree_iterator@V?$_Tree_val@U?$_Tree_simple_types@U?$pair@$$CBU?$pair@V?$basic_string@DU?$char_traits@D@std@@V?$allocator@D@2@@std@@H@std@@U?$pair@PBXH@2@@std@@@std@@@std@@@std@@_N@1@_NABU?$pair@$$CBU?$pair@V?$basic_string@DU?$char_traits@D@std@@V?$allocator@D@2@@std@@H@std@@U?$pair@PBXH@2@@1@U_Nil@1@@Z 10048900 f i libprotobuf:descriptor_database.obj
 0001:00047a10       ??$_Insert_nohint@ABU?$pair@$$CBV?$basic_string@DU?$char_traits@D@std@@V?$allocator@D@2@@std@@U?$pair@PBXH@2@@std@@U_Nil@2@@?$_Tree@V?$_Tmap_traits@V?$basic_string@DU?$char_traits@D@std@@V?$allocator@D@2@@std@@U?$pair@PBXH@2@U?$less@V?$basic_string@DU?$char_traits@D@std@@V?$allocator@D@2@@std@@@2@V?$allocator@U?$pair@$$CBV?$basic_string@DU?$char_traits@D@std@@V?$allocator@D@2@@std@@U?$pair@PBXH@2@@std@@@2@$0A@@std@@@std@@IAE?AU?$pair@V?$_Tree_iterator@V?$_Tree_val@U?$_Tree_simple_types@U?$pair@$$CBV?$basic_string@DU?$char_traits@D@std@@V?$allocator@D@2@@std@@U?$pair@PBXH@2@@std@@@std@@@std@@@std@@_N@1@_NABU?$pair@$$CBV?$basic_string@DU?$char_traits@D@std@@V?$allocator@D@2@@std@@U?$pair@PBXH@2@@1@U_Nil@1@@Z 10048a10 f i libprotobuf:descriptor_database.obj
 0001:00047a10       ??$_Insert_nohint@U?$pair@$$CBV?$basic_string@DU?$char_traits@D@std@@V?$allocator@D@2@@std@@U?$pair@PBXH@2@@std@@U_Nil@2@@?$_Tree@V?$_Tmap_traits@V?$basic_string@DU?$char_traits@D@std@@V?$allocator@D@2@@std@@U?$pair@PBXH@2@U?$less@V?$basic_string@DU?$char_traits@D@std@@V?$allocator@D@2@@std@@@2@V?$allocator@U?$pair@$$CBV?$basic_string@DU?$char_traits@D@std@@V?$allocator@D@2@@std@@U?$pair@PBXH@2@@std@@@2@$0A@@std@@@std@@IAE?AU?$pair@V?$_Tree_iterator@V?$_Tree_val@U?$_Tree_simple_types@U?$pair@$$CBV?$basic_string@DU?$char_traits@D@std@@V?$allocator@D@2@@std@@U?$pair@PBXH@2@@std@@@std@@@std@@@std@@_N@1@_N$$QAU?$pair@$$CBV?$basic_string@DU?$char_traits@D@std@@V?$allocator@D@2@@std@@U?$pair@PBXH@2@@1@U_Nil@1@@Z 10048a10 f i libprotobuf:descriptor_database.obj
 0001:00047c80       ??$_Lbound@U?$pair@V?$basic_string@DU?$char_traits@D@std@@V?$allocator@D@2@@std@@H@std@@@?$_Tree@V?$_Tmap_traits@U?$pair@V?$basic_string@DU?$char_traits@D@std@@V?$allocator@D@2@@std@@H@std@@U?$pair@PBXH@2@U?$less@U?$pair@V?$basic_string@DU?$char_traits@D@std@@V?$allocator@D@2@@std@@H@std@@@2@V?$allocator@U?$pair@$$CBU?$pair@V?$basic_string@DU?$char_traits@D@std@@V?$allocator@D@2@@std@@H@std@@U?$pair@PBXH@2@@std@@@2@$0A@@std@@@std@@IBEPAU?$_Tree_node@U?$pair@$$CBU?$pair@V?$basic_string@DU?$char_traits@D@std@@V?$allocator@D@2@@std@@H@std@@U?$pair@PBXH@2@@std@@PAX@1@ABU?$pair@V?$basic_string@DU?$char_traits@D@std@@V?$allocator@D@2@@std@@H@1@@Z 10048c80 f i libprotobuf:descriptor_database.obj
 0001:00047e50       ??$_Lbound@V?$basic_string@DU?$char_traits@D@std@@V?$allocator@D@2@@std@@@?$_Tree@V?$_Tmap_traits@V?$basic_string@DU?$char_traits@D@std@@V?$allocator@D@2@@std@@U?$pair@PBXH@2@U?$less@V?$basic_string@DU?$char_traits@D@std@@V?$allocator@D@2@@std@@@2@V?$allocator@U?$pair@$$CBV?$basic_string@DU?$char_traits@D@std@@V?$allocator@D@2@@std@@U?$pair@PBXH@2@@std@@@2@$0A@@std@@@std@@IBEPAU?$_Tree_node@U?$pair@$$CBV?$basic_string@DU?$char_traits@D@std@@V?$allocator@D@2@@std@@U?$pair@PBXH@2@@std@@PAX@1@ABV?$basic_string@DU?$char_traits@D@std@@V?$allocator@D@2@@1@@Z 10048e50 f i libprotobuf:descriptor_database.obj
 0001:00047e50       ??$_Lbound@V?$basic_string@DU?$char_traits@D@std@@V?$allocator@D@2@@std@@@?$_Tree@V?$_Tset_traits@V?$basic_string@DU?$char_traits@D@std@@V?$allocator@D@2@@std@@U?$less@V?$basic_string@DU?$char_traits@D@std@@V?$allocator@D@2@@std@@@2@V?$allocator@V?$basic_string@DU?$char_traits@D@std@@V?$allocator@D@2@@std@@@2@$0A@@std@@@std@@IBEPAU?$_Tree_node@V?$basic_string@DU?$char_traits@D@std@@V?$allocator@D@2@@std@@PAX@1@ABV?$basic_string@DU?$char_traits@D@std@@V?$allocator@D@2@@1@@Z 10048e50 f i libprotobuf:descriptor.obj
 0001:00047f60       ??$_Ubound@V?$basic_string@DU?$char_traits@D@std@@V?$allocator@D@2@@std@@@?$_Tree@V?$_Tmap_traits@V?$basic_string@DU?$char_traits@D@std@@V?$allocator@D@2@@std@@U?$pair@PBXH@2@U?$less@V?$basic_string@DU?$char_traits@D@std@@V?$allocator@D@2@@std@@@2@V?$allocator@U?$pair@$$CBV?$basic_string@DU?$char_traits@D@std@@V?$allocator@D@2@@std@@U?$pair@PBXH@2@@std@@@2@$0A@@std@@@std@@IBEPAU?$_Tree_node@U?$pair@$$CBV?$basic_string@DU?$char_traits@D@std@@V?$allocator@D@2@@std@@U?$pair@PBXH@2@@std@@PAX@1@ABV?$basic_string@DU?$char_traits@D@std@@V?$allocator@D@2@@1@@Z 10048f60 f i libprotobuf:descriptor_database.obj
 0001:00048070       ??$make_pair@ABV?$basic_string@DU?$char_traits@D@std@@V?$allocator@D@2@@std@@H@std@@YA?AU?$pair@V?$basic_string@DU?$char_traits@D@std@@V?$allocator@D@2@@std@@H@0@ABV?$basic_string@DU?$char_traits@D@std@@V?$allocator@D@2@@0@$$QAH@Z 10049070 f i libprotobuf:descriptor_database.obj
 0001:00048070       ??$make_pair@ABV?$basic_string@DU?$char_traits@D@std@@V?$allocator@D@2@@std@@AAH@std@@YA?AU?$pair@V?$basic_string@DU?$char_traits@D@std@@V?$allocator@D@2@@std@@H@0@ABV?$basic_string@DU?$char_traits@D@std@@V?$allocator@D@2@@0@AAH@Z 10049070 f i libprotobuf:descriptor_database.obj
 0001:000480b0       ??$make_pair@V?$basic_string@DU?$char_traits@D@std@@V?$allocator@D@2@@std@@H@std@@YA?AU?$pair@V?$basic_string@DU?$char_traits@D@std@@V?$allocator@D@2@@std@@H@0@$$QAV?$basic_string@DU?$char_traits@D@std@@V?$allocator@D@2@@0@$$QAH@Z 100490b0 f i libprotobuf:descriptor_database.obj
 0001:000480f0       ??0?$DescriptorIndex@U?$pair@PBXH@std@@@SimpleDescriptorDatabase@protobuf@google@@QAE@XZ 100490f0 f i libprotobuf:descriptor_database.obj
 0001:00048190       ??0EncodedDescriptorDatabase@protobuf@google@@QAE@XZ 10049190 f   libprotobuf:descriptor_database.obj
 0001:00048200       ??1?$map@V?$basic_string@DU?$char_traits@D@std@@V?$allocator@D@2@@std@@U?$pair@PBXH@2@U?$less@V?$basic_string@DU?$char_traits@D@std@@V?$allocator@D@2@@std@@@2@V?$allocator@U?$pair@$$CBV?$basic_string@DU?$char_traits@D@std@@V?$allocator@D@2@@std@@U?$pair@PBXH@2@@std@@@2@@std@@QAE@XZ 10049200 f i libprotobuf:descriptor_database.obj
 0001:00048260       ??1?$pair@$$CBV?$basic_string@DU?$char_traits@D@std@@V?$allocator@D@2@@std@@U?$pair@PBXH@2@@std@@QAE@XZ 10049260 f i libprotobuf:descriptor_database.obj
 0001:00048260       ??1?$pair@$$CBU?$pair@V?$basic_string@DU?$char_traits@D@std@@V?$allocator@D@2@@std@@H@std@@U?$pair@PBXH@2@@std@@QAE@XZ 10049260 f i libprotobuf:descriptor_database.obj
 0001:00048260       ??1?$pair@V?$basic_string@DU?$char_traits@D@std@@V?$allocator@D@2@@std@@H@std@@QAE@XZ 10049260 f i libprotobuf:descriptor_database.obj
 0001:000482a0       ??1DescriptorDatabase@protobuf@google@@UAE@XZ 100492a0 f   libprotobuf:descriptor_database.obj
 0001:000482b0       ??1EncodedDescriptorDatabase@protobuf@google@@UAE@XZ 100492b0 f   libprotobuf:descriptor_database.obj
 0001:00048400       ??R?$less@V?$basic_string@DU?$char_traits@D@std@@V?$allocator@D@2@@std@@@std@@QBE_NABV?$basic_string@DU?$char_traits@D@std@@V?$allocator@D@2@@1@0@Z 10049400 f i libprotobuf:descriptor_database.obj
 0001:00048460       ??_GDescriptorDatabase@protobuf@google@@UAEPAXI@Z 10049460 f i libprotobuf:descriptor_database.obj
 0001:00048460       ??_EDescriptorDatabase@protobuf@google@@UAEPAXI@Z 10049460 f i libprotobuf:descriptor_database.obj
 0001:00048490       ??_GEncodedDescriptorDatabase@protobuf@google@@UAEPAXI@Z 10049490 f i libprotobuf:descriptor_database.obj
 0001:00048490       ??_EEncodedDescriptorDatabase@protobuf@google@@UAEPAXI@Z 10049490 f i libprotobuf:descriptor_database.obj
 0001:000484c0       ?Add@EncodedDescriptorDatabase@protobuf@google@@QAE_NPBXH@Z 100494c0 f   libprotobuf:descriptor_database.obj
 0001:000485a0       ?AddExtension@?$DescriptorIndex@U?$pair@PBXH@std@@@SimpleDescriptorDatabase@protobuf@google@@QAE_NABVFieldDescriptorProto@34@U?$pair@PBXH@std@@@Z 100495a0 f i libprotobuf:descriptor_database.obj
 0001:00048720       ?AddFile@?$DescriptorIndex@U?$pair@PBXH@std@@@SimpleDescriptorDatabase@protobuf@google@@QAE_NABVFileDescriptorProto@34@U?$pair@PBXH@std@@@Z 10049720 f i libprotobuf:descriptor_database.obj
 0001:00048bb0       ?AddNestedExtensions@?$DescriptorIndex@U?$pair@PBXH@std@@@SimpleDescriptorDatabase@protobuf@google@@QAE_NABVDescriptorProto@34@U?$pair@PBXH@std@@@Z 10049bb0 f i libprotobuf:descriptor_database.obj
 0001:00048c50       ?AddSymbol@?$DescriptorIndex@U?$pair@PBXH@std@@@SimpleDescriptorDatabase@protobuf@google@@QAE_NABV?$basic_string@DU?$char_traits@D@std@@V?$allocator@D@2@@std@@U?$pair@PBXH@6@@Z 10049c50 f i libprotobuf:descriptor_database.obj
 0001:00048e70       ?FindAllExtensionNumbers@?$DescriptorIndex@U?$pair@PBXH@std@@@SimpleDescriptorDatabase@protobuf@google@@QAE_NABV?$basic_string@DU?$char_traits@D@std@@V?$allocator@D@2@@std@@PAV?$vector@HV?$allocator@H@std@@@6@@Z 10049e70 f i libprotobuf:descriptor_database.obj
 0001:00049090       ?FindAllExtensionNumbers@EncodedDescriptorDatabase@protobuf@google@@UAE_NABV?$basic_string@DU?$char_traits@D@std@@V?$allocator@D@2@@std@@PAV?$vector@HV?$allocator@H@std@@@5@@Z 1004a090 f   libprotobuf:descriptor_database.obj
 0001:000490a0       ?FindExtension@?$DescriptorIndex@U?$pair@PBXH@std@@@SimpleDescriptorDatabase@protobuf@google@@QAE?AU?$pair@PBXH@std@@ABV?$basic_string@DU?$char_traits@D@std@@V?$allocator@D@2@@6@H@Z 1004a0a0 f i libprotobuf:descriptor_database.obj
 0001:00049170       ?FindFileByName@EncodedDescriptorDatabase@protobuf@google@@UAE_NABV?$basic_string@DU?$char_traits@D@std@@V?$allocator@D@2@@std@@PAVFileDescriptorProto@23@@Z 1004a170 f   libprotobuf:descriptor_database.obj
 0001:000491c0       ?FindFileContainingExtension@EncodedDescriptorDatabase@protobuf@google@@UAE_NABV?$basic_string@DU?$char_traits@D@std@@V?$allocator@D@2@@std@@HPAVFileDescriptorProto@23@@Z 1004a1c0 f   libprotobuf:descriptor_database.obj
 0001:00049200       ?FindFileContainingSymbol@EncodedDescriptorDatabase@protobuf@google@@UAE_NABV?$basic_string@DU?$char_traits@D@std@@V?$allocator@D@2@@std@@PAVFileDescriptorProto@23@@Z 1004a200 f   libprotobuf:descriptor_database.obj
 0001:00049240       ?FindSymbol@?$DescriptorIndex@U?$pair@PBXH@std@@@SimpleDescriptorDatabase@protobuf@google@@QAE?AU?$pair@PBXH@std@@ABV?$basic_string@DU?$char_traits@D@std@@V?$allocator@D@2@@6@@Z 1004a240 f i libprotobuf:descriptor_database.obj
 0001:000492c0       ?IsSubSymbol@?$DescriptorIndex@U?$pair@PBXH@std@@@SimpleDescriptorDatabase@protobuf@google@@AAE_NABV?$basic_string@DU?$char_traits@D@std@@V?$allocator@D@2@@std@@0@Z 1004a2c0 f i libprotobuf:descriptor_database.obj
 0001:00049380       ?ValidateSymbolName@?$DescriptorIndex@U?$pair@PBXH@std@@@SimpleDescriptorDatabase@protobuf@google@@AAE_NABV?$basic_string@DU?$char_traits@D@std@@V?$allocator@D@2@@std@@@Z 1004a380 f i libprotobuf:descriptor_database.obj
 0001:00049440       ?_Buyheadnode@?$_Tree_comp_alloc@V?$_Tmap_traits@U?$pair@V?$basic_string@DU?$char_traits@D@std@@V?$allocator@D@2@@std@@H@std@@U?$pair@PBXH@2@U?$less@U?$pair@V?$basic_string@DU?$char_traits@D@std@@V?$allocator@D@2@@std@@H@std@@@2@V?$allocator@U?$pair@$$CBU?$pair@V?$basic_string@DU?$char_traits@D@std@@V?$allocator@D@2@@std@@H@std@@U?$pair@PBXH@2@@std@@@2@$0A@@std@@@std@@QAEPAU?$_Tree_node@U?$pair@$$CBU?$pair@V?$basic_string@DU?$char_traits@D@std@@V?$allocator@D@2@@std@@H@std@@U?$pair@PBXH@2@@std@@PAX@2@XZ 1004a440 f i libprotobuf:descriptor_database.obj
 0001:00049470       ?_Buyheadnode@?$_Tree_comp_alloc@V?$_Tmap_traits@V?$basic_string@DU?$char_traits@D@std@@V?$allocator@D@2@@std@@U?$pair@PBXH@2@U?$less@V?$basic_string@DU?$char_traits@D@std@@V?$allocator@D@2@@std@@@2@V?$allocator@U?$pair@$$CBV?$basic_string@DU?$char_traits@D@std@@V?$allocator@D@2@@std@@U?$pair@PBXH@2@@std@@@2@$0A@@std@@@std@@QAEPAU?$_Tree_node@U?$pair@$$CBV?$basic_string@DU?$char_traits@D@std@@V?$allocator@D@2@@std@@U?$pair@PBXH@2@@std@@PAX@2@XZ 1004a470 f i libprotobuf:descriptor_database.obj
 0001:00049470       ?_Buyheadnode@?$_Tree_comp_alloc@V?$_Tmap_traits@HUExtension@ExtensionSet@internal@protobuf@google@@U?$less@H@std@@V?$allocator@U?$pair@$$CBHUExtension@ExtensionSet@internal@protobuf@google@@@std@@@7@$0A@@std@@@std@@QAEPAU?$_Tree_node@U?$pair@$$CBHUExtension@ExtensionSet@internal@protobuf@google@@@std@@PAX@2@XZ 1004a470 f i libprotobuf:extension_set.obj
 0001:000494a0       ?_Buynode0@?$_Tree_comp_alloc@V?$_Tmap_traits@U?$pair@V?$basic_string@DU?$char_traits@D@std@@V?$allocator@D@2@@std@@H@std@@U?$pair@PBXH@2@U?$less@U?$pair@V?$basic_string@DU?$char_traits@D@std@@V?$allocator@D@2@@std@@H@std@@@2@V?$allocator@U?$pair@$$CBU?$pair@V?$basic_string@DU?$char_traits@D@std@@V?$allocator@D@2@@std@@H@std@@U?$pair@PBXH@2@@std@@@2@$0A@@std@@@std@@QAEPAU?$_Tree_node@U?$pair@$$CBU?$pair@V?$basic_string@DU?$char_traits@D@std@@V?$allocator@D@2@@std@@H@std@@U?$pair@PBXH@2@@std@@PAX@2@XZ 1004a4a0 f i libprotobuf:descriptor_database.obj
 0001:000494e0       ?erase@?$_Tree@V?$_Tmap_traits@U?$pair@V?$basic_string@DU?$char_traits@D@std@@V?$allocator@D@2@@std@@H@std@@U?$pair@PBXH@2@U?$less@U?$pair@V?$basic_string@DU?$char_traits@D@std@@V?$allocator@D@2@@std@@H@std@@@2@V?$allocator@U?$pair@$$CBU?$pair@V?$basic_string@DU?$char_traits@D@std@@V?$allocator@D@2@@std@@H@std@@U?$pair@PBXH@2@@std@@@2@$0A@@std@@@std@@QAE?AV?$_Tree_iterator@V?$_Tree_val@U?$_Tree_simple_types@U?$pair@$$CBU?$pair@V?$basic_string@DU?$char_traits@D@std@@V?$allocator@D@2@@std@@H@std@@U?$pair@PBXH@2@@std@@@std@@@std@@@2@V?$_Tree_const_iterator@V?$_Tree_val@U?$_Tree_simple_types@U?$pair@$$CBU?$pair@V?$basic_string@DU?$char_traits@D@std@@V?$allocator@D@2@@std@@H@std@@U?$pair@PBXH@2@@std@@@std@@@std@@@2@0@Z 1004a4e0 f i libprotobuf:descriptor_database.obj
 0001:000494e0       ?erase@?$_Tree@V?$_Tmap_traits@V?$basic_string@DU?$char_traits@D@std@@V?$allocator@D@2@@std@@U?$pair@PBXH@2@U?$less@V?$basic_string@DU?$char_traits@D@std@@V?$allocator@D@2@@std@@@2@V?$allocator@U?$pair@$$CBV?$basic_string@DU?$char_traits@D@std@@V?$allocator@D@2@@std@@U?$pair@PBXH@2@@std@@@2@$0A@@std@@@std@@QAE?AV?$_Tree_iterator@V?$_Tree_val@U?$_Tree_simple_types@U?$pair@$$CBV?$basic_string@DU?$char_traits@D@std@@V?$allocator@D@2@@std@@U?$pair@PBXH@2@@std@@@std@@@std@@@2@V?$_Tree_const_iterator@V?$_Tree_val@U?$_Tree_simple_types@U?$pair@$$CBV?$basic_string@DU?$char_traits@D@std@@V?$allocator@D@2@@std@@U?$pair@PBXH@2@@std@@@std@@@std@@@2@0@Z 1004a4e0 f i libprotobuf:descriptor_database.obj
 0001:000494e0       ?erase@?$_Tree@V?$_Tmap_traits@V?$basic_string@DU?$char_traits@D@std@@V?$allocator@D@2@@std@@PBVSourceCodeInfo_Location@protobuf@google@@U?$hash@V?$basic_string@DU?$char_traits@D@std@@V?$allocator@D@2@@std@@@45@V?$allocator@U?$pair@$$CBV?$basic_string@DU?$char_traits@D@std@@V?$allocator@D@2@@std@@PBVSourceCodeInfo_Location@protobuf@google@@@std@@@2@$0A@@std@@@std@@QAE?AV?$_Tree_iterator@V?$_Tree_val@U?$_Tree_simple_types@U?$pair@$$CBV?$basic_string@DU?$char_traits@D@std@@V?$allocator@D@2@@std@@PBVSourceCodeInfo_Location@protobuf@google@@@std@@@std@@@std@@@2@V?$_Tree_const_iterator@V?$_Tree_val@U?$_Tree_simple_types@U?$pair@$$CBV?$basic_string@DU?$char_traits@D@std@@V?$allocator@D@2@@std@@PBVSourceCodeInfo_Location@protobuf@google@@@std@@@std@@@std@@@2@0@Z 1004a4e0 f i libprotobuf:descriptor.obj
 0001:000495d0       ?erase@?$_Tree@V?$_Tmap_traits@V?$basic_string@DU?$char_traits@D@std@@V?$allocator@D@2@@std@@PBVSourceCodeInfo_Location@protobuf@google@@U?$hash@V?$basic_string@DU?$char_traits@D@std@@V?$allocator@D@2@@std@@@45@V?$allocator@U?$pair@$$CBV?$basic_string@DU?$char_traits@D@std@@V?$allocator@D@2@@std@@PBVSourceCodeInfo_Location@protobuf@google@@@std@@@2@$0A@@std@@@std@@QAE?AV?$_Tree_iterator@V?$_Tree_val@U?$_Tree_simple_types@U?$pair@$$CBV?$basic_string@DU?$char_traits@D@std@@V?$allocator@D@2@@std@@PBVSourceCodeInfo_Location@protobuf@google@@@std@@@std@@@std@@@2@V?$_Tree_const_iterator@V?$_Tree_val@U?$_Tree_simple_types@U?$pair@$$CBV?$basic_string@DU?$char_traits@D@std@@V?$allocator@D@2@@std@@PBVSourceCodeInfo_Location@protobuf@google@@@std@@@std@@@std@@@2@@Z 1004a5d0 f i libprotobuf:descriptor.obj
 0001:000495d0       ?erase@?$_Tree@V?$_Tmap_traits@V?$basic_string@DU?$char_traits@D@std@@V?$allocator@D@2@@std@@U?$pair@PBXH@2@U?$less@V?$basic_string@DU?$char_traits@D@std@@V?$allocator@D@2@@std@@@2@V?$allocator@U?$pair@$$CBV?$basic_string@DU?$char_traits@D@std@@V?$allocator@D@2@@std@@U?$pair@PBXH@2@@std@@@2@$0A@@std@@@std@@QAE?AV?$_Tree_iterator@V?$_Tree_val@U?$_Tree_simple_types@U?$pair@$$CBV?$basic_string@DU?$char_traits@D@std@@V?$allocator@D@2@@std@@U?$pair@PBXH@2@@std@@@std@@@std@@@2@V?$_Tree_const_iterator@V?$_Tree_val@U?$_Tree_simple_types@U?$pair@$$CBV?$basic_string@DU?$char_traits@D@std@@V?$allocator@D@2@@std@@U?$pair@PBXH@2@@std@@@std@@@std@@@2@@Z 1004a5d0 f i libprotobuf:descriptor_database.obj
 0001:000495d0       ?erase@?$_Tree@V?$_Tset_traits@V?$basic_string@DU?$char_traits@D@std@@V?$allocator@D@2@@std@@U?$less@V?$basic_string@DU?$char_traits@D@std@@V?$allocator@D@2@@std@@@2@V?$allocator@V?$basic_string@DU?$char_traits@D@std@@V?$allocator@D@2@@std@@@2@$0A@@std@@@std@@QAE?AV?$_Tree_const_iterator@V?$_Tree_val@U?$_Tree_simple_types@V?$basic_string@DU?$char_traits@D@std@@V?$allocator@D@2@@std@@@std@@@std@@@2@V32@@Z 1004a5d0 f i libprotobuf:descriptor.obj
 0001:000495d0       ?erase@?$_Tree@V?$_Tset_traits@V?$basic_string@DU?$char_traits@D@std@@V?$allocator@D@2@@std@@U?$hash@V?$basic_string@DU?$char_traits@D@std@@V?$allocator@D@2@@std@@@protobuf@google@@V?$allocator@V?$basic_string@DU?$char_traits@D@std@@V?$allocator@D@2@@std@@@2@$0A@@std@@@std@@QAE?AV?$_Tree_const_iterator@V?$_Tree_val@U?$_Tree_simple_types@V?$basic_string@DU?$char_traits@D@std@@V?$allocator@D@2@@std@@@std@@@std@@@2@V32@@Z 1004a5d0 f i libprotobuf:descriptor.obj
 0001:000495d0       ?erase@?$_Tree@V?$_Tmap_traits@U?$pair@V?$basic_string@DU?$char_traits@D@std@@V?$allocator@D@2@@std@@H@std@@U?$pair@PBXH@2@U?$less@U?$pair@V?$basic_string@DU?$char_traits@D@std@@V?$allocator@D@2@@std@@H@std@@@2@V?$allocator@U?$pair@$$CBU?$pair@V?$basic_string@DU?$char_traits@D@std@@V?$allocator@D@2@@std@@H@std@@U?$pair@PBXH@2@@std@@@2@$0A@@std@@@std@@QAE?AV?$_Tree_iterator@V?$_Tree_val@U?$_Tree_simple_types@U?$pair@$$CBU?$pair@V?$basic_string@DU?$char_traits@D@std@@V?$allocator@D@2@@std@@H@std@@U?$pair@PBXH@2@@std@@@std@@@std@@@2@V?$_Tree_const_iterator@V?$_Tree_val@U?$_Tree_simple_types@U?$pair@$$CBU?$pair@V?$basic_string@DU?$char_traits@D@std@@V?$allocator@D@2@@std@@H@std@@U?$pair@PBXH@2@@std@@@std@@@std@@@2@@Z 1004a5d0 f i libprotobuf:descriptor_database.obj
 0001:000498b0       ??$?9DU?$char_traits@D@std@@V?$allocator@D@1@@std@@YA_NABV?$basic_string@DU?$char_traits@D@std@@V?$allocator@D@2@@0@0@Z 1004a8b0 f i libprotobuf:text_format.obj
 0001:00049910       ??$?9DU?$char_traits@D@std@@V?$allocator@D@1@@std@@YA_NABV?$basic_string@DU?$char_traits@D@std@@V?$allocator@D@2@@0@PBD@Z 1004a910 f i libprotobuf:text_format.obj
 0001:00049950       ??$FindWithDefault@V?$map@PBVFieldDescriptor@protobuf@google@@PBVFieldValuePrinter@TextFormat@23@U?$less@PBVFieldDescriptor@protobuf@google@@@std@@V?$allocator@U?$pair@QBVFieldDescriptor@protobuf@google@@PBVFieldValuePrinter@TextFormat@23@@std@@@7@@std@@@protobuf@google@@YAABQBVFieldValuePrinter@TextFormat@01@ABV?$map@PBVFieldDescriptor@protobuf@google@@PBVFieldValuePrinter@TextFormat@23@U?$less@PBVFieldDescriptor@protobuf@google@@@std@@V?$allocator@U?$pair@QBVFieldDescriptor@protobuf@google@@PBVFieldValuePrinter@TextFormat@23@@std@@@7@@std@@ABQBVFieldDescriptor@01@ABQBV2301@@Z 1004a950 f i libprotobuf:text_format.obj
 0001:000499b0       ??$STLDeleteValues@V?$map@PBVFieldDescriptor@protobuf@google@@PBVFieldValuePrinter@TextFormat@23@U?$less@PBVFieldDescriptor@protobuf@google@@@std@@V?$allocator@U?$pair@QBVFieldDescriptor@protobuf@google@@PBVFieldValuePrinter@TextFormat@23@@std@@@7@@std@@@protobuf@google@@YAXPAV?$map@PBVFieldDescriptor@protobuf@google@@PBVFieldValuePrinter@TextFormat@23@U?$less@PBVFieldDescriptor@protobuf@google@@@std@@V?$allocator@U?$pair@QBVFieldDescriptor@protobuf@google@@PBVFieldValuePrinter@TextFormat@23@@std@@@7@@std@@@Z 1004a9b0 f i libprotobuf:text_format.obj
 0001:00049aa0       ??$StrCat@$$BY01DV?$basic_string@DU?$char_traits@D@std@@V?$allocator@D@2@@std@@$$BY01D@protobuf@google@@YA?AV?$basic_string@DU?$char_traits@D@std@@V?$allocator@D@2@@std@@AAY01$$CBDABV23@0@Z 1004aaa0 f i libprotobuf:text_format.obj
 0001:00049ca0       ??$_Adjust_heap@PAPBVFieldDescriptor@protobuf@google@@HPBV123@UFieldIndexSorter@?A0xf6e69111@23@@std@@YAXPAPBVFieldDescriptor@protobuf@google@@HH$$QAPBV123@UFieldIndexSorter@?A0xf6e69111@23@@Z 1004aca0 f i libprotobuf:text_format.obj
 0001:00049d70       ??$_Buynode@ABUpiecewise_construct_t@std@@V?$tuple@ABQBVFieldDescriptor@protobuf@google@@@2@V?$tuple@$$V@2@@?$_Tree_comp_alloc@V?$_Tmap_traits@PBVFieldDescriptor@protobuf@google@@V?$vector@UParseLocation@TextFormat@protobuf@google@@V?$allocator@UParseLocation@TextFormat@protobuf@google@@@std@@@std@@U?$less@PBVFieldDescriptor@protobuf@google@@@5@V?$allocator@U?$pair@QBVFieldDescriptor@protobuf@google@@V?$vector@UParseLocation@TextFormat@protobuf@google@@V?$allocator@UParseLocation@TextFormat@protobuf@google@@@std@@@std@@@std@@@5@$0A@@std@@@std@@QAEPAU?$_Tree_node@U?$pair@QBVFieldDescriptor@protobuf@google@@V?$vector@UParseLocation@TextFormat@protobuf@google@@V?$allocator@UParseLocation@TextFormat@protobuf@google@@@std@@@std@@@std@@PAX@1@ABUpiecewise_construct_t@1@$$QAV?$tuple@ABQBVFieldDescriptor@protobuf@google@@@1@$$QAV?$tuple@$$V@1@@Z 1004ad70 f i libprotobuf:text_format.obj
 0001:00049d70       ??$_Buynode@ABUpiecewise_construct_t@std@@V?$tuple@ABQBVFieldDescriptor@protobuf@google@@@2@V?$tuple@$$V@2@@?$_Tree_comp_alloc@V?$_Tmap_traits@PBVFieldDescriptor@protobuf@google@@V?$vector@PAVParseInfoTree@TextFormat@protobuf@google@@V?$allocator@PAVParseInfoTree@TextFormat@protobuf@google@@@std@@@std@@U?$less@PBVFieldDescriptor@protobuf@google@@@5@V?$allocator@U?$pair@QBVFieldDescriptor@protobuf@google@@V?$vector@PAVParseInfoTree@TextFormat@protobuf@google@@V?$allocator@PAVParseInfoTree@TextFormat@protobuf@google@@@std@@@std@@@std@@@5@$0A@@std@@@std@@QAEPAU?$_Tree_node@U?$pair@QBVFieldDescriptor@protobuf@google@@V?$vector@PAVParseInfoTree@TextFormat@protobuf@google@@V?$allocator@PAVParseInfoTree@TextFormat@protobuf@google@@@std@@@std@@@std@@PAX@1@ABUpiecewise_construct_t@1@$$QAV?$tuple@ABQBVFieldDescriptor@protobuf@google@@@1@$$QAV?$tuple@$$V@1@@Z 1004ad70 f i libprotobuf:text_format.obj
 0001:00049db0       ??$_Insert_at@AAU?$pair@QBVFieldDescriptor@protobuf@google@@V?$vector@PAVParseInfoTree@TextFormat@protobuf@google@@V?$allocator@PAVParseInfoTree@TextFormat@protobuf@google@@@std@@@std@@@std@@PAU?$_Tree_node@U?$pair@QBVFieldDescriptor@protobuf@google@@V?$vector@PAVParseInfoTree@TextFormat@protobuf@google@@V?$allocator@PAVParseInfoTree@TextFormat@protobuf@google@@@std@@@std@@@std@@PAX@2@@?$_Tree@V?$_Tmap_traits@PBVFieldDescriptor@protobuf@google@@V?$vector@PAVParseInfoTree@TextFormat@protobuf@google@@V?$allocator@PAVParseInfoTree@TextFormat@protobuf@google@@@std@@@std@@U?$less@PBVFieldDescriptor@protobuf@google@@@5@V?$allocator@U?$pair@QBVFieldDescriptor@protobuf@google@@V?$vector@PAVParseInfoTree@TextFormat@protobuf@google@@V?$allocator@PAVParseInfoTree@TextFormat@protobuf@google@@@std@@@std@@@std@@@5@$0A@@std@@@std@@IAE?AV?$_Tree_iterator@V?$_Tree_val@U?$_Tree_simple_types@U?$pair@QBVFieldDescriptor@protobuf@google@@V?$vector@PAVParseInfoTree@TextFormat@protobuf@google@@V?$allocator@PAVParseInfoTree@TextFormat@protobuf@google@@@std@@@std@@@std@@@std@@@std@@@1@_NPAU?$_Tree_node@U?$pair@QBVFieldDescriptor@protobuf@google@@V?$vector@PAVParseInfoTree@TextFormat@protobuf@google@@V?$allocator@PAVParseInfoTree@TextFormat@protobuf@google@@@std@@@std@@@std@@PAX@1@AAU?$pair@QBVFieldDescriptor@protobuf@google@@V?$vector@PAVParseInfoTree@TextFormat@protobuf@google@@V?$allocator@PAVParseInfoTree@TextFormat@protobuf@google@@@std@@@std@@@1@1@Z 1004adb0 f i libprotobuf:text_format.obj
 0001:00049f90       ??$_Insert_at@AAU?$pair@QBVFieldDescriptor@protobuf@google@@V?$vector@UParseLocation@TextFormat@protobuf@google@@V?$allocator@UParseLocation@TextFormat@protobuf@google@@@std@@@std@@@std@@PAU?$_Tree_node@U?$pair@QBVFieldDescriptor@protobuf@google@@V?$vector@UParseLocation@TextFormat@protobuf@google@@V?$allocator@UParseLocation@TextFormat@protobuf@google@@@std@@@std@@@std@@PAX@2@@?$_Tree@V?$_Tmap_traits@PBVFieldDescriptor@protobuf@google@@V?$vector@UParseLocation@TextFormat@protobuf@google@@V?$allocator@UParseLocation@TextFormat@protobuf@google@@@std@@@std@@U?$less@PBVFieldDescriptor@protobuf@google@@@5@V?$allocator@U?$pair@QBVFieldDescriptor@protobuf@google@@V?$vector@UParseLocation@TextFormat@protobuf@google@@V?$allocator@UParseLocation@TextFormat@protobuf@google@@@std@@@std@@@std@@@5@$0A@@std@@@std@@IAE?AV?$_Tree_iterator@V?$_Tree_val@U?$_Tree_simple_types@U?$pair@QBVFieldDescriptor@protobuf@google@@V?$vector@UParseLocation@TextFormat@protobuf@google@@V?$allocator@UParseLocation@TextFormat@protobuf@google@@@std@@@std@@@std@@@std@@@std@@@1@_NPAU?$_Tree_node@U?$pair@QBVFieldDescriptor@protobuf@google@@V?$vector@UParseLocation@TextFormat@protobuf@google@@V?$allocator@UParseLocation@TextFormat@protobuf@google@@@std@@@std@@@std@@PAX@1@AAU?$pair@QBVFieldDescriptor@protobuf@google@@V?$vector@UParseLocation@TextFormat@protobuf@google@@V?$allocator@UParseLocation@TextFormat@protobuf@google@@@std@@@std@@@1@1@Z 1004af90 f i libprotobuf:text_format.obj
 0001:0004a170       ??$_Insert_hint@AAU?$pair@QBVFieldDescriptor@protobuf@google@@V?$vector@PAVParseInfoTree@TextFormat@protobuf@google@@V?$allocator@PAVParseInfoTree@TextFormat@protobuf@google@@@std@@@std@@@std@@PAU?$_Tree_node@U?$pair@QBVFieldDescriptor@protobuf@google@@V?$vector@PAVParseInfoTree@TextFormat@protobuf@google@@V?$allocator@PAVParseInfoTree@TextFormat@protobuf@google@@@std@@@std@@@std@@PAX@2@@?$_Tree@V?$_Tmap_traits@PBVFieldDescriptor@protobuf@google@@V?$vector@PAVParseInfoTree@TextFormat@protobuf@google@@V?$allocator@PAVParseInfoTree@TextFormat@protobuf@google@@@std@@@std@@U?$less@PBVFieldDescriptor@protobuf@google@@@5@V?$allocator@U?$pair@QBVFieldDescriptor@protobuf@google@@V?$vector@PAVParseInfoTree@TextFormat@protobuf@google@@V?$allocator@PAVParseInfoTree@TextFormat@protobuf@google@@@std@@@std@@@std@@@5@$0A@@std@@@std@@IAE?AV?$_Tree_iterator@V?$_Tree_val@U?$_Tree_simple_types@U?$pair@QBVFieldDescriptor@protobuf@google@@V?$vector@PAVParseInfoTree@TextFormat@protobuf@google@@V?$allocator@PAVParseInfoTree@TextFormat@protobuf@google@@@std@@@std@@@std@@@std@@@std@@@1@V?$_Tree_const_iterator@V?$_Tree_val@U?$_Tree_simple_types@U?$pair@QBVFieldDescriptor@protobuf@google@@V?$vector@PAVParseInfoTree@TextFormat@protobuf@google@@V?$allocator@PAVParseInfoTree@TextFormat@protobuf@google@@@std@@@std@@@std@@@std@@@std@@@1@AAU?$pair@QBVFieldDescriptor@protobuf@google@@V?$vector@PAVParseInfoTree@TextFormat@protobuf@google@@V?$allocator@PAVParseInfoTree@TextFormat@protobuf@google@@@std@@@std@@@1@PAU?$_Tree_node@U?$pair@QBVFieldDescriptor@protobuf@google@@V?$vector@PAVParseInfoTree@TextFormat@protobuf@google@@V?$allocator@PAVParseInfoTree@TextFormat@protobuf@google@@@std@@@std@@@std@@PAX@1@@Z 1004b170 f i libprotobuf:text_format.obj
 0001:0004a3a0       ??$_Insert_hint@AAU?$pair@QBVFieldDescriptor@protobuf@google@@V?$vector@UParseLocation@TextFormat@protobuf@google@@V?$allocator@UParseLocation@TextFormat@protobuf@google@@@std@@@std@@@std@@PAU?$_Tree_node@U?$pair@QBVFieldDescriptor@protobuf@google@@V?$vector@UParseLocation@TextFormat@protobuf@google@@V?$allocator@UParseLocation@TextFormat@protobuf@google@@@std@@@std@@@std@@PAX@2@@?$_Tree@V?$_Tmap_traits@PBVFieldDescriptor@protobuf@google@@V?$vector@UParseLocation@TextFormat@protobuf@google@@V?$allocator@UParseLocation@TextFormat@protobuf@google@@@std@@@std@@U?$less@PBVFieldDescriptor@protobuf@google@@@5@V?$allocator@U?$pair@QBVFieldDescriptor@protobuf@google@@V?$vector@UParseLocation@TextFormat@protobuf@google@@V?$allocator@UParseLocation@TextFormat@protobuf@google@@@std@@@std@@@std@@@5@$0A@@std@@@std@@IAE?AV?$_Tree_iterator@V?$_Tree_val@U?$_Tree_simple_types@U?$pair@QBVFieldDescriptor@protobuf@google@@V?$vector@UParseLocation@TextFormat@protobuf@google@@V?$allocator@UParseLocation@TextFormat@protobuf@google@@@std@@@std@@@std@@@std@@@std@@@1@V?$_Tree_const_iterator@V?$_Tree_val@U?$_Tree_simple_types@U?$pair@QBVFieldDescriptor@protobuf@google@@V?$vector@UParseLocation@TextFormat@protobuf@google@@V?$allocator@UParseLocation@TextFormat@protobuf@google@@@std@@@std@@@std@@@std@@@std@@@1@AAU?$pair@QBVFieldDescriptor@protobuf@google@@V?$vector@UParseLocation@TextFormat@protobuf@google@@V?$allocator@UParseLocation@TextFormat@protobuf@google@@@std@@@std@@@1@PAU?$_Tree_node@U?$pair@QBVFieldDescriptor@protobuf@google@@V?$vector@UParseLocation@TextFormat@protobuf@google@@V?$allocator@UParseLocation@TextFormat@protobuf@google@@@std@@@std@@@std@@PAX@1@@Z 1004b3a0 f i libprotobuf:text_format.obj
 0001:0004a5d0       ??$_Insert_nohint@AAU?$pair@QBVFieldDescriptor@protobuf@google@@V?$vector@PAVParseInfoTree@TextFormat@protobuf@google@@V?$allocator@PAVParseInfoTree@TextFormat@protobuf@google@@@std@@@std@@@std@@PAU?$_Tree_node@U?$pair@QBVFieldDescriptor@protobuf@google@@V?$vector@PAVParseInfoTree@TextFormat@protobuf@google@@V?$allocator@PAVParseInfoTree@TextFormat@protobuf@google@@@std@@@std@@@std@@PAX@2@@?$_Tree@V?$_Tmap_traits@PBVFieldDescriptor@protobuf@google@@V?$vector@PAVParseInfoTree@TextFormat@protobuf@google@@V?$allocator@PAVParseInfoTree@TextFormat@protobuf@google@@@std@@@std@@U?$less@PBVFieldDescriptor@protobuf@google@@@5@V?$allocator@U?$pair@QBVFieldDescriptor@protobuf@google@@V?$vector@PAVParseInfoTree@TextFormat@protobuf@google@@V?$allocator@PAVParseInfoTree@TextFormat@protobuf@google@@@std@@@std@@@std@@@5@$0A@@std@@@std@@IAE?AU?$pair@V?$_Tree_iterator@V?$_Tree_val@U?$_Tree_simple_types@U?$pair@QBVFieldDescriptor@protobuf@google@@V?$vector@PAVParseInfoTree@TextFormat@protobuf@google@@V?$allocator@PAVParseInfoTree@TextFormat@protobuf@google@@@std@@@std@@@std@@@std@@@std@@@std@@_N@1@_NAAU?$pair@QBVFieldDescriptor@protobuf@google@@V?$vector@PAVParseInfoTree@TextFormat@protobuf@google@@V?$allocator@PAVParseInfoTree@TextFormat@protobuf@google@@@std@@@std@@@1@PAU?$_Tree_node@U?$pair@QBVFieldDescriptor@protobuf@google@@V?$vector@PAVParseInfoTree@TextFormat@protobuf@google@@V?$allocator@PAVParseInfoTree@TextFormat@protobuf@google@@@std@@@std@@@std@@PAX@1@@Z 1004b5d0 f i libprotobuf:text_format.obj
 0001:0004a6f0       ??$_Insert_nohint@AAU?$pair@QBVFieldDescriptor@protobuf@google@@V?$vector@UParseLocation@TextFormat@protobuf@google@@V?$allocator@UParseLocation@TextFormat@protobuf@google@@@std@@@std@@@std@@PAU?$_Tree_node@U?$pair@QBVFieldDescriptor@protobuf@google@@V?$vector@UParseLocation@TextFormat@protobuf@google@@V?$allocator@UParseLocation@TextFormat@protobuf@google@@@std@@@std@@@std@@PAX@2@@?$_Tree@V?$_Tmap_traits@PBVFieldDescriptor@protobuf@google@@V?$vector@UParseLocation@TextFormat@protobuf@google@@V?$allocator@UParseLocation@TextFormat@protobuf@google@@@std@@@std@@U?$less@PBVFieldDescriptor@protobuf@google@@@5@V?$allocator@U?$pair@QBVFieldDescriptor@protobuf@google@@V?$vector@UParseLocation@TextFormat@protobuf@google@@V?$allocator@UParseLocation@TextFormat@protobuf@google@@@std@@@std@@@std@@@5@$0A@@std@@@std@@IAE?AU?$pair@V?$_Tree_iterator@V?$_Tree_val@U?$_Tree_simple_types@U?$pair@QBVFieldDescriptor@protobuf@google@@V?$vector@UParseLocation@TextFormat@protobuf@google@@V?$allocator@UParseLocation@TextFormat@protobuf@google@@@std@@@std@@@std@@@std@@@std@@@std@@_N@1@_NAAU?$pair@QBVFieldDescriptor@protobuf@google@@V?$vector@UParseLocation@TextFormat@protobuf@google@@V?$allocator@UParseLocation@TextFormat@protobuf@google@@@std@@@std@@@1@PAU?$_Tree_node@U?$pair@QBVFieldDescriptor@protobuf@google@@V?$vector@UParseLocation@TextFormat@protobuf@google@@V?$allocator@UParseLocation@TextFormat@protobuf@google@@@std@@@std@@@std@@PAX@1@@Z 1004b6f0 f i libprotobuf:text_format.obj
 0001:0004a810       ??$_Insertion_sort1@PAPBVFieldDescriptor@protobuf@google@@UFieldIndexSorter@?A0xf6e69111@23@PBV123@@std@@YAXPAPBVFieldDescriptor@protobuf@google@@0UFieldIndexSorter@?A0xf6e69111@23@0@Z 1004b810 f i libprotobuf:text_format.obj
 0001:0004a970       ??$_Make_heap@PAPBVFieldDescriptor@protobuf@google@@HPBV123@UFieldIndexSorter@?A0xf6e69111@23@@std@@YAXPAPBVFieldDescriptor@protobuf@google@@0UFieldIndexSorter@?A0xf6e69111@23@PAH0@Z 1004b970 f i libprotobuf:text_format.obj
 0001:0004aa80       ??$_Med3@PAPBVFieldDescriptor@protobuf@google@@UFieldIndexSorter@?A0xf6e69111@23@@std@@YAXPAPBVFieldDescriptor@protobuf@google@@00UFieldIndexSorter@?A0xf6e69111@23@@Z 1004ba80 f i libprotobuf:text_format.obj
 0001:0004aaf0       ??$_Median@PAPBVFieldDescriptor@protobuf@google@@UFieldIndexSorter@?A0xf6e69111@23@@std@@YAXPAPBVFieldDescriptor@protobuf@google@@00UFieldIndexSorter@?A0xf6e69111@23@@Z 1004baf0 f i libprotobuf:text_format.obj
 0001:0004ab90       ??$_Push_heap@PAPBVFieldDescriptor@protobuf@google@@HPBV123@UFieldIndexSorter@?A0xf6e69111@23@@std@@YAXPAPBVFieldDescriptor@protobuf@google@@HH$$QAPBV123@UFieldIndexSorter@?A0xf6e69111@23@@Z 1004bb90 f i libprotobuf:text_format.obj
 0001:0004ac70       ??$_Sort@PAPBVFieldDescriptor@protobuf@google@@HUFieldIndexSorter@?A0xf6e69111@23@@std@@YAXPAPBVFieldDescriptor@protobuf@google@@0HUFieldIndexSorter@?A0xf6e69111@23@@Z 1004bc70 f i libprotobuf:text_format.obj
 0001:0004ad50       ??$_Sort_heap@PAPBVFieldDescriptor@protobuf@google@@UFieldIndexSorter@?A0xf6e69111@23@@std@@YAXPAPBVFieldDescriptor@protobuf@google@@0UFieldIndexSorter@?A0xf6e69111@23@@Z 1004bd50 f i libprotobuf:text_format.obj
 0001:0004adb0       ??$_Unguarded_partition@PAPBVFieldDescriptor@protobuf@google@@UFieldIndexSorter@?A0xf6e69111@23@@std@@YA?AU?$pair@PAPBVFieldDescriptor@protobuf@google@@PAPBV123@@0@PAPBVFieldDescriptor@protobuf@google@@0UFieldIndexSorter@?A0xf6e69111@34@@Z 1004bdb0 f i libprotobuf:text_format.obj
 0001:0004b280       ??0Parser@TextFormat@protobuf@google@@QAE@XZ 1004c280 f   libprotobuf:text_format.obj
 0001:0004b2b0       ??0ParserImpl@Parser@TextFormat@protobuf@google@@QAE@PBVDescriptor@34@PAVZeroCopyInputStream@io@34@PAVErrorCollector@734@PAVFinder@234@PAVParseInfoTree@234@W4SingularOverwritePolicy@01234@_N6666@Z 1004c2b0 f i libprotobuf:text_format.obj
 0001:0004b390       ??0Printer@TextFormat@protobuf@google@@QAE@XZ 1004c390 f   libprotobuf:text_format.obj
 0001:0004b440       ??0TextGenerator@Printer@TextFormat@protobuf@google@@QAE@PAVZeroCopyOutputStream@io@34@H@Z 1004c440 f i libprotobuf:text_format.obj
 0001:0004b500       ??1?$map@PBVFieldDescriptor@protobuf@google@@V?$vector@UParseLocation@TextFormat@protobuf@google@@V?$allocator@UParseLocation@TextFormat@protobuf@google@@@std@@@std@@U?$less@PBVFieldDescriptor@protobuf@google@@@5@V?$allocator@U?$pair@QBVFieldDescriptor@protobuf@google@@V?$vector@UParseLocation@TextFormat@protobuf@google@@V?$allocator@UParseLocation@TextFormat@protobuf@google@@@std@@@std@@@std@@@5@@std@@QAE@XZ 1004c500 f i libprotobuf:text_format.obj
 0001:0004b560       ??1Finder@TextFormat@protobuf@google@@UAE@XZ 1004c560 f   libprotobuf:text_format.obj
 0001:0004b570       ??1ParserErrorCollector@ParserImpl@Parser@TextFormat@protobuf@google@@UAE@XZ 1004c570 f i libprotobuf:text_format.obj
 0001:0004b580       ??1ParserImpl@Parser@TextFormat@protobuf@google@@QAE@XZ 1004c580 f i libprotobuf:text_format.obj
 0001:0004b5a0       ??1Printer@TextFormat@protobuf@google@@QAE@XZ 1004c5a0 f   libprotobuf:text_format.obj
 0001:0004b610       ??1TextGenerator@Printer@TextFormat@protobuf@google@@QAE@XZ 1004c610 f i libprotobuf:text_format.obj
 0001:0004b6a0       ??A?$map@PBVFieldDescriptor@protobuf@google@@V?$vector@PAVParseInfoTree@TextFormat@protobuf@google@@V?$allocator@PAVParseInfoTree@TextFormat@protobuf@google@@@std@@@std@@U?$less@PBVFieldDescriptor@protobuf@google@@@5@V?$allocator@U?$pair@QBVFieldDescriptor@protobuf@google@@V?$vector@PAVParseInfoTree@TextFormat@protobuf@google@@V?$allocator@PAVParseInfoTree@TextFormat@protobuf@google@@@std@@@std@@@std@@@5@@std@@QAEAAV?$vector@PAVParseInfoTree@TextFormat@protobuf@google@@V?$allocator@PAVParseInfoTree@TextFormat@protobuf@google@@@std@@@1@ABQBVFieldDescriptor@protobuf@google@@@Z 1004c6a0 f i libprotobuf:text_format.obj
 0001:0004b730       ??A?$map@PBVFieldDescriptor@protobuf@google@@V?$vector@UParseLocation@TextFormat@protobuf@google@@V?$allocator@UParseLocation@TextFormat@protobuf@google@@@std@@@std@@U?$less@PBVFieldDescriptor@protobuf@google@@@5@V?$allocator@U?$pair@QBVFieldDescriptor@protobuf@google@@V?$vector@UParseLocation@TextFormat@protobuf@google@@V?$allocator@UParseLocation@TextFormat@protobuf@google@@@std@@@std@@@std@@@5@@std@@QAEAAV?$vector@UParseLocation@TextFormat@protobuf@google@@V?$allocator@UParseLocation@TextFormat@protobuf@google@@@std@@@1@ABQBVFieldDescriptor@protobuf@google@@@Z 1004c730 f i libprotobuf:text_format.obj
 0001:0004b830       ??_GFieldValuePrinter@TextFormat@protobuf@google@@UAEPAXI@Z 1004c830 f i libprotobuf:text_format.obj
 0001:0004b830       ??_EFieldValuePrinter@TextFormat@protobuf@google@@UAEPAXI@Z 1004c830 f i libprotobuf:text_format.obj
 0001:0004b860       ??_EParserErrorCollector@ParserImpl@Parser@TextFormat@protobuf@google@@UAEPAXI@Z 1004c860 f i libprotobuf:text_format.obj
 0001:0004b860       ??_GParserErrorCollector@ParserImpl@Parser@TextFormat@protobuf@google@@UAEPAXI@Z 1004c860 f i libprotobuf:text_format.obj
 0001:0004b890       ?AddError@ParserErrorCollector@ParserImpl@Parser@TextFormat@protobuf@google@@UAEXHHABV?$basic_string@DU?$char_traits@D@std@@V?$allocator@D@2@@std@@@Z 1004c890 f i libprotobuf:text_format.obj
 0001:0004b8a0       ?AddWarning@ParserErrorCollector@ParserImpl@Parser@TextFormat@protobuf@google@@UAEXHHABV?$basic_string@DU?$char_traits@D@std@@V?$allocator@D@2@@std@@@Z 1004c8a0 f i libprotobuf:text_format.obj
 0001:0004b8b0       ?Consume@ParserImpl@Parser@TextFormat@protobuf@google@@AAE_NABV?$basic_string@DU?$char_traits@D@std@@V?$allocator@D@2@@std@@@Z 1004c8b0 f i libprotobuf:text_format.obj
 0001:0004ba30       ?ConsumeDouble@ParserImpl@Parser@TextFormat@protobuf@google@@AAE_NPAN@Z 1004ca30 f i libprotobuf:text_format.obj
 0001:0004bcc0       ?ConsumeField@ParserImpl@Parser@TextFormat@protobuf@google@@AAE_NPAVMessage@45@@Z 1004ccc0 f i libprotobuf:text_format.obj
 0001:0004c880       ?ConsumeFieldMessage@ParserImpl@Parser@TextFormat@protobuf@google@@AAE_NPAVMessage@45@PBVReflection@45@PBVFieldDescriptor@45@@Z 1004d880 f i libprotobuf:text_format.obj
 0001:0004cab0       ?ConsumeFieldValue@ParserImpl@Parser@TextFormat@protobuf@google@@AAE_NPAVMessage@45@PBVReflection@45@PBVFieldDescriptor@45@@Z 1004dab0 f i libprotobuf:text_format.obj
 0001:0004d270       ?ConsumeIdentifier@ParserImpl@Parser@TextFormat@protobuf@google@@AAE_NPAV?$basic_string@DU?$char_traits@D@std@@V?$allocator@D@2@@std@@@Z 1004e270 f i libprotobuf:text_format.obj
 0001:0004d350       ?ConsumeMessage@ParserImpl@Parser@TextFormat@protobuf@google@@AAE_NPAVMessage@45@V?$basic_string@DU?$char_traits@D@std@@V?$allocator@D@2@@std@@@Z 1004e350 f i libprotobuf:text_format.obj
 0001:0004d670       ?ConsumeSignedInteger@ParserImpl@Parser@TextFormat@protobuf@google@@AAE_NPA_J_K@Z 1004e670 f i libprotobuf:text_format.obj
 0001:0004d790       ?ConsumeString@ParserImpl@Parser@TextFormat@protobuf@google@@AAE_NPAV?$basic_string@DU?$char_traits@D@std@@V?$allocator@D@2@@std@@@Z 1004e790 f i libprotobuf:text_format.obj
 0001:0004d880       ?ConsumeUnsignedDecimalInteger@ParserImpl@Parser@TextFormat@protobuf@google@@AAE_NPA_K_K@Z 1004e880 f i libprotobuf:text_format.obj
 0001:0004d9f0       ?ConsumeUnsignedInteger@ParserImpl@Parser@TextFormat@protobuf@google@@AAE_NPA_K_K@Z 1004e9f0 f i libprotobuf:text_format.obj
 0001:0004db00       ?CreateNested@ParseInfoTree@TextFormat@protobuf@google@@AAEPAV1234@PBVFieldDescriptor@34@@Z 1004eb00 f   libprotobuf:text_format.obj
 0001:0004dc60       ?LookingAt@ParserImpl@Parser@TextFormat@protobuf@google@@AAE_NABV?$basic_string@DU?$char_traits@D@std@@V?$allocator@D@2@@std@@@Z 1004ec60 f i libprotobuf:text_format.obj
 0001:0004dcc0       ?MergeUsingImpl@Parser@TextFormat@protobuf@google@@AAE_NPAVZeroCopyInputStream@io@34@PAVMessage@34@PAVParserImpl@1234@@Z 1004ecc0 f   libprotobuf:text_format.obj
 0001:0004dde0       ?Outdent@TextGenerator@Printer@TextFormat@protobuf@google@@QAEXXZ 1004ede0 f i libprotobuf:text_format.obj
 0001:0004dea0       ?Parse@Parser@TextFormat@protobuf@google@@QAE_NPAVZeroCopyInputStream@io@34@PAVMessage@34@@Z 1004eea0 f   libprotobuf:text_format.obj
 0001:0004dfa0       ?ParseFromString@Parser@TextFormat@protobuf@google@@QAE_NABV?$basic_string@DU?$char_traits@D@std@@V?$allocator@D@2@@std@@PAVMessage@34@@Z 1004efa0 f   libprotobuf:text_format.obj
 0001:0004e020       ?Print@Printer@TextFormat@protobuf@google@@ABEXABVMessage@34@AAVTextGenerator@1234@@Z 1004f020 f   libprotobuf:text_format.obj
 0001:0004e160       ?Print@TextGenerator@Printer@TextFormat@protobuf@google@@QAEXABV?$basic_string@DU?$char_traits@D@std@@V?$allocator@D@2@@std@@@Z 1004f160 f i libprotobuf:text_format.obj
 0001:0004e180       ?Print@TextGenerator@Printer@TextFormat@protobuf@google@@QAEXPBDH@Z 1004f180 f i libprotobuf:text_format.obj
 0001:0004e280       ?PrintBool@FieldValuePrinter@TextFormat@protobuf@google@@UBE?AV?$basic_string@DU?$char_traits@D@std@@V?$allocator@D@2@@std@@_N@Z 1004f280 f   libprotobuf:text_format.obj
 0001:0004e2f0       ?PrintBytes@FieldValuePrinter@TextFormat@protobuf@google@@UBE?AV?$basic_string@DU?$char_traits@D@std@@V?$allocator@D@2@@std@@ABV56@@Z 1004f2f0 f   libprotobuf:text_format.obj
 0001:0004e310       ?PrintDouble@FieldValuePrinter@TextFormat@protobuf@google@@UBE?AV?$basic_string@DU?$char_traits@D@std@@V?$allocator@D@2@@std@@N@Z 1004f310 f   libprotobuf:text_format.obj
 0001:0004e340       ?PrintEnum@FieldValuePrinter@TextFormat@protobuf@google@@UBE?AV?$basic_string@DU?$char_traits@D@std@@V?$allocator@D@2@@std@@HABV56@@Z 1004f340 f   libprotobuf:text_format.obj
 0001:0004e380       ?PrintField@Printer@TextFormat@protobuf@google@@ABEXABVMessage@34@PBVReflection@34@PBVFieldDescriptor@34@AAVTextGenerator@1234@@Z 1004f380 f   libprotobuf:text_format.obj
 0001:0004e610       ?PrintFieldName@FieldValuePrinter@TextFormat@protobuf@google@@UBE?AV?$basic_string@DU?$char_traits@D@std@@V?$allocator@D@2@@std@@ABVMessage@34@PBVReflection@34@PBVFieldDescriptor@34@@Z 1004f610 f   libprotobuf:text_format.obj
 0001:0004e6b0       ?PrintFieldName@Printer@TextFormat@protobuf@google@@ABEXABVMessage@34@PBVReflection@34@PBVFieldDescriptor@34@AAVTextGenerator@1234@@Z 1004f6b0 f   libprotobuf:text_format.obj
 0001:0004e7b0       ?PrintFieldValue@Printer@TextFormat@protobuf@google@@ABEXABVMessage@34@PBVReflection@34@PBVFieldDescriptor@34@HAAVTextGenerator@1234@@Z 1004f7b0 f   libprotobuf:text_format.obj
 0001:0004ec30       ?PrintFieldValueToString@Printer@TextFormat@protobuf@google@@QBEXABVMessage@34@PBVFieldDescriptor@34@HPAV?$basic_string@DU?$char_traits@D@std@@V?$allocator@D@2@@std@@@Z 1004fc30 f   libprotobuf:text_format.obj
 0001:0004ecf0       ?PrintFieldValueToString@TextFormat@protobuf@google@@SAXABVMessage@23@PBVFieldDescriptor@23@HPAV?$basic_string@DU?$char_traits@D@std@@V?$allocator@D@2@@std@@@Z 1004fcf0 f   libprotobuf:text_format.obj
 0001:0004ed90       ?PrintFloat@FieldValuePrinter@TextFormat@protobuf@google@@UBE?AV?$basic_string@DU?$char_traits@D@std@@V?$allocator@D@2@@std@@M@Z 1004fd90 f   libprotobuf:text_format.obj
 0001:0004edc0       ?PrintInt32@FieldValuePrinter@TextFormat@protobuf@google@@UBE?AV?$basic_string@DU?$char_traits@D@std@@V?$allocator@D@2@@std@@H@Z 1004fdc0 f   libprotobuf:text_format.obj
 0001:0004edf0       ?PrintInt64@FieldValuePrinter@TextFormat@protobuf@google@@UBE?AV?$basic_string@DU?$char_traits@D@std@@V?$allocator@D@2@@std@@_J@Z 1004fdf0 f   libprotobuf:text_format.obj
 0001:0004ee20       ?PrintMessageEnd@FieldValuePrinter@TextFormat@protobuf@google@@UBE?AV?$basic_string@DU?$char_traits@D@std@@V?$allocator@D@2@@std@@ABVMessage@34@HH_N@Z 1004fe20 f   libprotobuf:text_format.obj
 0001:0004ee90       ?PrintMessageStart@FieldValuePrinter@TextFormat@protobuf@google@@UBE?AV?$basic_string@DU?$char_traits@D@std@@V?$allocator@D@2@@std@@ABVMessage@34@HH_N@Z 1004fe90 f   libprotobuf:text_format.obj
 0001:0004ef00       ?PrintShortRepeatedField@Printer@TextFormat@protobuf@google@@ABEXABVMessage@34@PBVReflection@34@PBVFieldDescriptor@34@AAVTextGenerator@1234@@Z 1004ff00 f   libprotobuf:text_format.obj
 0001:0004efa0       ?PrintString@FieldValuePrinter@TextFormat@protobuf@google@@UBE?AV?$basic_string@DU?$char_traits@D@std@@V?$allocator@D@2@@std@@ABV56@@Z 1004ffa0 f   libprotobuf:text_format.obj
 0001:0004f030       ?PrintUInt32@FieldValuePrinter@TextFormat@protobuf@google@@UBE?AV?$basic_string@DU?$char_traits@D@std@@V?$allocator@D@2@@std@@I@Z 10050030 f   libprotobuf:text_format.obj
 0001:0004f060       ?PrintUInt64@FieldValuePrinter@TextFormat@protobuf@google@@UBE?AV?$basic_string@DU?$char_traits@D@std@@V?$allocator@D@2@@std@@_K@Z 10050060 f   libprotobuf:text_format.obj
 0001:0004f090       ?PrintUnknownFields@Printer@TextFormat@protobuf@google@@ABEXABVUnknownFieldSet@34@AAVTextGenerator@1234@@Z 10050090 f   libprotobuf:text_format.obj
 0001:0004f4c0       ?RecordLocation@TextFormat@protobuf@google@@CAXPAVParseInfoTree@123@PBVFieldDescriptor@23@UParseLocation@123@@Z 100504c0 f i libprotobuf:text_format.obj
 0001:0004f500       ?ReportError@ParserImpl@Parser@TextFormat@protobuf@google@@AAEXABV?$basic_string@DU?$char_traits@D@std@@V?$allocator@D@2@@std@@@Z 10050500 f i libprotobuf:text_format.obj
 0001:0004f520       ?ReportError@ParserImpl@Parser@TextFormat@protobuf@google@@QAEXHHABV?$basic_string@DU?$char_traits@D@std@@V?$allocator@D@2@@std@@@Z 10050520 f i libprotobuf:text_format.obj
 0001:0004f690       ?ReportWarning@ParserImpl@Parser@TextFormat@protobuf@google@@AAEXABV?$basic_string@DU?$char_traits@D@std@@V?$allocator@D@2@@std@@@Z 10050690 f i libprotobuf:text_format.obj
 0001:0004f6b0       ?ReportWarning@ParserImpl@Parser@TextFormat@protobuf@google@@QAEXHHABV?$basic_string@DU?$char_traits@D@std@@V?$allocator@D@2@@std@@@Z 100506b0 f i libprotobuf:text_format.obj
 0001:0004f820       ?SkipField@ParserImpl@Parser@TextFormat@protobuf@google@@AAE_NXZ 10050820 f i libprotobuf:text_format.obj
 0001:0004fc40       ?SkipFieldMessage@ParserImpl@Parser@TextFormat@protobuf@google@@AAE_NXZ 10050c40 f i libprotobuf:text_format.obj
 0001:0004ffc0       ?SkipFieldValue@ParserImpl@Parser@TextFormat@protobuf@google@@AAE_NXZ 10050fc0 f i libprotobuf:text_format.obj
 0001:00050190       ?TryConsume@ParserImpl@Parser@TextFormat@protobuf@google@@AAE_NABV?$basic_string@DU?$char_traits@D@std@@V?$allocator@D@2@@std@@@Z 10051190 f i libprotobuf:text_format.obj
 0001:00050220       ?Write@TextGenerator@Printer@TextFormat@protobuf@google@@AAEXPBDH@Z 10051220 f i libprotobuf:text_format.obj
 0001:000502d0       ?_Buyheadnode@?$_Tree_comp_alloc@V?$_Tmap_traits@PBVFieldDescriptor@protobuf@google@@PBVFieldValuePrinter@TextFormat@23@U?$less@PBVFieldDescriptor@protobuf@google@@@std@@V?$allocator@U?$pair@QBVFieldDescriptor@protobuf@google@@PBVFieldValuePrinter@TextFormat@23@@std@@@7@$0A@@std@@@std@@QAEPAU?$_Tree_node@U?$pair@QBVFieldDescriptor@protobuf@google@@PBVFieldValuePrinter@TextFormat@23@@std@@PAX@2@XZ 100512d0 f i libprotobuf:text_format.obj
 0001:000502d0       ?_Buyheadnode@?$_Tree_comp_alloc@V?$_Tmap_traits@PBDPBVFileDescriptor@protobuf@google@@U?$hash@PBD@23@V?$allocator@U?$pair@QBDPBVFileDescriptor@protobuf@google@@@std@@@std@@$0A@@std@@@std@@QAEPAU?$_Tree_node@U?$pair@QBDPBVFileDescriptor@protobuf@google@@@std@@PAX@2@XZ 100512d0 f i libprotobuf:descriptor.obj
 0001:000502d0       ?_Buyheadnode@?$_Tree_comp_alloc@V?$_Tmap_traits@PBVDescriptor@protobuf@google@@PBVMessage@23@U?$hash@PBVDescriptor@protobuf@google@@@23@V?$allocator@U?$pair@QBVDescriptor@protobuf@google@@PBVMessage@23@@std@@@std@@$0A@@std@@@std@@QAEPAU?$_Tree_node@U?$pair@QBVDescriptor@protobuf@google@@PBVMessage@23@@std@@PAX@2@XZ 100512d0 f i libprotobuf:message.obj
 0001:000502d0       ?_Buyheadnode@?$_Tree_comp_alloc@V?$_Tmap_traits@PBVDescriptor@protobuf@google@@PBUTypeInfo@DynamicMessage@23@U?$hash@PBVDescriptor@protobuf@google@@@23@V?$allocator@U?$pair@QBVDescriptor@protobuf@google@@PBUTypeInfo@DynamicMessage@23@@std@@@std@@$0A@@std@@@std@@QAEPAU?$_Tree_node@U?$pair@QBVDescriptor@protobuf@google@@PBUTypeInfo@DynamicMessage@23@@std@@PAX@2@XZ 100512d0 f i libprotobuf:dynamic_message.obj
 0001:000502d0       ?_Buyheadnode@?$_Tree_comp_alloc@V?$_Tmap_traits@PBDP6AXABV?$basic_string@DU?$char_traits@D@std@@V?$allocator@D@2@@std@@@ZU?$hash@PBD@protobuf@google@@V?$allocator@U?$pair@QBDP6AXABV?$basic_string@DU?$char_traits@D@std@@V?$allocator@D@2@@std@@@Z@std@@@2@$0A@@std@@@std@@QAEPAU?$_Tree_node@U?$pair@QBDP6AXABV?$basic_string@DU?$char_traits@D@std@@V?$allocator@D@2@@std@@@Z@std@@PAX@2@XZ 100512d0 f i libprotobuf:message.obj
 0001:00050300       ?_Buyheadnode@?$_Tree_comp_alloc@V?$_Tmap_traits@PBVFieldDescriptor@protobuf@google@@V?$vector@PAVParseInfoTree@TextFormat@protobuf@google@@V?$allocator@PAVParseInfoTree@TextFormat@protobuf@google@@@std@@@std@@U?$less@PBVFieldDescriptor@protobuf@google@@@5@V?$allocator@U?$pair@QBVFieldDescriptor@protobuf@google@@V?$vector@PAVParseInfoTree@TextFormat@protobuf@google@@V?$allocator@PAVParseInfoTree@TextFormat@protobuf@google@@@std@@@std@@@std@@@5@$0A@@std@@@std@@QAEPAU?$_Tree_node@U?$pair@QBVFieldDescriptor@protobuf@google@@V?$vector@PAVParseInfoTree@TextFormat@protobuf@google@@V?$allocator@PAVParseInfoTree@TextFormat@protobuf@google@@@std@@@std@@@std@@PAX@2@XZ 10051300 f i libprotobuf:text_format.obj
 0001:00050300       ?_Buyheadnode@?$_Tree_comp_alloc@V?$_Tmap_traits@U?$pair@PBXPBD@std@@USymbol@?A0x0ecadf1d@protobuf@google@@UPointerStringPairHash@456@V?$allocator@U?$pair@$$CBU?$pair@PBXPBD@std@@USymbol@?A0x0ecadf1d@protobuf@google@@@std@@@2@$0A@@std@@@std@@QAEPAU?$_Tree_node@U?$pair@$$CBU?$pair@PBXPBD@std@@USymbol@?A0x0ecadf1d@protobuf@google@@@std@@PAX@2@XZ 10051300 f i libprotobuf:descriptor.obj
 0001:00050300       ?_Buyheadnode@?$_Tree_comp_alloc@V?$_Tmap_traits@PBVFieldDescriptor@protobuf@google@@V?$vector@UParseLocation@TextFormat@protobuf@google@@V?$allocator@UParseLocation@TextFormat@protobuf@google@@@std@@@std@@U?$less@PBVFieldDescriptor@protobuf@google@@@5@V?$allocator@U?$pair@QBVFieldDescriptor@protobuf@google@@V?$vector@UParseLocation@TextFormat@protobuf@google@@V?$allocator@UParseLocation@TextFormat@protobuf@google@@@std@@@std@@@std@@@5@$0A@@std@@@std@@QAEPAU?$_Tree_node@U?$pair@QBVFieldDescriptor@protobuf@google@@V?$vector@UParseLocation@TextFormat@protobuf@google@@V?$allocator@UParseLocation@TextFormat@protobuf@google@@@std@@@std@@@std@@PAX@2@XZ 10051300 f i libprotobuf:text_format.obj
 0001:00050330       ?_Destroy_if_not_nil@?$_Tree@V?$_Tmap_traits@PBVFieldDescriptor@protobuf@google@@V?$vector@PAVParseInfoTree@TextFormat@protobuf@google@@V?$allocator@PAVParseInfoTree@TextFormat@protobuf@google@@@std@@@std@@U?$less@PBVFieldDescriptor@protobuf@google@@@5@V?$allocator@U?$pair@QBVFieldDescriptor@protobuf@google@@V?$vector@PAVParseInfoTree@TextFormat@protobuf@google@@V?$allocator@PAVParseInfoTree@TextFormat@protobuf@google@@@std@@@std@@@std@@@5@$0A@@std@@@std@@IAEXPAU?$_Tree_node@U?$pair@QBVFieldDescriptor@protobuf@google@@V?$vector@PAVParseInfoTree@TextFormat@protobuf@google@@V?$allocator@PAVParseInfoTree@TextFormat@protobuf@google@@@std@@@std@@@std@@PAX@2@@Z 10051330 f i libprotobuf:text_format.obj
 0001:00050380       ?_Destroy_if_not_nil@?$_Tree@V?$_Tmap_traits@PBVFieldDescriptor@protobuf@google@@V?$vector@UParseLocation@TextFormat@protobuf@google@@V?$allocator@UParseLocation@TextFormat@protobuf@google@@@std@@@std@@U?$less@PBVFieldDescriptor@protobuf@google@@@5@V?$allocator@U?$pair@QBVFieldDescriptor@protobuf@google@@V?$vector@UParseLocation@TextFormat@protobuf@google@@V?$allocator@UParseLocation@TextFormat@protobuf@google@@@std@@@std@@@std@@@5@$0A@@std@@@std@@IAEXPAU?$_Tree_node@U?$pair@QBVFieldDescriptor@protobuf@google@@V?$vector@UParseLocation@TextFormat@protobuf@google@@V?$allocator@UParseLocation@TextFormat@protobuf@google@@@std@@@std@@@std@@PAX@2@@Z 10051380 f i libprotobuf:text_format.obj
 0001:000503d0       ?_Erase@?$_Tree@V?$_Tmap_traits@PBVFieldDescriptor@protobuf@google@@V?$vector@UParseLocation@TextFormat@protobuf@google@@V?$allocator@UParseLocation@TextFormat@protobuf@google@@@std@@@std@@U?$less@PBVFieldDescriptor@protobuf@google@@@5@V?$allocator@U?$pair@QBVFieldDescriptor@protobuf@google@@V?$vector@UParseLocation@TextFormat@protobuf@google@@V?$allocator@UParseLocation@TextFormat@protobuf@google@@@std@@@std@@@std@@@5@$0A@@std@@@std@@IAEXPAU?$_Tree_node@U?$pair@QBVFieldDescriptor@protobuf@google@@V?$vector@UParseLocation@TextFormat@protobuf@google@@V?$allocator@UParseLocation@TextFormat@protobuf@google@@@std@@@std@@@std@@PAX@2@@Z 100513d0 f i libprotobuf:text_format.obj
 0001:00050470       ?_Reallocate@?$vector@U?$pair@PBVDescriptor@protobuf@google@@H@std@@V?$allocator@U?$pair@PBVDescriptor@protobuf@google@@H@std@@@2@@std@@IAEXI@Z 10051470 f i libprotobuf:descriptor.obj
 0001:00050470       ?_Reallocate@?$vector@UParseLocation@TextFormat@protobuf@google@@V?$allocator@UParseLocation@TextFormat@protobuf@google@@@std@@@std@@IAEXI@Z 10051470 f i libprotobuf:text_format.obj
 0001:00050530       ?_Reserve@?$vector@U?$pair@PBVDescriptor@protobuf@google@@H@std@@V?$allocator@U?$pair@PBVDescriptor@protobuf@google@@H@std@@@2@@std@@IAEXI@Z 10051530 f i libprotobuf:descriptor.obj
 0001:00050530       ?_Reserve@?$vector@UParseLocation@TextFormat@protobuf@google@@V?$allocator@UParseLocation@TextFormat@protobuf@google@@@std@@@std@@IAEXI@Z 10051530 f i libprotobuf:text_format.obj
 0001:000505a0       ?allocate@?$allocator@UParseLocation@TextFormat@protobuf@google@@@std@@QAEPAUParseLocation@TextFormat@protobuf@google@@I@Z 100515a0 f i libprotobuf:text_format.obj
 0001:000505a0       ?allocate@?$allocator@U?$pair@PBVDescriptor@protobuf@google@@H@std@@@std@@QAEPAU?$pair@PBVDescriptor@protobuf@google@@H@2@I@Z 100515a0 f i libprotobuf:descriptor.obj
 0001:00050610       ?deallocate@?$_Wrap_alloc@V?$allocator@UParseLocation@TextFormat@protobuf@google@@@std@@@std@@QAEXPAUParseLocation@TextFormat@protobuf@google@@I@Z 10051610 f i libprotobuf:text_format.obj
 0001:00050610       ?deallocate@?$_Wrap_alloc@V?$allocator@U?$pair@PBVDescriptor@protobuf@google@@H@std@@@std@@@std@@QAEXPAU?$pair@PBVDescriptor@protobuf@google@@H@2@I@Z 10051610 f i libprotobuf:descriptor.obj
 0001:00050670       ?erase@?$_Tree@V?$_Tmap_traits@PBVFieldDescriptor@protobuf@google@@V?$vector@UParseLocation@TextFormat@protobuf@google@@V?$allocator@UParseLocation@TextFormat@protobuf@google@@@std@@@std@@U?$less@PBVFieldDescriptor@protobuf@google@@@5@V?$allocator@U?$pair@QBVFieldDescriptor@protobuf@google@@V?$vector@UParseLocation@TextFormat@protobuf@google@@V?$allocator@UParseLocation@TextFormat@protobuf@google@@@std@@@std@@@std@@@5@$0A@@std@@@std@@QAE?AV?$_Tree_iterator@V?$_Tree_val@U?$_Tree_simple_types@U?$pair@QBVFieldDescriptor@protobuf@google@@V?$vector@UParseLocation@TextFormat@protobuf@google@@V?$allocator@UParseLocation@TextFormat@protobuf@google@@@std@@@std@@@std@@@std@@@std@@@2@V?$_Tree_const_iterator@V?$_Tree_val@U?$_Tree_simple_types@U?$pair@QBVFieldDescriptor@protobuf@google@@V?$vector@UParseLocation@TextFormat@protobuf@google@@V?$allocator@UParseLocation@TextFormat@protobuf@google@@@std@@@std@@@std@@@std@@@std@@@2@0@Z 10051670 f i libprotobuf:text_format.obj
 0001:00050760       ?erase@?$_Tree@V?$_Tmap_traits@PBVFieldDescriptor@protobuf@google@@V?$vector@UParseLocation@TextFormat@protobuf@google@@V?$allocator@UParseLocation@TextFormat@protobuf@google@@@std@@@std@@U?$less@PBVFieldDescriptor@protobuf@google@@@5@V?$allocator@U?$pair@QBVFieldDescriptor@protobuf@google@@V?$vector@UParseLocation@TextFormat@protobuf@google@@V?$allocator@UParseLocation@TextFormat@protobuf@google@@@std@@@std@@@std@@@5@$0A@@std@@@std@@QAE?AV?$_Tree_iterator@V?$_Tree_val@U?$_Tree_simple_types@U?$pair@QBVFieldDescriptor@protobuf@google@@V?$vector@UParseLocation@TextFormat@protobuf@google@@V?$allocator@UParseLocation@TextFormat@protobuf@google@@@std@@@std@@@std@@@std@@@std@@@2@V?$_Tree_const_iterator@V?$_Tree_val@U?$_Tree_simple_types@U?$pair@QBVFieldDescriptor@protobuf@google@@V?$vector@UParseLocation@TextFormat@protobuf@google@@V?$allocator@UParseLocation@TextFormat@protobuf@google@@@std@@@std@@@std@@@std@@@std@@@2@@Z 10051760 f i libprotobuf:text_format.obj
 0001:00050a60       ?push_back@?$vector@UParseLocation@TextFormat@protobuf@google@@V?$allocator@UParseLocation@TextFormat@protobuf@google@@@std@@@std@@QAEXABUParseLocation@TextFormat@protobuf@google@@@Z 10051a60 f i libprotobuf:text_format.obj
 0001:00050a60       ?push_back@?$vector@U?$pair@PBVDescriptor@protobuf@google@@H@std@@V?$allocator@U?$pair@PBVDescriptor@protobuf@google@@H@std@@@2@@std@@QAEXABU?$pair@PBVDescriptor@protobuf@google@@H@2@@Z 10051a60 f i libprotobuf:descriptor.obj
 0001:00050ae0       ?safe_strto32@protobuf@google@@YA_NV?$basic_string@DU?$char_traits@D@std@@V?$allocator@D@2@@std@@PAH@Z 10051ae0 f i libprotobuf:text_format.obj
 0001:00050de0       ?NoLocaleStrtod@io@protobuf@google@@YANPBDPAPAD@Z 10051de0 f   libprotobuf:strtod.obj
 0001:00050ea0       ?replace@?$basic_string@DU?$char_traits@D@std@@V?$allocator@D@2@@std@@QAEAAV12@V?$_String_const_iterator@V?$_String_val@U?$_Simple_types@D@std@@@std@@@2@0PBD1@Z 10051ea0 f i libprotobuf:strtod.obj
 0001:00050f20       _sprintf                   10051f20 f i libprotobuf:strtod.obj
 0001:00050fb0       ??$ConsumeOneOrMore@VDigit@?A0x47d3e760@io@protobuf@google@@@Tokenizer@io@protobuf@google@@AAEXPBD@Z 10051fb0 f i libprotobuf:tokenizer.obj
 0001:000510d0       ??$ConsumeOneOrMore@VHexDigit@?A0x47d3e760@io@protobuf@google@@@Tokenizer@io@protobuf@google@@AAEXPBD@Z 100520d0 f i libprotobuf:tokenizer.obj
 0001:00051210       ??$ConsumeZeroOrMore@VAlphanumeric@?A0x47d3e760@io@protobuf@google@@@Tokenizer@io@protobuf@google@@AAEXXZ 10052210 f i libprotobuf:tokenizer.obj
 0001:00051290       ??$ConsumeZeroOrMore@VDigit@?A0x47d3e760@io@protobuf@google@@@Tokenizer@io@protobuf@google@@AAEXXZ 10052290 f i libprotobuf:tokenizer.obj
 0001:00051300       ??$ConsumeZeroOrMore@VOctalDigit@?A0x47d3e760@io@protobuf@google@@@Tokenizer@io@protobuf@google@@AAEXXZ 10052300 f i libprotobuf:tokenizer.obj
 0001:00051370       ??$ConsumeZeroOrMore@VWhitespace@?A0x47d3e760@io@protobuf@google@@@Tokenizer@io@protobuf@google@@AAEXXZ 10052370 f i libprotobuf:tokenizer.obj
 0001:000513f0       ??$ConsumeZeroOrMore@VWhitespaceNoNewline@?A0x47d3e760@io@protobuf@google@@@Tokenizer@io@protobuf@google@@AAEXXZ 100523f0 f i libprotobuf:tokenizer.obj
 0001:00051460       ??$TryConsumeOne@VDigit@?A0x47d3e760@io@protobuf@google@@@Tokenizer@io@protobuf@google@@AAE_NXZ 10052460 f i libprotobuf:tokenizer.obj
 0001:00051480       ??$TryConsumeOne@VHexDigit@?A0x47d3e760@io@protobuf@google@@@Tokenizer@io@protobuf@google@@AAE_NXZ 10052480 f i libprotobuf:tokenizer.obj
 0001:000514b0       ??0Tokenizer@io@protobuf@google@@QAE@PAVZeroCopyInputStream@123@PAVErrorCollector@123@@Z 100524b0 f   libprotobuf:tokenizer.obj
 0001:000515b0       ??1ErrorCollector@io@protobuf@google@@UAE@XZ 100525b0 f   libprotobuf:tokenizer.obj
 0001:000515c0       ??1Token@Tokenizer@io@protobuf@google@@QAE@XZ 100525c0 f i libprotobuf:tokenizer.obj
 0001:00051600       ??1Tokenizer@io@protobuf@google@@QAE@XZ 10052600 f   libprotobuf:tokenizer.obj
 0001:000516c0       ??A?$basic_string@DU?$char_traits@D@std@@V?$allocator@D@2@@std@@QBEABDI@Z 100526c0 f i libprotobuf:tokenizer.obj
 0001:000517b0       ?ConsumeBlockComment@Tokenizer@io@protobuf@google@@AAEXPAV?$basic_string@DU?$char_traits@D@std@@V?$allocator@D@2@@std@@@Z 100527b0 f   libprotobuf:tokenizer.obj
 0001:00051ba0       ?ConsumeLineComment@Tokenizer@io@protobuf@google@@AAEXPAV?$basic_string@DU?$char_traits@D@std@@V?$allocator@D@2@@std@@@Z 10052ba0 f   libprotobuf:tokenizer.obj
 0001:00051c50       ?ConsumeNumber@Tokenizer@io@protobuf@google@@AAE?AW4TokenType@1234@_N0@Z 10052c50 f   libprotobuf:tokenizer.obj
 0001:00051e40       ?ConsumeString@Tokenizer@io@protobuf@google@@AAEXD@Z 10052e40 f   libprotobuf:tokenizer.obj
 0001:00052320       ?IsIdentifier@Tokenizer@io@protobuf@google@@SA_NABV?$basic_string@DU?$char_traits@D@std@@V?$allocator@D@2@@std@@@Z 10053320 f   libprotobuf:tokenizer.obj
 0001:000523c0       ?Next@Tokenizer@io@protobuf@google@@QAE_NXZ 100533c0 f   libprotobuf:tokenizer.obj
 0001:00052860       ?NextChar@Tokenizer@io@protobuf@google@@AAEXXZ 10053860 f   libprotobuf:tokenizer.obj
 0001:000528c0       ?ParseFloat@Tokenizer@io@protobuf@google@@SANABV?$basic_string@DU?$char_traits@D@std@@V?$allocator@D@2@@std@@@Z 100538c0 f   libprotobuf:tokenizer.obj
 0001:00052a00       ?ParseInteger@Tokenizer@io@protobuf@google@@SA_NABV?$basic_string@DU?$char_traits@D@std@@V?$allocator@D@2@@std@@_KPA_K@Z 10053a00 f   libprotobuf:tokenizer.obj
 0001:00052c10       ?ParseStringAppend@Tokenizer@io@protobuf@google@@SAXABV?$basic_string@DU?$char_traits@D@std@@V?$allocator@D@2@@std@@PAV56@@Z 10053c10 f   libprotobuf:tokenizer.obj
 0001:00052f80       ?Refresh@Tokenizer@io@protobuf@google@@AAEXXZ 10053f80 f   libprotobuf:tokenizer.obj
 0001:00053100       ?push_back@?$basic_string@DU?$char_traits@D@std@@V?$allocator@D@2@@std@@QAEXD@Z 10054100 f i libprotobuf:tokenizer.obj
 0001:00053140       ??1?$scoped_array@D@internal@protobuf@google@@QAE@XZ 10054140 f i libprotobuf:strutil.obj
 0001:00053140       ??1?$RepeatedField@H@protobuf@google@@QAE@XZ 10054140 f i libprotobuf:descriptor.pb.obj
 0001:00053150       ?CEscape@protobuf@google@@YA?AV?$basic_string@DU?$char_traits@D@std@@V?$allocator@D@2@@std@@ABV34@@Z 10054150 f   libprotobuf:strutil.obj
 0001:00053200       ?CEscapeInternal@protobuf@google@@YAHPBDHPADH_N2@Z 10054200 f   libprotobuf:strutil.obj
 0001:000533b0       ?DelocalizeRadix@protobuf@google@@YAXPAD@Z 100543b0 f   libprotobuf:strutil.obj
 0001:00053460       ?DoubleToBuffer@protobuf@google@@YAPADNPAD@Z 10054460 f   libprotobuf:strutil.obj
 0001:00053560       ?FastHex32ToBuffer@protobuf@google@@YAPADIPAD@Z 10054560 f   libprotobuf:strutil.obj
 0001:00053610       ?FastHex64ToBuffer@protobuf@google@@YAPAD_KPAD@Z 10054610 f   libprotobuf:strutil.obj
 0001:00053650       ?FastInt32ToBuffer@protobuf@google@@YAPADHPAD@Z 10054650 f   libprotobuf:strutil.obj
 0001:00053720       ?FastInt64ToBuffer@protobuf@google@@YAPAD_JPAD@Z 10054720 f   libprotobuf:strutil.obj
 0001:00053810       ?FastUInt32ToBufferLeft@protobuf@google@@YAPADIPAD@Z 10054810 f   libprotobuf:strutil.obj
 0001:000539a0       ?FastUInt64ToBufferLeft@protobuf@google@@YAPAD_KPAD@Z 100549a0 f   libprotobuf:strutil.obj
 0001:00053ac0       ?FloatToBuffer@protobuf@google@@YAPADMPAD@Z 10054ac0 f   libprotobuf:strutil.obj
 0001:00053bd0       ?SimpleDtoa@protobuf@google@@YA?AV?$basic_string@DU?$char_traits@D@std@@V?$allocator@D@2@@std@@N@Z 10054bd0 f   libprotobuf:strutil.obj
 0001:00053c50       ?SimpleFtoa@protobuf@google@@YA?AV?$basic_string@DU?$char_traits@D@std@@V?$allocator@D@2@@std@@M@Z 10054c50 f   libprotobuf:strutil.obj
 0001:00053cd0       ?SimpleItoa@protobuf@google@@YA?AV?$basic_string@DU?$char_traits@D@std@@V?$allocator@D@2@@std@@H@Z 10054cd0 f   libprotobuf:strutil.obj
 0001:00053d50       ?SimpleItoa@protobuf@google@@YA?AV?$basic_string@DU?$char_traits@D@std@@V?$allocator@D@2@@std@@I@Z 10054d50 f   libprotobuf:strutil.obj
 0001:00053dc0       ?SimpleItoa@protobuf@google@@YA?AV?$basic_string@DU?$char_traits@D@std@@V?$allocator@D@2@@std@@_J@Z 10054dc0 f   libprotobuf:strutil.obj
 0001:00053e40       ?SimpleItoa@protobuf@google@@YA?AV?$basic_string@DU?$char_traits@D@std@@V?$allocator@D@2@@std@@_K@Z 10054e40 f   libprotobuf:strutil.obj
 0001:00053eb0       ?UnescapeCEscapeSequences@protobuf@google@@YAHPBDPADPAV?$vector@V?$basic_string@DU?$char_traits@D@std@@V?$allocator@D@2@@std@@V?$allocator@V?$basic_string@DU?$char_traits@D@std@@V?$allocator@D@2@@std@@@2@@std@@@Z 10054eb0 f   libprotobuf:strutil.obj
 0001:000541a0       ?UnescapeCEscapeString@protobuf@google@@YA?AV?$basic_string@DU?$char_traits@D@std@@V?$allocator@D@2@@std@@ABV34@@Z 100551a0 f   libprotobuf:strutil.obj
 0001:00054240       ?safe_int@protobuf@google@@YA_NV?$basic_string@DU?$char_traits@D@std@@V?$allocator@D@2@@std@@PAH@Z 10055240 f   libprotobuf:strutil.obj
 0001:00054300       ?safe_parse_negative_int@protobuf@google@@YA_NV?$basic_string@DU?$char_traits@D@std@@V?$allocator@D@2@@std@@PAH@Z 10055300 f i libprotobuf:strutil.obj
 0001:000543d0       ?safe_parse_positive_int@protobuf@google@@YA_NV?$basic_string@DU?$char_traits@D@std@@V?$allocator@D@2@@std@@PAH@Z 100553d0 f i libprotobuf:strutil.obj
 0001:000544a0       ?safe_parse_sign@protobuf@google@@YA_NPAV?$basic_string@DU?$char_traits@D@std@@V?$allocator@D@2@@std@@PA_N@Z 100554a0 f i libprotobuf:strutil.obj
 0001:000545b0       ?safe_strtof@protobuf@google@@YA_NPBDPAM@Z 100555b0 f   libprotobuf:strutil.obj
 0001:00054600       ?Substitute@strings@protobuf@google@@YA?AV?$basic_string@DU?$char_traits@D@std@@V?$allocator@D@2@@std@@PBDABVSubstituteArg@internal@123@111111111@Z 10055600 f   libprotobuf:substitute.obj
 0001:000546b0       ?SubstituteAndAppend@strings@protobuf@google@@YAXPAV?$basic_string@DU?$char_traits@D@std@@V?$allocator@D@2@@std@@PBDABVSubstituteArg@internal@123@222222222@Z 100556b0 f   libprotobuf:substitute.obj
 0001:00054ab0       ?NoBarrier_CompareAndSwap@internal@protobuf@google@@YAHPCHHH@Z 10055ab0 f   libprotobuf:atomicops_internals_x86_msvc.obj
 0001:00054ad0       ??0bad_cast@std@@QAE@ABV01@@Z 10055ad0 f i libprotobuf:zero_copy_stream_impl.obj
 0001:00054b10       ??1locale@std@@QAE@XZ      10055b10 f i libprotobuf:zero_copy_stream_impl.obj
 0001:00054b60       ?StringAppendF@protobuf@google@@YAXPAV?$basic_string@DU?$char_traits@D@std@@V?$allocator@D@2@@std@@PBDZZ 10055b60 f   libprotobuf:stringprintf.obj
 0001:00054b80       ?StringAppendV@protobuf@google@@YAXPAV?$basic_string@DU?$char_traits@D@std@@V?$allocator@D@2@@std@@PBDPAD@Z 10055b80 f   libprotobuf:stringprintf.obj
 0001:00054cb0       ?StringPrintf@protobuf@google@@YA?AV?$basic_string@DU?$char_traits@D@std@@V?$allocator@D@2@@std@@PBDZZ 10055cb0 f   libprotobuf:stringprintf.obj
 0001:00054d40       ??1ZeroCopyInputStream@io@protobuf@google@@UAE@XZ 10055d40 f   libprotobuf:zero_copy_stream.obj
 0001:00054d50       ??1ZeroCopyOutputStream@io@protobuf@google@@UAE@XZ 10055d50 f   libprotobuf:zero_copy_stream.obj
 0001:00054d60       ?WriteAliasedRaw@ZeroCopyOutputStream@io@protobuf@google@@UAE_NPBXH@Z 10055d60 f   libprotobuf:zero_copy_stream.obj
 0001:00054dda       ??0bad_alloc@std@@QAE@ABV01@@Z 10055dda f i libcpmt:xthrow.obj
 0001:00054dfb       ??0bad_alloc@std@@QAE@XZ   10055dfb f i libcpmt:xthrow.obj
 0001:00054e13       ??0exception@std@@QAE@QBD@Z 10055e13 f i libcpmt:xthrow.obj
 0001:00054e4a       ??0invalid_argument@std@@QAE@ABV01@@Z 10055e4a f i libcpmt:xthrow.obj
 0001:00054e6b       ??0invalid_argument@std@@QAE@PBD@Z 10055e6b f i libcpmt:xthrow.obj
 0001:00054e8c       ??0length_error@std@@QAE@ABV01@@Z 10055e8c f i libcpmt:xthrow.obj
 0001:00054ead       ??0length_error@std@@QAE@PBD@Z 10055ead f i libcpmt:xthrow.obj
 0001:00054ece       ??0logic_error@std@@QAE@ABV01@@Z 10055ece f i libcpmt:xthrow.obj
 0001:00054eef       ??0out_of_range@std@@QAE@ABV01@@Z 10055eef f i libcpmt:xthrow.obj
 0001:00054f10       ??0out_of_range@std@@QAE@PBD@Z 10055f10 f i libcpmt:xthrow.obj
 0001:00054f31       ??_Glogic_error@std@@UAEPAXI@Z 10055f31 f i libcpmt:xthrow.obj
 0001:00054f31       ??_Ebad_array_new_length@std@@UAEPAXI@Z 10055f31 f i LIBCMT:throw_bad_alloc.obj
 0001:00054f31       ??_E__non_rtti_object@std@@UAEPAXI@Z 10055f31 f i libvcruntime:rtti.obj
 0001:00054f31       ??_Einvalid_argument@std@@UAEPAXI@Z 10055f31 f i libcpmt:xthrow.obj
 0001:00054f31       ??_Glength_error@std@@UAEPAXI@Z 10055f31 f i libcpmt:xthrow.obj
 0001:00054f31       ??_Gout_of_range@std@@UAEPAXI@Z 10055f31 f i libcpmt:xthrow.obj
 0001:00054f31       ??_Gbad_typeid@std@@UAEPAXI@Z 10055f31 f i libvcruntime:rtti.obj
 0001:00054f31       ??_Eout_of_range@std@@UAEPAXI@Z 10055f31 f i libcpmt:xthrow.obj
 0001:00054f31       ??_Elength_error@std@@UAEPAXI@Z 10055f31 f i libcpmt:xthrow.obj
 0001:00054f31       ??_Gbad_array_new_length@std@@UAEPAXI@Z 10055f31 f i LIBCMT:throw_bad_alloc.obj
 0001:00054f31       ??_Gbad_alloc@std@@UAEPAXI@Z 10055f31 f i libcpmt:xthrow.obj
 0001:00054f31       ??_Ebad_exception@std@@UAEPAXI@Z 10055f31 f i libvcruntime:frame.obj
 0001:00054f31       ??_Ginvalid_argument@std@@UAEPAXI@Z 10055f31 f i libcpmt:xthrow.obj
 0001:00054f31       ??_G__non_rtti_object@std@@UAEPAXI@Z 10055f31 f i libvcruntime:rtti.obj
 0001:00054f31       ??_Ebad_typeid@std@@UAEPAXI@Z 10055f31 f i libvcruntime:rtti.obj
 0001:00054f31       ??_Ebad_alloc@std@@UAEPAXI@Z 10055f31 f i libcpmt:xthrow.obj
 0001:00054f31       ??_Gbad_exception@std@@UAEPAXI@Z 10055f31 f i libvcruntime:frame.obj
 0001:00054f31       ??_Elogic_error@std@@UAEPAXI@Z 10055f31 f i libcpmt:xthrow.obj
 0001:00054f5e       ?__scrt_throw_std_bad_alloc@@YAXXZ 10055f5e f   LIBCMT:throw_bad_alloc.obj
 0001:00054f5e       ?_Xbad_alloc@std@@YAXXZ    10055f5e f   libcpmt:xthrow.obj
 0001:00054f7b       ?_Xinvalid_argument@std@@YAXPBD@Z 10055f7b f   libcpmt:xthrow.obj
 0001:00054f9b       ?_Xlength_error@std@@YAXPBD@Z 10055f9b f   libcpmt:xthrow.obj
 0001:00054fbb       ?_Xout_of_range@std@@YAXPBD@Z 10055fbb f   libcpmt:xthrow.obj
 0001:00054fde       ??0_Init_locks@std@@QAE@XZ 10055fde f   libcpmt:xlock.obj
 0001:0005500b       ??1_Init_locks@std@@QAE@XZ 1005600b f   libcpmt:xlock.obj
 0001:00055032       ??1_Fac_node@std@@QAE@XZ   10056032 f i libcpmt:locale0.obj
 0001:00055091       ??1_Fac_tidy_reg_t@std@@QAE@XZ 10056091 f i libcpmt:locale0.obj
 0001:000550b8       __Mtxdst                   100560b8 f   libcpmt:xmtx.obj
 0001:000550c6       __Mtxinit                  100560c6 f   libcpmt:xmtx.obj
 0001:000550dd       __freea_crt                100560dd f i libcpmt:StlLCMapStringA.obj
 0001:000550fb       ??1_Init_atexit@@QAE@XZ    100560fb f i libcpmt:iosptrs.obj
 0001:00055509       ___crtInitializeCriticalSectionEx 10056509 f   libcpmt:winapisupp.obj
 0001:00055541       @__security_check_cookie@4 10056541 f   LIBCMT:_secchk_.obj
 0001:00055552       ??_V@YAXPAX@Z              10056552 f   LIBCMT:delete_array.obj
 0001:00055557       ??_V@YAXPAXI@Z             10056557 f   LIBCMT:delete_array_size.obj
 0001:00055565       ??3@YAXPAX@Z               10056565 f   LIBCMT:delete_scalar.obj
 0001:0005556a       ??3@YAXPAXI@Z              1005656a f   LIBCMT:delete_scalar_size.obj
 0001:00055578       ??2@YAPAXI@Z               10056578 f   LIBCMT:new_scalar.obj
 0001:000555ab       ??$__crt_fast_encode_pointer@P6GXPAU_RTL_CONDITION_VARIABLE@@@Z@@YAP6GXPAU_RTL_CONDITION_VARIABLE@@@ZQ6GX0@Z@Z 100565ab f i LIBCMT:thread_safe_statics.obj
 0001:000555ab       ??$__crt_fast_encode_pointer@P6GHPAU_RTL_CONDITION_VARIABLE@@PAU_RTL_CRITICAL_SECTION@@K@Z@@YAP6GHPAU_RTL_CONDITION_VARIABLE@@PAU_RTL_CRITICAL_SECTION@@K@ZQ6GH01K@Z@Z 100565ab f i LIBCMT:thread_safe_statics.obj
 0001:000555ab       ??$__crt_fast_encode_pointer@PAP6AXXZ@@YAPAP6AXXZQAP6AXXZ@Z 100565ab f i LIBCMT:utility.obj
 0001:000555ab       ??$__crt_fast_encode_pointer@PAX@@YAPAXQAX@Z 100565ab f i libvcruntime:winapi_downlevel.obj
 0001:0005560c       ___scrt_acquire_startup_lock 1005660c f   LIBCMT:utility.obj
 0001:00055641       ___scrt_dllmain_after_initialize_c 10056641 f   LIBCMT:utility.obj
 0001:00055659       ___scrt_dllmain_before_initialize_c 10056659 f   LIBCMT:utility.obj
 0001:00055667       ___scrt_dllmain_crt_thread_attach 10056667 f   LIBCMT:utility.obj
 0001:00055686       ___scrt_dllmain_crt_thread_detach 10056686 f   LIBCMT:utility.obj
 0001:00055693       ___scrt_dllmain_exception_filter 10056693 f   LIBCMT:utility.obj
 0001:000556c6       ___scrt_dllmain_uninitialize_c 100566c6 f   LIBCMT:utility.obj
 0001:000556e9       ___scrt_dllmain_uninitialize_critical 100566e9 f   LIBCMT:utility.obj
 0001:000556f6       ___scrt_initialize_crt     100566f6 f   LIBCMT:utility.obj
 0001:0005572f       ___scrt_initialize_onexit_tables 1005672f f   LIBCMT:utility.obj
 0001:000557c6       ___scrt_is_nonwritable_in_current_image 100567c6 f   LIBCMT:utility.obj
 0001:00055853       ___scrt_release_startup_lock 10056853 f   LIBCMT:utility.obj
 0001:00055870       ___scrt_uninitialize_crt   10056870 f   LIBCMT:utility.obj
 0001:00055898       __onexit                   10056898 f   LIBCMT:utility.obj
 0001:000558d3       _atexit                    100568d3 f   LIBCMT:utility.obj
 0001:00055bfd       __DllMainCRTStartup@12     10056bfd f   LIBCMT:dll_dllmain.obj
 0001:00055c20       ??_U@YAPAXI@Z              10056c20 f   LIBCMT:new_array.obj
 0001:00055c29       ??_Gtype_info@@UAEPAXI@Z   10056c29 f i LIBCMT:std_type_info_static.obj
 0001:00055c29       ??_Etype_info@@UAEPAXI@Z   10056c29 f i LIBCMT:std_type_info_static.obj
 0001:00055c50       __ftoui3                   10056c50 f   LIBCMT:_ftol3_.obj
 0001:00055c5f       __ftoul3                   10056c5f f   LIBCMT:_ftol3_.obj
 0001:00055c6e       __ftol3                    10056c6e f   LIBCMT:_ftol3_.obj
 0001:00055c7b       __ftol3_NaN                10056c7b f   LIBCMT:_ftol3_.obj
 0001:00055c93       __ftol3_work               10056c93 f   LIBCMT:_ftol3_.obj
 0001:00055d19       __ftol3_common             10056d19 f   LIBCMT:_ftol3_.obj
 0001:00055ddb       __ftol3_arg_error          10056ddb f   LIBCMT:_ftol3_.obj
 0001:00055ded       __ftol3_except             10056ded f   LIBCMT:_ftol3_.obj
 0001:00055e31       __dtoui3                   10056e31 f   LIBCMT:_ftol3_.obj
 0001:00055e40       __dtoul3                   10056e40 f   LIBCMT:_ftol3_.obj
 0001:00055e4f       __dtol3                    10056e4f f   LIBCMT:_ftol3_.obj
 0001:00055e5c       __dtol3_NaN                10056e5c f   LIBCMT:_ftol3_.obj
 0001:00055e79       __dtol3_work               10056e79 f   LIBCMT:_ftol3_.obj
 0001:00055f60       __ultod3                   10056f60 f   LIBCMT:_ftol3_.obj
 0001:00055fa0       __ltod3                    10056fa0 f   LIBCMT:_ftol3_.obj
 0001:00055fd0       __allshl                   10056fd0 f   LIBCMT:llshl.obj
 0001:00055ff0       __alloca_probe             10056ff0 f   LIBCMT:chkstk.obj
 0001:00055ff0       __chkstk                   10056ff0 f   LIBCMT:chkstk.obj
 0001:00056020       __allmul                   10057020 f   LIBCMT:llmul.obj
 0001:00056060       __aulldiv                  10057060 f   LIBCMT:ulldiv.obj
 0001:000560d0       __alldiv                   100570d0 f   LIBCMT:lldiv.obj
 0001:00056256       @_guard_check_icall@4      10057256 f i LIBCMT:checkcfg.obj
 0001:0005625c       __EH_prolog3_catch         1005725c f   LIBCMT:ehprolg3.obj
 0001:000562a0       __alloca_probe_16          100572a0 f   LIBCMT:alloca16.obj
 0001:000562b6       __alloca_probe_8           100572b6     LIBCMT:alloca16.obj
 0001:000562cc       ___raise_securityfailure   100572cc f   LIBCMT:gs_report.obj
 0001:000562f4       ___report_gsfailure        100572f4 f   LIBCMT:gs_report.obj
 0001:000563ef       ??0bad_array_new_length@std@@QAE@ABV01@@Z 100573ef f i LIBCMT:throw_bad_alloc.obj
 0001:00056410       ??0bad_array_new_length@std@@QAE@XZ 10057410 f i LIBCMT:throw_bad_alloc.obj
 0001:00056428       ?__scrt_throw_std_bad_array_new_length@@YAXXZ 10057428 f   LIBCMT:throw_bad_alloc.obj
 0001:00056445       ___isa_available_init      10057445 f   LIBCMT:_cpu_disp_.obj
 0001:000565e6       ___scrt_is_ucrt_dll_in_use 100575e6 f   LIBCMT:ucrt_detection.obj
 0001:000565f2       ___scrt_fastfail           100575f2 f   LIBCMT:utility_desktop.obj
 0001:0005670d       __crt_debugger_hook        1005770d f   LIBCMT:utility_desktop.obj
 0001:00056720       __SEH_prolog4              10057720 f   LIBCMT:_sehprolg4_.obj
 0001:00056766       __SEH_epilog4              10057766 f   LIBCMT:_sehprolg4_.obj
 0001:0005677b       ___security_init_cookie    1005777b f   LIBCMT:gs_support.obj
 0001:00056817       _DllMain@12                10057817 f   LIBCMT:dll_dllmain_stub.obj
 0001:0005681d       ?__scrt_initialize_type_info@@YAXXZ 1005781d f   LIBCMT:tncleanup.obj
 0001:00056829       ?__scrt_uninitialize_type_info@@YAXXZ 10057829 f   LIBCMT:tncleanup.obj
 0001:00056835       ___local_stdio_scanf_options 10057835 f i LIBCMT:default_local_stdio_options.obj
 0001:0005683b       ___scrt_initialize_default_local_stdio_options 1005783b f   LIBCMT:default_local_stdio_options.obj
 0001:00056858       ___scrt_get_dyn_tls_init_callback 10057858 f   LIBCMT:dyn_tls_init.obj
 0001:0005685e       __RTC_Initialize           1005785e f   LIBCMT:_initsect_.obj
 0001:00056889       __RTC_Terminate            10057889 f   LIBCMT:_initsect_.obj
 0001:000568b4       __get_purecall_handler     100578b4 f   libvcruntime:purevirt.obj
 0001:000568d3       __purecall                 100578d3 f   libvcruntime:purevirt.obj
 0001:000568f0       _memmove                   100578f0 f   libvcruntime:memmove.obj
 0001:00056e64       ___DestructExceptionObject 10057e64 f   libvcruntime:frame.obj
 0001:00056ef8       ??0bad_exception@std@@QAE@ABV01@@Z 10057ef8 f i libvcruntime:frame.obj
 0001:00056f19       ??0bad_exception@std@@QAE@XZ 10057f19 f i libvcruntime:frame.obj
 0001:00056f40       ??1length_error@std@@UAE@XZ 10057f40 f i libcpmt:xthrow.obj
 0001:00056f40       ??1bad_alloc@std@@UAE@XZ   10057f40 f i libcpmt:xthrow.obj
 0001:00056f40       ??1bad_cast@std@@UAE@XZ    10057f40 f i libprotobuf:zero_copy_stream_impl.obj
 0001:00056f40       ??1exception@std@@UAE@XZ   10057f40 f i libprotobuf:common.obj
 0001:00056f40       ??1out_of_range@std@@UAE@XZ 10057f40 f i libcpmt:xthrow.obj
 0001:00056f40       ??1__non_rtti_object@std@@UAE@XZ 10057f40 f i libvcruntime:rtti.obj
 0001:00056f40       ??1invalid_argument@std@@UAE@XZ 10057f40 f i libcpmt:xthrow.obj
 0001:00056f40       ??1bad_exception@std@@UAE@XZ 10057f40 f i libvcruntime:frame.obj
 0001:00056f40       ??1bad_array_new_length@std@@UAE@XZ 10057f40 f i LIBCMT:throw_bad_alloc.obj
 0001:00057760       ?_CallMemberFunction2@@YGXQAX00H@Z 10058760 f i libvcruntime:frame.obj
 0001:00057760       ?_CallMemberFunction1@@YGXQAX00@Z 10058760 f i libvcruntime:frame.obj
 0001:00057760       ?_CallMemberFunction0@@YGXQAX0@Z 10058760 f i libvcruntime:frame.obj
 0001:00057767       ___AdjustPointer           10058767 f   libvcruntime:frame.obj
 0001:0005778c       ___BuildCatchObject        1005878c f   libvcruntime:frame.obj
 0001:0005781e       ___BuildCatchObjectHelper  1005881e f   libvcruntime:frame.obj
 0001:00057950       ___FrameUnwindFilter       10058950 f   libvcruntime:frame.obj
 0001:00057995       ___FrameUnwindToState      10058995 f   libvcruntime:frame.obj
 0001:00057a5d       ___InternalCxxFrameHandler 10058a5d f   libvcruntime:frame.obj
 0001:00057b59       ___TypeMatch               10058b59 f   libvcruntime:frame.obj
 0001:00057be7       ___std_terminate           10058be7 f   libvcruntime:frame.obj
 0001:00057bec       __CxxThrowException@8      10058bec f   libvcruntime:throw.obj
 0001:00057c5a       ?_CallCatchBlock2@@YAPAXPAUEHRegistrationNode@@PBU_s_FuncInfo@@PAXHK@Z 10058c5a f   libvcruntime:trnsctrl.obj
 0001:00057cba       ?_CallSETranslator@@YAHPAUEHExceptionRecord@@PAUEHRegistrationNode@@PAX2PBU_s_FuncInfo@@H1@Z 10058cba f   libvcruntime:trnsctrl.obj
 0001:00057d97       ?_GetRangeOfTrysToCheck@@YAPBU_s_TryBlockMapEntry@@PBU_s_FuncInfo@@HHPAI1@Z 10058d97 f   libvcruntime:trnsctrl.obj
 0001:00057e0f       ?_JumpToContinuation@@YGXPAXPAUEHRegistrationNode@@@Z 10058e0f f   libvcruntime:trnsctrl.obj
 0001:00057e41       ?_UnwindNestedFrames@@YGXPAUEHRegistrationNode@@PAUEHExceptionRecord@@@Z 10058e41 f   libvcruntime:trnsctrl.obj
 0001:00057e96       __CatchGuardHandler        10058e96 f   libvcruntime:trnsctrl.obj
 0001:00057ec7       __CreateFrameInfo          10058ec7 f   libvcruntime:trnsctrl.obj
 0001:00057eeb       __FindAndUnlinkFrame       10058eeb f   libvcruntime:trnsctrl.obj
 0001:00057f33       __IsExceptionObjectToBeDestroyed 10058f33 f   libvcruntime:trnsctrl.obj
 0001:00057f59       __TranslatorGuardHandler   10058f59 f   libvcruntime:trnsctrl.obj
 0001:00057ff8       ___CxxFrameHandler3        10058ff8 f   libvcruntime:trnsctrl.obj
 0001:0005802e       ??0__non_rtti_object@std@@QAE@ABV01@@Z 1005902e f i libvcruntime:rtti.obj
 0001:0005804f       ??0bad_typeid@std@@QAE@ABV01@@Z 1005904f f i libvcruntime:rtti.obj
 0001:00058478       ?__construct_from_string_literal@__non_rtti_object@std@@SA?AV12@QBD@Z 10059478 f i libvcruntime:rtti.obj
 0001:00058497       ?__construct_from_string_literal@bad_cast@std@@SA?AV12@QBD@Z 10059497 f i libvcruntime:rtti.obj
 0001:000584b6       ___RTDynamicCast           100594b6 f   libvcruntime:rtti.obj
 0001:000585a0       _memcpy                    100595a0 f   libvcruntime:memcpy.obj
 0001:00058b14       ___std_exception_copy      10059b14 f   libvcruntime:std_exception.obj
 0001:00058b77       ___std_exception_destroy   10059b77 f   libvcruntime:std_exception.obj
 0001:00058ba0       _memset                    10059ba0 f   libvcruntime:memset.obj
 0001:00058d00       _memchr                    10059d00 f   libvcruntime:memchr.obj
 0001:00058db0       _strchr                    10059db0 f   libvcruntime:strchr.obj
 0001:00058e1e       ___from_strstr_to_strchr   10059e1e     libvcruntime:strchr.obj
 0001:00058edb       ___vcrt_initialize         10059edb f   libvcruntime:initialization.obj
 0001:00058f09       ___vcrt_thread_attach      10059f09 f   libvcruntime:initialization.obj
 0001:00058f14       ___vcrt_thread_detach      10059f14 f   libvcruntime:initialization.obj
 0001:00058f1f       ___vcrt_uninitialize       10059f1f f   libvcruntime:initialization.obj
 0001:00058f43       ___vcrt_uninitialize_critical 10059f43 f   libvcruntime:initialization.obj
 0001:00058f90       __except_handler4          10059f90 f   libvcruntime:_chandler4_.obj
 0001:00059124       ___telemetry_main_invoke_trigger 1005a124 f   libvcruntime:telemetry.obj
 0001:000591c0       ___telemetry_main_return_trigger 1005a1c0 f   libvcruntime:telemetry.obj
 0001:0005925c       ___vcrt_initialize_telemetry_provider 1005a25c f   libvcruntime:telemetry.obj
 0001:0005926f       ___vcrt_uninitialize_telemetry_provider 1005a26f f   libvcruntime:telemetry.obj
 0001:0005939c       ___vcrt_EventRegister      1005a39c f   libvcruntime:winapi_downlevel.obj
 0001:000593dc       ___vcrt_EventSetInformation 1005a3dc f   libvcruntime:winapi_downlevel.obj
 0001:0005941f       ___vcrt_EventUnregister    1005a41f f   libvcruntime:winapi_downlevel.obj
 0001:00059459       ___vcrt_EventWriteTransfer 1005a459 f   libvcruntime:winapi_downlevel.obj
 0001:000594a2       ___vcrt_FlsAlloc           1005a4a2 f   libvcruntime:winapi_downlevel.obj
 0001:000594dc       ___vcrt_FlsFree            1005a4dc f   libvcruntime:winapi_downlevel.obj
 0001:00059516       ___vcrt_FlsGetValue        1005a516 f   libvcruntime:winapi_downlevel.obj
 0001:00059550       ___vcrt_FlsSetValue        1005a550 f   libvcruntime:winapi_downlevel.obj
 0001:0005958d       ___vcrt_InitializeCriticalSectionEx 1005a58d f   libvcruntime:winapi_downlevel.obj
 0001:000595d3       ___vcrt_initialize_winapi_thunks 1005a5d3 f   libvcruntime:winapi_downlevel.obj
 0001:000595f7       ___vcrt_uninitialize_winapi_thunks 1005a5f7 f   libvcruntime:winapi_downlevel.obj
 0001:00059629       ___std_type_info_compare   1005a629 f   libvcruntime:std_type_info.obj
 0001:00059665       ___std_type_info_destroy_list 1005a665 f   libvcruntime:std_type_info.obj
 0001:00059688       ___vcrt_initialize_pure_virtual_call_handler 1005a688 f   libvcruntime:purevirt_data.obj
 0001:000596a5       _unexpected                1005a6a5 f   libvcruntime:unexpected.obj
 0001:000596c1       ___vcrt_freefls@4          1005a6c1 f   libvcruntime:per_thread_data.obj
 0001:000596dd       ___vcrt_freeptd            1005a6dd f   libvcruntime:per_thread_data.obj
 0001:00059713       ___vcrt_getptd             1005a713 f   libvcruntime:per_thread_data.obj
 0001:00059721       ___vcrt_getptd_noexit      1005a721 f   libvcruntime:per_thread_data.obj
 0001:00059799       ___vcrt_initialize_ptd     1005a799 f   libvcruntime:per_thread_data.obj
 0001:000597cc       ___vcrt_uninitialize_ptd   1005a7cc f   libvcruntime:per_thread_data.obj
 0001:000597f0       __CallSettingFrame@12      1005a7f0 f   libvcruntime:lowhelpr.obj
 0001:00059817       __NLG_Return               1005a817     libvcruntime:lowhelpr.obj
 0001:0005983c       ___vcrt_initialize_locks   1005a83c f   libvcruntime:locks.obj
 0001:00059878       ___vcrt_uninitialize_locks 1005a878 f   libvcruntime:locks.obj
 0001:000598b0       __local_unwind4            1005a8b0 f   libvcruntime:_exsup4_.obj
 0001:00059986       __seh_longjmp_unwind4@4    1005a986 f   libvcruntime:_exsup4_.obj
 0001:000599ae       @_EH4_CallFilterFunc@8     1005a9ae f   libvcruntime:_exsup4_.obj
 0001:000599c5       @_EH4_TransferToHandler@8  1005a9c5 f   libvcruntime:_exsup4_.obj
 0001:000599de       @_EH4_GlobalUnwind2@8      1005a9de f   libvcruntime:_exsup4_.obj
 0001:000599f7       @_EH4_LocalUnwind@16       1005a9f7 f   libvcruntime:_exsup4_.obj
 0001:00059a10       __global_unwind2           1005aa10 f   libvcruntime:_exsup_.obj
 0001:00059a75       __local_unwind2            1005aa75 f   libvcruntime:_exsup_.obj
 0001:00059af9       __abnormal_termination     1005aaf9 f   libvcruntime:_exsup_.obj
 0001:00059b1c       __NLG_Notify1              1005ab1c f   libvcruntime:_exsup_.obj
 0001:00059b25       __NLG_Notify               1005ab25 f   libvcruntime:_exsup_.obj
 0001:00059b3c       __NLG_Dispatch             1005ab3c     libvcruntime:_exsup_.obj
 0001:00059b3c       __NLG_Dispatch2            1005ab3c     libvcruntime:_exsup_.obj
 0001:00059b44       __NLG_Call                 1005ab44 f   libvcruntime:_exsup_.obj
 0001:00059b46       __NLG_Return2              1005ab46     libvcruntime:_exsup_.obj
 0001:0005a1ab       ??$ftprintf@PAU_iobuf@@PB_WABQB_WABQB_WABI@?$__crt_char_traits@_W@@SAH$$QAPAU_iobuf@@$$QAPB_WABQB_W2ABI@Z 1005b1ab f i libucrt:assert.obj
 0001:0005a28a       __vfwprintf_l              1005b28a f i libucrt:assert.obj
 0001:0005a2af       __vswprintf_c_l            1005b2af f i libucrt:assert.obj
 0001:0005a2de       __wassert                  1005b2de f   libucrt:assert.obj
 0001:0005a326       _fwprintf                  1005b326 f i libucrt:assert.obj
 0001:0005a341       _swprintf                  1005b341 f i libucrt:assert.obj
 0001:0005a35f       ___acrt_call_reportfault   1005b35f f   libucrt:invalid_parameter.obj
 0001:0005a49a       ___acrt_initialize_invalid_parameter_handler 1005b49a f   libucrt:invalid_parameter.obj
 0001:0005a4ae       __invalid_parameter        1005b4ae f   libucrt:invalid_parameter.obj
 0001:0005a529       __invalid_parameter_noinfo 1005b529 f   libucrt:invalid_parameter.obj
 0001:0005a539       __invalid_parameter_noinfo_noreturn 1005b539 f   libucrt:invalid_parameter.obj
 0001:0005a556       __invoke_watson            1005b556 f   libucrt:invalid_parameter.obj
 0001:0005a589       ??$?RV<lambda_ab9923ffb5d694ec0d78876dd103e44f>@@AAV<lambda_481dd5778c961fbcd3b60b650e9b9dc4>@@V<lambda_7923d86c9e3f319b415918ec4b39749c>@@@?$__crt_seh_guarded_call@H@@QAEH$$QAV<lambda_ab9923ffb5d694ec0d78876dd103e44f>@@AAV<lambda_481dd5778c961fbcd3b60b650e9b9dc4>@@$$QAV<lambda_7923d86c9e3f319b415918ec4b39749c>@@@Z 1005b589 f i libucrt:output.obj
 0001:0005a5da       ??$?RV<lambda_db08b09ef7aa9d4f8620ce68402612bc>@@AAV<lambda_4f2c1eaeead2a5fc776db5b62ea0fb9b>@@V<lambda_3ae262bc35d4ba6a3825c4f6bcaaf95c>@@@?$__crt_seh_guarded_call@H@@QAEH$$QAV<lambda_db08b09ef7aa9d4f8620ce68402612bc>@@AAV<lambda_4f2c1eaeead2a5fc776db5b62ea0fb9b>@@$$QAV<lambda_3ae262bc35d4ba6a3825c4f6bcaaf95c>@@@Z 1005b5da f i libucrt:output.obj
 0001:0005a62b       ??$__acrt_lock_stream_and_call@V<lambda_481dd5778c961fbcd3b60b650e9b9dc4>@@@@YAHQAU_iobuf@@$$QAV<lambda_481dd5778c961fbcd3b60b650e9b9dc4>@@@Z 1005b62b f i libucrt:output.obj
 0001:0005a653       ??$__acrt_lock_stream_and_call@V<lambda_4f2c1eaeead2a5fc776db5b62ea0fb9b>@@@@YAHQAU_iobuf@@$$QAV<lambda_4f2c1eaeead2a5fc776db5b62ea0fb9b>@@@Z 1005b653 f i libucrt:output.obj
 0001:0005ab70       ??$count@D@formatting_buffer@__crt_stdio_output@@QBEIXZ 1005bb70 f i libucrt:output.obj
 0001:0005ab88       ??$ensure_buffer_is_big_enough@D@formatting_buffer@__crt_stdio_output@@QAE_NI@Z 1005bb88 f i libucrt:output.obj
 0001:0005ac0e       ??$is_wide_character_specifier@D@__crt_stdio_output@@YA_N_KDW4length_modifier@0@@Z 1005bc0e f i libucrt:output.obj
 0001:0005ac4e       ??$is_wide_character_specifier@_W@__crt_stdio_output@@YA_N_K_WW4length_modifier@0@@Z 1005bc4e f i libucrt:output.obj
 0001:0005ac9d       ??$scratch_data@D@formatting_buffer@__crt_stdio_output@@QAEPADXZ 1005bc9d f i libucrt:output.obj
 0001:0005acbb       ??$type_case_integer_parse_into_buffer@I@?$output_processor@DV?$stream_output_adapter@D@__crt_stdio_output@@V?$standard_base@DV?$stream_output_adapter@D@__crt_stdio_output@@@2@@__crt_stdio_output@@AAEXII_N@Z 1005bcbb f i libucrt:output.obj
 0001:0005acbb       ??$type_case_integer_parse_into_buffer@I@?$output_processor@_WV?$string_output_adapter@_W@__crt_stdio_output@@V?$standard_base@_WV?$string_output_adapter@_W@__crt_stdio_output@@@2@@__crt_stdio_output@@AAEXII_N@Z 1005bcbb f i libucrt:output.obj
 0001:0005acbb       ??$type_case_integer_parse_into_buffer@I@?$output_processor@DV?$string_output_adapter@D@__crt_stdio_output@@V?$format_validation_base@DV?$string_output_adapter@D@__crt_stdio_output@@@2@@__crt_stdio_output@@AAEXII_N@Z 1005bcbb f i libucrt:output.obj
 0001:0005acbb       ??$type_case_integer_parse_into_buffer@I@?$output_processor@DV?$string_output_adapter@D@__crt_stdio_output@@V?$standard_base@DV?$string_output_adapter@D@__crt_stdio_output@@@2@@__crt_stdio_output@@AAEXII_N@Z 1005bcbb f i libucrt:output.obj
 0001:0005acbb       ??$type_case_integer_parse_into_buffer@I@?$output_processor@_WV?$stream_output_adapter@_W@__crt_stdio_output@@V?$standard_base@_WV?$stream_output_adapter@_W@__crt_stdio_output@@@2@@__crt_stdio_output@@AAEXII_N@Z 1005bcbb f i libucrt:output.obj
 0001:0005ad30       ??$type_case_integer_parse_into_buffer@_K@?$output_processor@_WV?$string_output_adapter@_W@__crt_stdio_output@@V?$standard_base@_WV?$string_output_adapter@_W@__crt_stdio_output@@@2@@__crt_stdio_output@@AAEX_KI_N@Z 1005bd30 f i libucrt:output.obj
 0001:0005ad30       ??$type_case_integer_parse_into_buffer@_K@?$output_processor@DV?$stream_output_adapter@D@__crt_stdio_output@@V?$standard_base@DV?$stream_output_adapter@D@__crt_stdio_output@@@2@@__crt_stdio_output@@AAEX_KI_N@Z 1005bd30 f i libucrt:output.obj
 0001:0005ad30       ??$type_case_integer_parse_into_buffer@_K@?$output_processor@DV?$string_output_adapter@D@__crt_stdio_output@@V?$standard_base@DV?$string_output_adapter@D@__crt_stdio_output@@@2@@__crt_stdio_output@@AAEX_KI_N@Z 1005bd30 f i libucrt:output.obj
 0001:0005ad30       ??$type_case_integer_parse_into_buffer@_K@?$output_processor@DV?$string_output_adapter@D@__crt_stdio_output@@V?$format_validation_base@DV?$string_output_adapter@D@__crt_stdio_output@@@2@@__crt_stdio_output@@AAEX_KI_N@Z 1005bd30 f i libucrt:output.obj
 0001:0005ad30       ??$type_case_integer_parse_into_buffer@_K@?$output_processor@_WV?$stream_output_adapter@_W@__crt_stdio_output@@V?$standard_base@_WV?$stream_output_adapter@_W@__crt_stdio_output@@@2@@__crt_stdio_output@@AAEX_KI_N@Z 1005bd30 f i libucrt:output.obj
 0001:0005adb8       ??$write_multiple_characters@V?$stream_output_adapter@D@__crt_stdio_output@@D@__crt_stdio_output@@YAXABV?$stream_output_adapter@D@0@DHQAH@Z 1005bdb8 f i libucrt:output.obj
 0001:0005ade4       ??$write_multiple_characters@V?$stream_output_adapter@_W@__crt_stdio_output@@D@__crt_stdio_output@@YAXABV?$stream_output_adapter@_W@0@DHQAH@Z 1005bde4 f i libucrt:output.obj
 0001:0005ae15       ??$write_multiple_characters@V?$string_output_adapter@D@__crt_stdio_output@@D@__crt_stdio_output@@YAXABV?$string_output_adapter@D@0@DHQAH@Z 1005be15 f i libucrt:output.obj
 0001:0005ae41       ??$write_multiple_characters@V?$string_output_adapter@_W@__crt_stdio_output@@D@__crt_stdio_output@@YAXABV?$string_output_adapter@_W@0@DHQAH@Z 1005be41 f i libucrt:output.obj
 0001:0005ae72       ??0?$common_data@D@__crt_stdio_output@@IAE@XZ 1005be72 f i libucrt:output.obj
 0001:0005aeb9       ??0?$common_data@_W@__crt_stdio_output@@IAE@XZ 1005beb9 f i libucrt:output.obj
 0001:0005af05       ??0?$output_adapter_data@DV?$stream_output_adapter@D@__crt_stdio_output@@@__crt_stdio_output@@IAE@ABV?$stream_output_adapter@D@1@_KQBDQAU__crt_locale_pointers@@QAD@Z 1005bf05 f i libucrt:output.obj
 0001:0005af05       ??0?$output_adapter_data@DV?$string_output_adapter@D@__crt_stdio_output@@@__crt_stdio_output@@IAE@ABV?$string_output_adapter@D@1@_KQBDQAU__crt_locale_pointers@@QAD@Z 1005bf05 f i libucrt:output.obj
 0001:0005af41       ??0?$output_adapter_data@_WV?$string_output_adapter@_W@__crt_stdio_output@@@__crt_stdio_output@@IAE@ABV?$string_output_adapter@_W@1@_KQB_WQAU__crt_locale_pointers@@QAD@Z 1005bf41 f i libucrt:output.obj
 0001:0005af41       ??0?$output_adapter_data@_WV?$stream_output_adapter@_W@__crt_stdio_output@@@__crt_stdio_output@@IAE@ABV?$stream_output_adapter@_W@1@_KQB_WQAU__crt_locale_pointers@@QAD@Z 1005bf41 f i libucrt:output.obj
 0001:0005af7d       ??0?$output_processor@DV?$stream_output_adapter@D@__crt_stdio_output@@V?$standard_base@DV?$stream_output_adapter@D@__crt_stdio_output@@@2@@__crt_stdio_output@@QAE@ABV?$stream_output_adapter@D@1@_KQBDQAU__crt_locale_pointers@@QAD@Z 1005bf7d f i libucrt:output.obj
 0001:0005af7d       ??0?$output_processor@DV?$string_output_adapter@D@__crt_stdio_output@@V?$format_validation_base@DV?$string_output_adapter@D@__crt_stdio_output@@@2@@__crt_stdio_output@@QAE@ABV?$string_output_adapter@D@1@_KQBDQAU__crt_locale_pointers@@QAD@Z 1005bf7d f i libucrt:output.obj
